
common.o:     file format elf64-x86-64


Disassembly of section .group:

0000000000000000 <wm4.0.3d3bcd8037c5a07f0e0170b31e6e52f9>:
   0:	01 00                	add    %eax,(%rax)
   2:	00 00                	add    %al,(%rax)
   4:	5a                   	pop    %rdx
   5:	00 00                	add    %al,(%rax)
	...

Disassembly of section .group:

0000000000000000 <wm4.stdcpredef.h.19.bf2bf6c5fb087dfb5ef2d2297c2795de>:
   0:	01 00                	add    %eax,(%rax)
   2:	00 00                	add    %al,(%rax)
   4:	5c                   	pop    %rsp
   5:	00 00                	add    %al,(%rax)
	...

Disassembly of section .group:

0000000000000000 <wm4.fuse_opt.h.10.2da50c715c73da6365058737bf056a93>:
   0:	01 00                	add    %eax,(%rax)
   2:	00 00                	add    %al,(%rax)
   4:	5e                   	pop    %rsi
   5:	00 00                	add    %al,(%rax)
	...

Disassembly of section .group:

0000000000000000 <wm4.features.h.19.4fb4ae4a7ecd2092e20b6e858b4f3bc9>:
   0:	01 00                	add    %eax,(%rax)
   2:	00 00                	add    %al,(%rax)
   4:	60                   	(bad)  
   5:	00 00                	add    %al,(%rax)
	...

Disassembly of section .group:

0000000000000000 <wm4.cdefs.h.19.e107c3371efa9ef36ee8ae09396d7011>:
   0:	01 00                	add    %eax,(%rax)
   2:	00 00                	add    %al,(%rax)
   4:	62                   	.byte 0x62
   5:	00 00                	add    %al,(%rax)
	...

Disassembly of section .group:

0000000000000000 <wm4.wordsize.h.4.256e8fdbd37801980286acdbc40d0280>:
   0:	01 00                	add    %eax,(%rax)
   2:	00 00                	add    %al,(%rax)
   4:	64 00 00             	add    %al,%fs:(%rax)
	...

Disassembly of section .group:

0000000000000000 <wm4.cdefs.h.432.619afd0aac7c4b439843706c1b28ddea>:
   0:	01 00                	add    %eax,(%rax)
   2:	00 00                	add    %al,(%rax)
   4:	66 00 00             	data16 add %al,(%rax)
	...

Disassembly of section .group:

0000000000000000 <wm4.stubs64.h.10.918ceb5fa58268542bf143e4c1efbcf3>:
   0:	01 00                	add    %eax,(%rax)
   2:	00 00                	add    %al,(%rax)
   4:	68                   	.byte 0x68
   5:	00 00                	add    %al,(%rax)
	...

Disassembly of section .group:

0000000000000000 <wm4.wchar.h.20.510818a05484290d697a517509bf4b2d>:
   0:	01 00                	add    %eax,(%rax)
   2:	00 00                	add    %al,(%rax)
   4:	6a 00                	pushq  $0x0
	...

Disassembly of section .group:

0000000000000000 <wm4.stdint.h.35.e53b4d001f0b958bab74645e9a3f6a60>:
   0:	01 00                	add    %eax,(%rax)
   2:	00 00                	add    %al,(%rax)
   4:	6c                   	insb   (%dx),%es:(%rdi)
   5:	00 00                	add    %al,(%rax)
	...

Disassembly of section .group:

0000000000000000 <wm4.types.h.89.468e2451361e3b92f048f6cad51690ff>:
   0:	01 00                	add    %eax,(%rax)
   2:	00 00                	add    %al,(%rax)
   4:	6e                   	outsb  %ds:(%rsi),(%dx)
   5:	00 00                	add    %al,(%rax)
	...

Disassembly of section .group:

0000000000000000 <wm4.typesizes.h.24.40eb69a6270178f15d1bf3d7b6635a8b>:
   0:	01 00                	add    %eax,(%rax)
   2:	00 00                	add    %al,(%rax)
   4:	70 00                	jo     6 <wm4.typesizes.h.24.40eb69a6270178f15d1bf3d7b6635a8b+0x6>
	...

Disassembly of section .group:

0000000000000000 <wm4.types.h.40.b5bfe575db5cb6c5345c9ab5cf906820>:
   0:	01 00                	add    %eax,(%rax)
   2:	00 00                	add    %al,(%rax)
   4:	72 00                	jb     6 <wm4.types.h.40.b5bfe575db5cb6c5345c9ab5cf906820+0x6>
	...

Disassembly of section .group:

0000000000000000 <wm4.time.h.53.beb46e650cd406cb917b6b96b45e640a>:
   0:	01 00                	add    %eax,(%rax)
   2:	00 00                	add    %al,(%rax)
   4:	74 00                	je     6 <wm4.time.h.53.beb46e650cd406cb917b6b96b45e640a+0x6>
	...

Disassembly of section .group:

0000000000000000 <wm4.stddef.h.187.16ef0524e1724b0cb2c6fb742929660a>:
   0:	01 00                	add    %eax,(%rax)
   2:	00 00                	add    %al,(%rax)
   4:	76 00                	jbe    6 <wm4.stddef.h.187.16ef0524e1724b0cb2c6fb742929660a+0x6>
	...

Disassembly of section .group:

0000000000000000 <wm4.types.h.187.fd8c81c4bff8969f5d23c3a34aa715af>:
   0:	01 00                	add    %eax,(%rax)
   2:	00 00                	add    %al,(%rax)
   4:	78 00                	js     6 <wm4.types.h.187.fd8c81c4bff8969f5d23c3a34aa715af+0x6>
	...

Disassembly of section .group:

0000000000000000 <wm4.endian.h.19.ff00c9c0f5e9f9a9719c5de76ace57b4>:
   0:	01 00                	add    %eax,(%rax)
   2:	00 00                	add    %al,(%rax)
   4:	7a 00                	jp     6 <wm4.endian.h.19.ff00c9c0f5e9f9a9719c5de76ace57b4+0x6>
	...

Disassembly of section .group:

0000000000000000 <wm4.endian.h.41.24cced64aef71195a51d4daa8e4f4a95>:
   0:	01 00                	add    %eax,(%rax)
   2:	00 00                	add    %al,(%rax)
   4:	7c 00                	jl     6 <wm4.endian.h.41.24cced64aef71195a51d4daa8e4f4a95+0x6>
	...

Disassembly of section .group:

0000000000000000 <wm4.byteswap.h.38.11ee5fdc0f6cc53a16c505b9233cecef>:
   0:	01 00                	add    %eax,(%rax)
   2:	00 00                	add    %al,(%rax)
   4:	7e 00                	jle    6 <wm4.byteswap.h.38.11ee5fdc0f6cc53a16c505b9233cecef+0x6>
	...

Disassembly of section .group:

0000000000000000 <wm4.endian.h.63.97272d7c64d5db8020003b32e9289502>:
   0:	01 00                	add    %eax,(%rax)
   2:	00 00                	add    %al,(%rax)
   4:	80 00 00             	addb   $0x0,(%rax)
	...

Disassembly of section .group:

0000000000000000 <wm4.select.h.28.eb2f3debdbcffd1442ebddaebc4fb6ff>:
   0:	01 00                	add    %eax,(%rax)
   2:	00 00                	add    %al,(%rax)
   4:	82                   	(bad)  
   5:	00 00                	add    %al,(%rax)
	...

Disassembly of section .group:

0000000000000000 <wm4.sigset.h.20.f36413b6d2364ad847d3db53fb03e683>:
   0:	01 00                	add    %eax,(%rax)
   2:	00 00                	add    %al,(%rax)
   4:	84 00                	test   %al,(%rax)
	...

Disassembly of section .group:

0000000000000000 <wm4.select.h.36.f76c3b9e55c871743863013cc4cc14c9>:
   0:	01 00                	add    %eax,(%rax)
   2:	00 00                	add    %al,(%rax)
   4:	86 00                	xchg   %al,(%rax)
	...

Disassembly of section .group:

0000000000000000 <wm4.time.h.66.e70ce69790c975f0efb369340c432e0b>:
   0:	01 00                	add    %eax,(%rax)
   2:	00 00                	add    %al,(%rax)
   4:	88 00                	mov    %al,(%rax)
	...

Disassembly of section .group:

0000000000000000 <wm4.time.h.25.ae5284cdff565e87a9198d819340325d>:
   0:	01 00                	add    %eax,(%rax)
   2:	00 00                	add    %al,(%rax)
   4:	8a 00                	mov    (%rax),%al
	...

Disassembly of section .group:

0000000000000000 <wm4.select.h.49.e9d2041e5035cc68ebd1a20f7dbc8514>:
   0:	01 00                	add    %eax,(%rax)
   2:	00 00                	add    %al,(%rax)
   4:	8c 00                	mov    %es,(%rax)
	...

Disassembly of section .group:

0000000000000000 <wm4.sysmacros.h.20.8a0c33ff175cd9b434a86c0aaa36f0a2>:
   0:	01 00                	add    %eax,(%rax)
   2:	00 00                	add    %al,(%rax)
   4:	8e 00                	mov    (%rax),%es
	...

Disassembly of section .group:

0000000000000000 <wm4.types.h.229.9341dd260faf6088c329e005e23be986>:
   0:	01 00                	add    %eax,(%rax)
   2:	00 00                	add    %al,(%rax)
   4:	90                   	nop
   5:	00 00                	add    %al,(%rax)
	...

Disassembly of section .group:

0000000000000000 <wm4.pthreadtypes.h.25.6892b1493314fcf446bbc76e7362acba>:
   0:	01 00                	add    %eax,(%rax)
   2:	00 00                	add    %al,(%rax)
   4:	92                   	xchg   %eax,%edx
   5:	00 00                	add    %al,(%rax)
	...

Disassembly of section .group:

0000000000000000 <wm4.fuse_common.h.23.f26d9af447492fd1910f30daf8d0d8ea>:
   0:	01 00                	add    %eax,(%rax)
   2:	00 00                	add    %al,(%rax)
   4:	94                   	xchg   %eax,%esp
   5:	00 00                	add    %al,(%rax)
	...

Disassembly of section .group:

0000000000000000 <wm4.fcntl.h.24.62c7e777a8b210e920ccbb92cfe8b9d8>:
   0:	01 00                	add    %eax,(%rax)
   2:	00 00                	add    %al,(%rax)
   4:	96                   	xchg   %eax,%esi
   5:	00 00                	add    %al,(%rax)
	...

Disassembly of section .group:

0000000000000000 <wm4.fcntllinux.h.42.a870700a8e827fb905f38d1e674214d0>:
   0:	01 00                	add    %eax,(%rax)
   2:	00 00                	add    %al,(%rax)
   4:	98                   	cwtl   
   5:	00 00                	add    %al,(%rax)
	...

Disassembly of section .group:

0000000000000000 <wm4.fcntl.h.40.8ff0a2b883e8f8c14f135fe2e029942a>:
   0:	01 00                	add    %eax,(%rax)
   2:	00 00                	add    %al,(%rax)
   4:	9a                   	(bad)  
   5:	00 00                	add    %al,(%rax)
	...

Disassembly of section .group:

0000000000000000 <wm4.time.h.66.fa652aa18ecf92239cee124d5533fe97>:
   0:	01 00                	add    %eax,(%rax)
   2:	00 00                	add    %al,(%rax)
   4:	9c                   	pushfq 
   5:	00 00                	add    %al,(%rax)
	...

Disassembly of section .group:

0000000000000000 <wm4.stat.h.23.71443f0579dab3228134d84ad7d61c3e>:
   0:	01 00                	add    %eax,(%rax)
   2:	00 00                	add    %al,(%rax)
   4:	9e                   	sahf   
   5:	00 00                	add    %al,(%rax)
	...

Disassembly of section .group:

0000000000000000 <wm4.fcntl.h.79.1b8e643ad8ec15e80ca5a02cd230a858>:
   0:	01 00                	add    %eax,(%rax)
   2:	00 00                	add    %al,(%rax)
   4:	a0                   	.byte 0xa0
   5:	00 00                	add    %al,(%rax)
	...

Disassembly of section .group:

0000000000000000 <wm4.time.h.26.6a3cabd4f228e226db6723a3b0c81ba6>:
   0:	01 00                	add    %eax,(%rax)
   2:	00 00                	add    %al,(%rax)
   4:	a2                   	.byte 0xa2
   5:	00 00                	add    %al,(%rax)
	...

Disassembly of section .group:

0000000000000000 <wm4.stddef.h.238.04cc7214bceba497b20d15c10fd97511>:
   0:	01 00                	add    %eax,(%rax)
   2:	00 00                	add    %al,(%rax)
   4:	a4                   	movsb  %ds:(%rsi),%es:(%rdi)
   5:	00 00                	add    %al,(%rax)
	...

Disassembly of section .group:

0000000000000000 <wm4.time.h.40.ef4cac57544640468516e1691b64cd57>:
   0:	01 00                	add    %eax,(%rax)
   2:	00 00                	add    %al,(%rax)
   4:	a6                   	cmpsb  %es:(%rdi),%ds:(%rsi)
   5:	00 00                	add    %al,(%rax)
	...

Disassembly of section .group:

0000000000000000 <wm4.utime.h.23.e9645c553432cb13c238eb7840cfcb47>:
   0:	01 00                	add    %eax,(%rax)
   2:	00 00                	add    %al,(%rax)
   4:	a8 00                	test   $0x0,%al
	...

Disassembly of section .group:

0000000000000000 <wm4.stat.h.23.034923aa253537bdc4e59720e9e8ed3d>:
   0:	01 00                	add    %eax,(%rax)
   2:	00 00                	add    %al,(%rax)
   4:	aa                   	stos   %al,%es:(%rdi)
   5:	00 00                	add    %al,(%rax)
	...

Disassembly of section .group:

0000000000000000 <wm4.stat.h.107.43f8ebdec21eca5e13896fd19df564c8>:
   0:	01 00                	add    %eax,(%rax)
   2:	00 00                	add    %al,(%rax)
   4:	ac                   	lods   %ds:(%rsi),%al
   5:	00 00                	add    %al,(%rax)
	...

Disassembly of section .group:

0000000000000000 <wm4.statvfs.h.83.c26e77bdc900355b9420d6a13e82672e>:
   0:	01 00                	add    %eax,(%rax)
   2:	00 00                	add    %al,(%rax)
   4:	ae                   	scas   %es:(%rdi),%al
   5:	00 00                	add    %al,(%rax)
	...

Disassembly of section .group:

0000000000000000 <wm4.uio.h.23.aa0898d8f5bb12d9ecd480ebbdbd1a4d>:
   0:	01 00                	add    %eax,(%rax)
   2:	00 00                	add    %al,(%rax)
   4:	b0 00                	mov    $0x0,%al
	...

Disassembly of section .group:

0000000000000000 <wm4.fuse.h.648.d1a0dec56f3a63aa3b479bd8a0294e25>:
   0:	01 00                	add    %eax,(%rax)
   2:	00 00                	add    %al,(%rax)
   4:	b2 00                	mov    $0x0,%dl
	...

Disassembly of section .group:

0000000000000000 <wm4.stdio.h.26.4719156f1aea2bb9662fd6c582dc9a4c>:
   0:	01 00                	add    %eax,(%rax)
   2:	00 00                	add    %al,(%rax)
   4:	b4 00                	mov    $0x0,%ah
	...

Disassembly of section .group:

0000000000000000 <wm4.stdio.h.36.2dd12c1fd035242ad5cfd0152a01be5a>:
   0:	01 00                	add    %eax,(%rax)
   2:	00 00                	add    %al,(%rax)
   4:	b6 00                	mov    $0x0,%dh
	...

Disassembly of section .group:

0000000000000000 <wm4._G_config.h.5.b0f37d9e474454cf6e459063458db32f>:
   0:	01 00                	add    %eax,(%rax)
   2:	00 00                	add    %al,(%rax)
   4:	b8                   	.byte 0xb8
   5:	00 00                	add    %al,(%rax)
	...

Disassembly of section .group:

0000000000000000 <wm4.wchar.h.80.eea3eba2d2a17aace9470a8e0d8218dc>:
   0:	01 00                	add    %eax,(%rax)
   2:	00 00                	add    %al,(%rax)
   4:	ba                   	.byte 0xba
   5:	00 00                	add    %al,(%rax)
	...

Disassembly of section .group:

0000000000000000 <wm4._G_config.h.46.5187c97b14fd664662cb32e6b94fc49e>:
   0:	01 00                	add    %eax,(%rax)
   2:	00 00                	add    %al,(%rax)
   4:	bc                   	.byte 0xbc
   5:	00 00                	add    %al,(%rax)
	...

Disassembly of section .group:

0000000000000000 <wm4.libio.h.33.a775b9ecae273f33bc59931e9891e4ca>:
   0:	01 00                	add    %eax,(%rax)
   2:	00 00                	add    %al,(%rax)
   4:	be                   	.byte 0xbe
   5:	00 00                	add    %al,(%rax)
	...

Disassembly of section .group:

0000000000000000 <wm4.stdarg.h.34.3a23a216c0c293b3d2ea2e89281481e6>:
   0:	01 00                	add    %eax,(%rax)
   2:	00 00                	add    %al,(%rax)
   4:	c0 00 00             	rolb   $0x0,(%rax)
	...

Disassembly of section .group:

0000000000000000 <wm4.libio.h.51.dab170798ec1df48c625aea7c30e1b63>:
   0:	01 00                	add    %eax,(%rax)
   2:	00 00                	add    %al,(%rax)
   4:	c2 00 00             	retq   $0x0
	...

Disassembly of section .group:

0000000000000000 <wm4.stdio.h.80.17b7dd1ca72d8a61987532cb1d80194a>:
   0:	01 00                	add    %eax,(%rax)
   2:	00 00                	add    %al,(%rax)
   4:	c4                   	(bad)  
   5:	00 00                	add    %al,(%rax)
	...

Disassembly of section .group:

0000000000000000 <wm4.stdio_lim.h.23.557290a6cddeba0587f574f29e3a5fb9>:
   0:	01 00                	add    %eax,(%rax)
   2:	00 00                	add    %al,(%rax)
   4:	c6 00 00             	movb   $0x0,(%rax)
	...

Disassembly of section .group:

0000000000000000 <wm4.stdio.h.172.df21df34a7396d7da2e08f9b617d582f>:
   0:	01 00                	add    %eax,(%rax)
   2:	00 00                	add    %al,(%rax)
   4:	c8 00 00 00          	enterq $0x0,$0x0

Disassembly of section .group:

0000000000000000 <wm4.stdlib.h.27.59e2586c75bdbcb991b248ad7257b993>:
   0:	01 00                	add    %eax,(%rax)
   2:	00 00                	add    %al,(%rax)
   4:	ca 00 00             	lret   $0x0
	...

Disassembly of section .group:

0000000000000000 <wm4.stddef.h.238.5c3398669aab31a6fd426ff45ca6ab2c>:
   0:	01 00                	add    %eax,(%rax)
   2:	00 00                	add    %al,(%rax)
   4:	cc                   	int3   
   5:	00 00                	add    %al,(%rax)
	...

Disassembly of section .group:

0000000000000000 <wm4.waitflags.h.25.e401b8bcfee800b540b27abd7cc78de9>:
   0:	01 00                	add    %eax,(%rax)
   2:	00 00                	add    %al,(%rax)
   4:	ce                   	(bad)  
   5:	00 00                	add    %al,(%rax)
	...

Disassembly of section .group:

0000000000000000 <wm4.waitstatus.h.28.75da223233ea088d05b70fad69e90c9e>:
   0:	01 00                	add    %eax,(%rax)
   2:	00 00                	add    %al,(%rax)
   4:	d0 00                	rolb   (%rax)
	...

Disassembly of section .group:

0000000000000000 <wm4.stdlib.h.50.004511e3ec0e76322cbe36667c75a8b0>:
   0:	01 00                	add    %eax,(%rax)
   2:	00 00                	add    %al,(%rax)
   4:	d2 00                	rolb   %cl,(%rax)
	...

Disassembly of section .group:

0000000000000000 <wm4.alloca.h.19.edefa922a76c1cbaaf1e416903ba2d1c>:
   0:	01 00                	add    %eax,(%rax)
   2:	00 00                	add    %al,(%rax)
   4:	d4                   	(bad)  
   5:	00 00                	add    %al,(%rax)
	...

Disassembly of section .group:

0000000000000000 <wm4.stddef.h.238.847b6907dabda77be90a9ab7ad789e2e>:
   0:	01 00                	add    %eax,(%rax)
   2:	00 00                	add    %al,(%rax)
   4:	d6                   	(bad)  
   5:	00 00                	add    %al,(%rax)
	...

Disassembly of section .group:

0000000000000000 <wm4.alloca.h.29.156e12058824cc23d961c4d3b13031f6>:
   0:	01 00                	add    %eax,(%rax)
   2:	00 00                	add    %al,(%rax)
   4:	d8 00                	fadds  (%rax)
	...

Disassembly of section .group:

0000000000000000 <wm4.string.h.23.8394011d5995a16f15d67d04e84a1d69>:
   0:	01 00                	add    %eax,(%rax)
   2:	00 00                	add    %al,(%rax)
   4:	da 00                	fiaddl (%rax)
	...

Disassembly of section .group:

0000000000000000 <wm4.errno.h.21.234adedf0a908ba1512bb39778d0c13a>:
   0:	01 00                	add    %eax,(%rax)
   2:	00 00                	add    %al,(%rax)
   4:	dc 00                	faddl  (%rax)
	...

Disassembly of section .group:

0000000000000000 <wm4.errnobase.h.2.3ec77d86fa6012e288bd2eb28191253f>:
   0:	01 00                	add    %eax,(%rax)
   2:	00 00                	add    %al,(%rax)
   4:	de 00                	fiadd  (%rax)
	...

Disassembly of section .group:

0000000000000000 <wm4.errno.h.6.6707cf97e82b783d19d3d077217dd04e>:
   0:	01 00                	add    %eax,(%rax)
   2:	00 00                	add    %al,(%rax)
   4:	e0 00                	loopne 6 <wm4.errno.h.6.6707cf97e82b783d19d3d077217dd04e+0x6>
	...

Disassembly of section .group:

0000000000000000 <wm4.errno.h.27.5f4b88dc9507696aecbaa61ffb4828e0>:
   0:	01 00                	add    %eax,(%rax)
   2:	00 00                	add    %al,(%rax)
   4:	e2 00                	loop   6 <wm4.errno.h.27.5f4b88dc9507696aecbaa61ffb4828e0+0x6>
	...

Disassembly of section .group:

0000000000000000 <wm4.sched.h.20.03e66e3b847677c1e781b90f4b73f77e>:
   0:	01 00                	add    %eax,(%rax)
   2:	00 00                	add    %al,(%rax)
   4:	e4 00                	in     $0x0,%al
	...

Disassembly of section .group:

0000000000000000 <wm4.sched.h.31.f838e85546a76474a8c4ae9ddad27ef3>:
   0:	01 00                	add    %eax,(%rax)
   2:	00 00                	add    %al,(%rax)
   4:	e6 00                	out    %al,$0x0
	...

Disassembly of section .group:

0000000000000000 <wm4.sched.h.28.25eb17a9847efe42b26af9ba02dfcd4f>:
   0:	01 00                	add    %eax,(%rax)
   2:	00 00                	add    %al,(%rax)
   4:	e8                   	.byte 0xe8
   5:	00 00                	add    %al,(%rax)
	...

Disassembly of section .group:

0000000000000000 <wm4.pthread.h.35.4f9cb94142f84ba1b6ddc012cb580952>:
   0:	01 00                	add    %eax,(%rax)
   2:	00 00                	add    %al,(%rax)
   4:	ea                   	(bad)  
   5:	00 00                	add    %al,(%rax)
	...

Disassembly of section .group:

0000000000000000 <wm4.disk.h.2.16acb1cb4ef7514f8c2125bbd4661cd9>:
   0:	01 00                	add    %eax,(%rax)
   2:	00 00                	add    %al,(%rax)
   4:	ec                   	in     (%dx),%al
   5:	00 00                	add    %al,(%rax)
	...

Disassembly of section .group:

0000000000000000 <wm4.assert.h.34.e765578288c49a7c6e3139df017146bb>:
   0:	01 00                	add    %eax,(%rax)
   2:	00 00                	add    %al,(%rax)
   4:	ee                   	out    %al,(%dx)
   5:	00 00                	add    %al,(%rax)
	...

Disassembly of section .group:

0000000000000000 <wm4.logging.h.6.190ba2b5112831a739c1e0d09c955f4a>:
   0:	01 00                	add    %eax,(%rax)
   2:	00 00                	add    %al,(%rax)
   4:	f0 00 00             	lock add %al,(%rax)
	...

Disassembly of section .group:

0000000000000000 <wm4.common.h.20.f119bca5e899c66db5413221445cde8a>:
   0:	01 00                	add    %eax,(%rax)
   2:	00 00                	add    %al,(%rax)
   4:	f2 00 00             	repnz add %al,(%rax)
	...

Disassembly of section .text:

0000000000000000 <p6fs_mkdir>:
   0:	55                   	push   %rbp
   1:	48 89 e5             	mov    %rsp,%rbp
   4:	48 89 7d f8          	mov    %rdi,-0x8(%rbp)
   8:	89 75 f4             	mov    %esi,-0xc(%rbp)
   b:	90                   	nop
   c:	5d                   	pop    %rbp
   d:	c3                   	retq   

000000000000000e <p6fs_rmdir>:
   e:	55                   	push   %rbp
   f:	48 89 e5             	mov    %rsp,%rbp
  12:	48 89 7d f8          	mov    %rdi,-0x8(%rbp)
  16:	90                   	nop
  17:	5d                   	pop    %rbp
  18:	c3                   	retq   

0000000000000019 <p6fs_readdir>:
  19:	55                   	push   %rbp
  1a:	48 89 e5             	mov    %rsp,%rbp
  1d:	48 89 7d f8          	mov    %rdi,-0x8(%rbp)
  21:	48 89 75 f0          	mov    %rsi,-0x10(%rbp)
  25:	48 89 55 e8          	mov    %rdx,-0x18(%rbp)
  29:	48 89 4d e0          	mov    %rcx,-0x20(%rbp)
  2d:	4c 89 45 d8          	mov    %r8,-0x28(%rbp)
  31:	90                   	nop
  32:	5d                   	pop    %rbp
  33:	c3                   	retq   

0000000000000034 <p6fs_mknod>:
  34:	55                   	push   %rbp
  35:	48 89 e5             	mov    %rsp,%rbp
  38:	48 89 7d f8          	mov    %rdi,-0x8(%rbp)
  3c:	89 75 f4             	mov    %esi,-0xc(%rbp)
  3f:	48 89 55 e8          	mov    %rdx,-0x18(%rbp)
  43:	90                   	nop
  44:	5d                   	pop    %rbp
  45:	c3                   	retq   

0000000000000046 <p6fs_symlink>:
  46:	55                   	push   %rbp
  47:	48 89 e5             	mov    %rsp,%rbp
  4a:	48 89 7d f8          	mov    %rdi,-0x8(%rbp)
  4e:	48 89 75 f0          	mov    %rsi,-0x10(%rbp)
  52:	90                   	nop
  53:	5d                   	pop    %rbp
  54:	c3                   	retq   

0000000000000055 <p6fs_link>:
  55:	55                   	push   %rbp
  56:	48 89 e5             	mov    %rsp,%rbp
  59:	48 89 7d f8          	mov    %rdi,-0x8(%rbp)
  5d:	48 89 75 f0          	mov    %rsi,-0x10(%rbp)
  61:	90                   	nop
  62:	5d                   	pop    %rbp
  63:	c3                   	retq   

0000000000000064 <p6fs_unlink>:
  64:	55                   	push   %rbp
  65:	48 89 e5             	mov    %rsp,%rbp
  68:	48 89 7d f8          	mov    %rdi,-0x8(%rbp)
  6c:	90                   	nop
  6d:	5d                   	pop    %rbp
  6e:	c3                   	retq   

000000000000006f <p6fs_open>:
  6f:	55                   	push   %rbp
  70:	48 89 e5             	mov    %rsp,%rbp
  73:	48 89 7d e8          	mov    %rdi,-0x18(%rbp)
  77:	48 89 75 e0          	mov    %rsi,-0x20(%rbp)
  7b:	48 8b 55 f8          	mov    -0x8(%rbp),%rdx
  7f:	48 8b 45 e0          	mov    -0x20(%rbp),%rax
  83:	48 89 50 18          	mov    %rdx,0x18(%rax)
  87:	90                   	nop
  88:	5d                   	pop    %rbp
  89:	c3                   	retq   

000000000000008a <p6fs_read>:
  8a:	55                   	push   %rbp
  8b:	48 89 e5             	mov    %rsp,%rbp
  8e:	48 89 7d f8          	mov    %rdi,-0x8(%rbp)
  92:	48 89 75 f0          	mov    %rsi,-0x10(%rbp)
  96:	48 89 55 e8          	mov    %rdx,-0x18(%rbp)
  9a:	48 89 4d e0          	mov    %rcx,-0x20(%rbp)
  9e:	4c 89 45 d8          	mov    %r8,-0x28(%rbp)
  a2:	90                   	nop
  a3:	5d                   	pop    %rbp
  a4:	c3                   	retq   

00000000000000a5 <p6fs_write>:
  a5:	55                   	push   %rbp
  a6:	48 89 e5             	mov    %rsp,%rbp
  a9:	48 89 7d f8          	mov    %rdi,-0x8(%rbp)
  ad:	48 89 75 f0          	mov    %rsi,-0x10(%rbp)
  b1:	48 89 55 e8          	mov    %rdx,-0x18(%rbp)
  b5:	48 89 4d e0          	mov    %rcx,-0x20(%rbp)
  b9:	4c 89 45 d8          	mov    %r8,-0x28(%rbp)
  bd:	90                   	nop
  be:	5d                   	pop    %rbp
  bf:	c3                   	retq   

00000000000000c0 <p6fs_truncate>:
  c0:	55                   	push   %rbp
  c1:	48 89 e5             	mov    %rsp,%rbp
  c4:	48 89 7d f8          	mov    %rdi,-0x8(%rbp)
  c8:	48 89 75 f0          	mov    %rsi,-0x10(%rbp)
  cc:	90                   	nop
  cd:	5d                   	pop    %rbp
  ce:	c3                   	retq   

00000000000000cf <p6fs_release>:
  cf:	55                   	push   %rbp
  d0:	48 89 e5             	mov    %rsp,%rbp
  d3:	48 89 7d f8          	mov    %rdi,-0x8(%rbp)
  d7:	48 89 75 f0          	mov    %rsi,-0x10(%rbp)
  db:	90                   	nop
  dc:	5d                   	pop    %rbp
  dd:	c3                   	retq   

00000000000000de <p6fs_getattr>:
  de:	55                   	push   %rbp
  df:	48 89 e5             	mov    %rsp,%rbp
  e2:	48 89 7d f8          	mov    %rdi,-0x8(%rbp)
  e6:	48 89 75 f0          	mov    %rsi,-0x10(%rbp)
  ea:	90                   	nop
  eb:	5d                   	pop    %rbp
  ec:	c3                   	retq   

00000000000000ed <p6fs_rename>:
  ed:	55                   	push   %rbp
  ee:	48 89 e5             	mov    %rsp,%rbp
  f1:	48 89 7d f8          	mov    %rdi,-0x8(%rbp)
  f5:	48 89 75 f0          	mov    %rsi,-0x10(%rbp)
  f9:	90                   	nop
  fa:	5d                   	pop    %rbp
  fb:	c3                   	retq   

00000000000000fc <p6fs_statfs>:
  fc:	55                   	push   %rbp
  fd:	48 89 e5             	mov    %rsp,%rbp
 100:	48 89 7d f8          	mov    %rdi,-0x8(%rbp)
 104:	48 89 75 f0          	mov    %rsi,-0x10(%rbp)
 108:	90                   	nop
 109:	5d                   	pop    %rbp
 10a:	c3                   	retq   

000000000000010b <p6fs_init>:
 10b:	55                   	push   %rbp
 10c:	48 89 e5             	mov    %rsp,%rbp
 10f:	48 89 7d f8          	mov    %rdi,-0x8(%rbp)
 113:	b8 00 00 00 00       	mov    $0x0,%eax
 118:	5d                   	pop    %rbp
 119:	c3                   	retq   

000000000000011a <p6fs_destroy>:
 11a:	55                   	push   %rbp
 11b:	48 89 e5             	mov    %rsp,%rbp
 11e:	48 83 ec 10          	sub    $0x10,%rsp
 122:	48 89 7d f8          	mov    %rdi,-0x8(%rbp)
 126:	b8 00 00 00 00       	mov    $0x0,%eax
 12b:	e8 00 00 00 00       	callq  130 <p6fs_destroy+0x16>
 130:	b8 00 00 00 00       	mov    $0x0,%eax
 135:	e8 00 00 00 00       	callq  13a <p6fs_destroy+0x20>
 13a:	90                   	nop
 13b:	c9                   	leaveq 
 13c:	c3                   	retq   

000000000000013d <path_ref>:
 13d:	55                   	push   %rbp
 13e:	48 89 e5             	mov    %rsp,%rbp
 141:	48 89 7d f8          	mov    %rdi,-0x8(%rbp)
 145:	90                   	nop
 146:	5d                   	pop    %rbp
 147:	c3                   	retq   
