
fuse-main.o:     file format elf64-x86-64


Disassembly of section .group:

0000000000000000 <wm4.0.3d3bcd8037c5a07f0e0170b31e6e52f9>:
   0:	01 00                	add    %eax,(%rax)
   2:	00 00                	add    %al,(%rax)
   4:	59                   	pop    %rcx
   5:	00 00                	add    %al,(%rax)
	...

Disassembly of section .group:

0000000000000000 <wm4.stdcpredef.h.19.bf2bf6c5fb087dfb5ef2d2297c2795de>:
   0:	01 00                	add    %eax,(%rax)
   2:	00 00                	add    %al,(%rax)
   4:	5b                   	pop    %rbx
   5:	00 00                	add    %al,(%rax)
	...

Disassembly of section .group:

0000000000000000 <wm4.features.h.19.4fb4ae4a7ecd2092e20b6e858b4f3bc9>:
   0:	01 00                	add    %eax,(%rax)
   2:	00 00                	add    %al,(%rax)
   4:	5d                   	pop    %rbp
   5:	00 00                	add    %al,(%rax)
	...

Disassembly of section .group:

0000000000000000 <wm4.cdefs.h.19.e107c3371efa9ef36ee8ae09396d7011>:
   0:	01 00                	add    %eax,(%rax)
   2:	00 00                	add    %al,(%rax)
   4:	5f                   	pop    %rdi
   5:	00 00                	add    %al,(%rax)
	...

Disassembly of section .group:

0000000000000000 <wm4.wordsize.h.4.256e8fdbd37801980286acdbc40d0280>:
   0:	01 00                	add    %eax,(%rax)
   2:	00 00                	add    %al,(%rax)
   4:	61                   	(bad)  
   5:	00 00                	add    %al,(%rax)
	...

Disassembly of section .group:

0000000000000000 <wm4.cdefs.h.432.619afd0aac7c4b439843706c1b28ddea>:
   0:	01 00                	add    %eax,(%rax)
   2:	00 00                	add    %al,(%rax)
   4:	63 00                	movslq (%rax),%eax
	...

Disassembly of section .group:

0000000000000000 <wm4.stubs64.h.10.918ceb5fa58268542bf143e4c1efbcf3>:
   0:	01 00                	add    %eax,(%rax)
   2:	00 00                	add    %al,(%rax)
   4:	65 00 00             	add    %al,%gs:(%rax)
	...

Disassembly of section .group:

0000000000000000 <wm4.stddef.h.39.99b5021e28f91cdb161c889e07266673>:
   0:	01 00                	add    %eax,(%rax)
   2:	00 00                	add    %al,(%rax)
   4:	67 00 00             	add    %al,(%eax)
	...

Disassembly of section .group:

0000000000000000 <wm4.fuse_opt.h.10.2da50c715c73da6365058737bf056a93>:
   0:	01 00                	add    %eax,(%rax)
   2:	00 00                	add    %al,(%rax)
   4:	69                   	.byte 0x69
   5:	00 00                	add    %al,(%rax)
	...

Disassembly of section .group:

0000000000000000 <wm4.wchar.h.20.510818a05484290d697a517509bf4b2d>:
   0:	01 00                	add    %eax,(%rax)
   2:	00 00                	add    %al,(%rax)
   4:	6b 00 00             	imul   $0x0,(%rax),%eax
	...

Disassembly of section .group:

0000000000000000 <wm4.stdint.h.35.e53b4d001f0b958bab74645e9a3f6a60>:
   0:	01 00                	add    %eax,(%rax)
   2:	00 00                	add    %al,(%rax)
   4:	6d                   	insl   (%dx),%es:(%rdi)
   5:	00 00                	add    %al,(%rax)
	...

Disassembly of section .group:

0000000000000000 <wm4.types.h.89.468e2451361e3b92f048f6cad51690ff>:
   0:	01 00                	add    %eax,(%rax)
   2:	00 00                	add    %al,(%rax)
   4:	6f                   	outsl  %ds:(%rsi),(%dx)
   5:	00 00                	add    %al,(%rax)
	...

Disassembly of section .group:

0000000000000000 <wm4.typesizes.h.24.40eb69a6270178f15d1bf3d7b6635a8b>:
   0:	01 00                	add    %eax,(%rax)
   2:	00 00                	add    %al,(%rax)
   4:	71 00                	jno    6 <wm4.typesizes.h.24.40eb69a6270178f15d1bf3d7b6635a8b+0x6>
	...

Disassembly of section .group:

0000000000000000 <wm4.types.h.40.b5bfe575db5cb6c5345c9ab5cf906820>:
   0:	01 00                	add    %eax,(%rax)
   2:	00 00                	add    %al,(%rax)
   4:	73 00                	jae    6 <wm4.types.h.40.b5bfe575db5cb6c5345c9ab5cf906820+0x6>
	...

Disassembly of section .group:

0000000000000000 <wm4.time.h.53.beb46e650cd406cb917b6b96b45e640a>:
   0:	01 00                	add    %eax,(%rax)
   2:	00 00                	add    %al,(%rax)
   4:	75 00                	jne    6 <wm4.time.h.53.beb46e650cd406cb917b6b96b45e640a+0x6>
	...

Disassembly of section .group:

0000000000000000 <wm4.stddef.h.161.19e15733342b50ead2919490b095303e>:
   0:	01 00                	add    %eax,(%rax)
   2:	00 00                	add    %al,(%rax)
   4:	77 00                	ja     6 <wm4.stddef.h.161.19e15733342b50ead2919490b095303e+0x6>
	...

Disassembly of section .group:

0000000000000000 <wm4.types.h.187.fd8c81c4bff8969f5d23c3a34aa715af>:
   0:	01 00                	add    %eax,(%rax)
   2:	00 00                	add    %al,(%rax)
   4:	79 00                	jns    6 <wm4.types.h.187.fd8c81c4bff8969f5d23c3a34aa715af+0x6>
	...

Disassembly of section .group:

0000000000000000 <wm4.endian.h.19.ff00c9c0f5e9f9a9719c5de76ace57b4>:
   0:	01 00                	add    %eax,(%rax)
   2:	00 00                	add    %al,(%rax)
   4:	7b 00                	jnp    6 <wm4.endian.h.19.ff00c9c0f5e9f9a9719c5de76ace57b4+0x6>
	...

Disassembly of section .group:

0000000000000000 <wm4.endian.h.41.24cced64aef71195a51d4daa8e4f4a95>:
   0:	01 00                	add    %eax,(%rax)
   2:	00 00                	add    %al,(%rax)
   4:	7d 00                	jge    6 <wm4.endian.h.41.24cced64aef71195a51d4daa8e4f4a95+0x6>
	...

Disassembly of section .group:

0000000000000000 <wm4.byteswap.h.38.11ee5fdc0f6cc53a16c505b9233cecef>:
   0:	01 00                	add    %eax,(%rax)
   2:	00 00                	add    %al,(%rax)
   4:	7f 00                	jg     6 <wm4.byteswap.h.38.11ee5fdc0f6cc53a16c505b9233cecef+0x6>
	...

Disassembly of section .group:

0000000000000000 <wm4.endian.h.63.97272d7c64d5db8020003b32e9289502>:
   0:	01 00                	add    %eax,(%rax)
   2:	00 00                	add    %al,(%rax)
   4:	81                   	.byte 0x81
   5:	00 00                	add    %al,(%rax)
	...

Disassembly of section .group:

0000000000000000 <wm4.select.h.28.eb2f3debdbcffd1442ebddaebc4fb6ff>:
   0:	01 00                	add    %eax,(%rax)
   2:	00 00                	add    %al,(%rax)
   4:	83 00 00             	addl   $0x0,(%rax)
	...

Disassembly of section .group:

0000000000000000 <wm4.sigset.h.20.f36413b6d2364ad847d3db53fb03e683>:
   0:	01 00                	add    %eax,(%rax)
   2:	00 00                	add    %al,(%rax)
   4:	85 00                	test   %eax,(%rax)
	...

Disassembly of section .group:

0000000000000000 <wm4.select.h.36.f76c3b9e55c871743863013cc4cc14c9>:
   0:	01 00                	add    %eax,(%rax)
   2:	00 00                	add    %al,(%rax)
   4:	87 00                	xchg   %eax,(%rax)
	...

Disassembly of section .group:

0000000000000000 <wm4.time.h.66.e70ce69790c975f0efb369340c432e0b>:
   0:	01 00                	add    %eax,(%rax)
   2:	00 00                	add    %al,(%rax)
   4:	89 00                	mov    %eax,(%rax)
	...

Disassembly of section .group:

0000000000000000 <wm4.time.h.25.ae5284cdff565e87a9198d819340325d>:
   0:	01 00                	add    %eax,(%rax)
   2:	00 00                	add    %al,(%rax)
   4:	8b 00                	mov    (%rax),%eax
	...

Disassembly of section .group:

0000000000000000 <wm4.select.h.49.e9d2041e5035cc68ebd1a20f7dbc8514>:
   0:	01 00                	add    %eax,(%rax)
   2:	00 00                	add    %al,(%rax)
   4:	8d 00                	lea    (%rax),%eax
	...

Disassembly of section .group:

0000000000000000 <wm4.sysmacros.h.20.8a0c33ff175cd9b434a86c0aaa36f0a2>:
   0:	01 00                	add    %eax,(%rax)
   2:	00 00                	add    %al,(%rax)
   4:	8f 00                	popq   (%rax)
	...

Disassembly of section .group:

0000000000000000 <wm4.types.h.229.9341dd260faf6088c329e005e23be986>:
   0:	01 00                	add    %eax,(%rax)
   2:	00 00                	add    %al,(%rax)
   4:	91                   	xchg   %eax,%ecx
   5:	00 00                	add    %al,(%rax)
	...

Disassembly of section .group:

0000000000000000 <wm4.pthreadtypes.h.25.6892b1493314fcf446bbc76e7362acba>:
   0:	01 00                	add    %eax,(%rax)
   2:	00 00                	add    %al,(%rax)
   4:	93                   	xchg   %eax,%ebx
   5:	00 00                	add    %al,(%rax)
	...

Disassembly of section .group:

0000000000000000 <wm4.fuse_common.h.23.f26d9af447492fd1910f30daf8d0d8ea>:
   0:	01 00                	add    %eax,(%rax)
   2:	00 00                	add    %al,(%rax)
   4:	95                   	xchg   %eax,%ebp
   5:	00 00                	add    %al,(%rax)
	...

Disassembly of section .group:

0000000000000000 <wm4.fcntl.h.24.62c7e777a8b210e920ccbb92cfe8b9d8>:
   0:	01 00                	add    %eax,(%rax)
   2:	00 00                	add    %al,(%rax)
   4:	97                   	xchg   %eax,%edi
   5:	00 00                	add    %al,(%rax)
	...

Disassembly of section .group:

0000000000000000 <wm4.fcntllinux.h.42.a870700a8e827fb905f38d1e674214d0>:
   0:	01 00                	add    %eax,(%rax)
   2:	00 00                	add    %al,(%rax)
   4:	99                   	cltd   
   5:	00 00                	add    %al,(%rax)
	...

Disassembly of section .group:

0000000000000000 <wm4.fcntl.h.40.8ff0a2b883e8f8c14f135fe2e029942a>:
   0:	01 00                	add    %eax,(%rax)
   2:	00 00                	add    %al,(%rax)
   4:	9b                   	fwait
   5:	00 00                	add    %al,(%rax)
	...

Disassembly of section .group:

0000000000000000 <wm4.time.h.66.fa652aa18ecf92239cee124d5533fe97>:
   0:	01 00                	add    %eax,(%rax)
   2:	00 00                	add    %al,(%rax)
   4:	9d                   	popfq  
   5:	00 00                	add    %al,(%rax)
	...

Disassembly of section .group:

0000000000000000 <wm4.stat.h.23.71443f0579dab3228134d84ad7d61c3e>:
   0:	01 00                	add    %eax,(%rax)
   2:	00 00                	add    %al,(%rax)
   4:	9f                   	lahf   
   5:	00 00                	add    %al,(%rax)
	...

Disassembly of section .group:

0000000000000000 <wm4.fcntl.h.79.1b8e643ad8ec15e80ca5a02cd230a858>:
   0:	01 00                	add    %eax,(%rax)
   2:	00 00                	add    %al,(%rax)
   4:	a1                   	.byte 0xa1
   5:	00 00                	add    %al,(%rax)
	...

Disassembly of section .group:

0000000000000000 <wm4.time.h.26.6a3cabd4f228e226db6723a3b0c81ba6>:
   0:	01 00                	add    %eax,(%rax)
   2:	00 00                	add    %al,(%rax)
   4:	a3                   	.byte 0xa3
   5:	00 00                	add    %al,(%rax)
	...

Disassembly of section .group:

0000000000000000 <wm4.time.h.40.ef4cac57544640468516e1691b64cd57>:
   0:	01 00                	add    %eax,(%rax)
   2:	00 00                	add    %al,(%rax)
   4:	a5                   	movsl  %ds:(%rsi),%es:(%rdi)
   5:	00 00                	add    %al,(%rax)
	...

Disassembly of section .group:

0000000000000000 <wm4.utime.h.23.e9645c553432cb13c238eb7840cfcb47>:
   0:	01 00                	add    %eax,(%rax)
   2:	00 00                	add    %al,(%rax)
   4:	a7                   	cmpsl  %es:(%rdi),%ds:(%rsi)
   5:	00 00                	add    %al,(%rax)
	...

Disassembly of section .group:

0000000000000000 <wm4.stat.h.23.034923aa253537bdc4e59720e9e8ed3d>:
   0:	01 00                	add    %eax,(%rax)
   2:	00 00                	add    %al,(%rax)
   4:	a9                   	.byte 0xa9
   5:	00 00                	add    %al,(%rax)
	...

Disassembly of section .group:

0000000000000000 <wm4.stat.h.107.43f8ebdec21eca5e13896fd19df564c8>:
   0:	01 00                	add    %eax,(%rax)
   2:	00 00                	add    %al,(%rax)
   4:	ab                   	stos   %eax,%es:(%rdi)
   5:	00 00                	add    %al,(%rax)
	...

Disassembly of section .group:

0000000000000000 <wm4.statvfs.h.83.c26e77bdc900355b9420d6a13e82672e>:
   0:	01 00                	add    %eax,(%rax)
   2:	00 00                	add    %al,(%rax)
   4:	ad                   	lods   %ds:(%rsi),%eax
   5:	00 00                	add    %al,(%rax)
	...

Disassembly of section .group:

0000000000000000 <wm4.uio.h.23.aa0898d8f5bb12d9ecd480ebbdbd1a4d>:
   0:	01 00                	add    %eax,(%rax)
   2:	00 00                	add    %al,(%rax)
   4:	af                   	scas   %es:(%rdi),%eax
   5:	00 00                	add    %al,(%rax)
	...

Disassembly of section .group:

0000000000000000 <wm4.fuse.h.648.d1a0dec56f3a63aa3b479bd8a0294e25>:
   0:	01 00                	add    %eax,(%rax)
   2:	00 00                	add    %al,(%rax)
   4:	b1 00                	mov    $0x0,%cl
	...

Disassembly of section .group:

0000000000000000 <wm4.stdio.h.26.4719156f1aea2bb9662fd6c582dc9a4c>:
   0:	01 00                	add    %eax,(%rax)
   2:	00 00                	add    %al,(%rax)
   4:	b3 00                	mov    $0x0,%bl
	...

Disassembly of section .group:

0000000000000000 <wm4.stdio.h.36.2dd12c1fd035242ad5cfd0152a01be5a>:
   0:	01 00                	add    %eax,(%rax)
   2:	00 00                	add    %al,(%rax)
   4:	b5 00                	mov    $0x0,%ch
	...

Disassembly of section .group:

0000000000000000 <wm4._G_config.h.5.b0f37d9e474454cf6e459063458db32f>:
   0:	01 00                	add    %eax,(%rax)
   2:	00 00                	add    %al,(%rax)
   4:	b7 00                	mov    $0x0,%bh
	...

Disassembly of section .group:

0000000000000000 <wm4.wchar.h.80.eea3eba2d2a17aace9470a8e0d8218dc>:
   0:	01 00                	add    %eax,(%rax)
   2:	00 00                	add    %al,(%rax)
   4:	b9                   	.byte 0xb9
   5:	00 00                	add    %al,(%rax)
	...

Disassembly of section .group:

0000000000000000 <wm4._G_config.h.46.5187c97b14fd664662cb32e6b94fc49e>:
   0:	01 00                	add    %eax,(%rax)
   2:	00 00                	add    %al,(%rax)
   4:	bb                   	.byte 0xbb
   5:	00 00                	add    %al,(%rax)
	...

Disassembly of section .group:

0000000000000000 <wm4.libio.h.33.a775b9ecae273f33bc59931e9891e4ca>:
   0:	01 00                	add    %eax,(%rax)
   2:	00 00                	add    %al,(%rax)
   4:	bd                   	.byte 0xbd
   5:	00 00                	add    %al,(%rax)
	...

Disassembly of section .group:

0000000000000000 <wm4.stdarg.h.34.3a23a216c0c293b3d2ea2e89281481e6>:
   0:	01 00                	add    %eax,(%rax)
   2:	00 00                	add    %al,(%rax)
   4:	bf                   	.byte 0xbf
   5:	00 00                	add    %al,(%rax)
	...

Disassembly of section .group:

0000000000000000 <wm4.libio.h.51.dab170798ec1df48c625aea7c30e1b63>:
   0:	01 00                	add    %eax,(%rax)
   2:	00 00                	add    %al,(%rax)
   4:	c1 00 00             	roll   $0x0,(%rax)
	...

Disassembly of section .group:

0000000000000000 <wm4.stdio.h.80.17b7dd1ca72d8a61987532cb1d80194a>:
   0:	01 00                	add    %eax,(%rax)
   2:	00 00                	add    %al,(%rax)
   4:	c3                   	retq   
   5:	00 00                	add    %al,(%rax)
	...

Disassembly of section .group:

0000000000000000 <wm4.stdio_lim.h.23.557290a6cddeba0587f574f29e3a5fb9>:
   0:	01 00                	add    %eax,(%rax)
   2:	00 00                	add    %al,(%rax)
   4:	c5 00 00             	(bad)  
	...

Disassembly of section .group:

0000000000000000 <wm4.stdio.h.172.df21df34a7396d7da2e08f9b617d582f>:
   0:	01 00                	add    %eax,(%rax)
   2:	00 00                	add    %al,(%rax)
   4:	c7                   	.byte 0xc7
   5:	00 00                	add    %al,(%rax)
	...

Disassembly of section .group:

0000000000000000 <wm4.stdlib.h.27.59e2586c75bdbcb991b248ad7257b993>:
   0:	01 00                	add    %eax,(%rax)
   2:	00 00                	add    %al,(%rax)
   4:	c9                   	leaveq 
   5:	00 00                	add    %al,(%rax)
	...

Disassembly of section .group:

0000000000000000 <wm4.waitflags.h.25.e401b8bcfee800b540b27abd7cc78de9>:
   0:	01 00                	add    %eax,(%rax)
   2:	00 00                	add    %al,(%rax)
   4:	cb                   	lret   
   5:	00 00                	add    %al,(%rax)
	...

Disassembly of section .group:

0000000000000000 <wm4.waitstatus.h.28.75da223233ea088d05b70fad69e90c9e>:
   0:	01 00                	add    %eax,(%rax)
   2:	00 00                	add    %al,(%rax)
   4:	cd 00                	int    $0x0
	...

Disassembly of section .group:

0000000000000000 <wm4.stdlib.h.50.004511e3ec0e76322cbe36667c75a8b0>:
   0:	01 00                	add    %eax,(%rax)
   2:	00 00                	add    %al,(%rax)
   4:	cf                   	iret   
   5:	00 00                	add    %al,(%rax)
	...

Disassembly of section .group:

0000000000000000 <wm4.alloca.h.19.edefa922a76c1cbaaf1e416903ba2d1c>:
   0:	01 00                	add    %eax,(%rax)
   2:	00 00                	add    %al,(%rax)
   4:	d1 00                	roll   (%rax)
	...

Disassembly of section .group:

0000000000000000 <wm4.alloca.h.29.156e12058824cc23d961c4d3b13031f6>:
   0:	01 00                	add    %eax,(%rax)
   2:	00 00                	add    %al,(%rax)
   4:	d3 00                	roll   %cl,(%rax)
	...

Disassembly of section .group:

0000000000000000 <wm4.string.h.23.8394011d5995a16f15d67d04e84a1d69>:
   0:	01 00                	add    %eax,(%rax)
   2:	00 00                	add    %al,(%rax)
   4:	d5                   	(bad)  
   5:	00 00                	add    %al,(%rax)
	...

Disassembly of section .group:

0000000000000000 <wm4.errno.h.21.234adedf0a908ba1512bb39778d0c13a>:
   0:	01 00                	add    %eax,(%rax)
   2:	00 00                	add    %al,(%rax)
   4:	d7                   	xlat   %ds:(%rbx)
   5:	00 00                	add    %al,(%rax)
	...

Disassembly of section .group:

0000000000000000 <wm4.errnobase.h.2.3ec77d86fa6012e288bd2eb28191253f>:
   0:	01 00                	add    %eax,(%rax)
   2:	00 00                	add    %al,(%rax)
   4:	d9 00                	flds   (%rax)
	...

Disassembly of section .group:

0000000000000000 <wm4.errno.h.6.6707cf97e82b783d19d3d077217dd04e>:
   0:	01 00                	add    %eax,(%rax)
   2:	00 00                	add    %al,(%rax)
   4:	db 00                	fildl  (%rax)
	...

Disassembly of section .group:

0000000000000000 <wm4.errno.h.27.5f4b88dc9507696aecbaa61ffb4828e0>:
   0:	01 00                	add    %eax,(%rax)
   2:	00 00                	add    %al,(%rax)
   4:	dd 00                	fldl   (%rax)
	...

Disassembly of section .group:

0000000000000000 <wm4.sched.h.20.03e66e3b847677c1e781b90f4b73f77e>:
   0:	01 00                	add    %eax,(%rax)
   2:	00 00                	add    %al,(%rax)
   4:	df 00                	fild   (%rax)
	...

Disassembly of section .group:

0000000000000000 <wm4.sched.h.31.f838e85546a76474a8c4ae9ddad27ef3>:
   0:	01 00                	add    %eax,(%rax)
   2:	00 00                	add    %al,(%rax)
   4:	e1 00                	loope  6 <wm4.sched.h.31.f838e85546a76474a8c4ae9ddad27ef3+0x6>
	...

Disassembly of section .group:

0000000000000000 <wm4.sched.h.28.25eb17a9847efe42b26af9ba02dfcd4f>:
   0:	01 00                	add    %eax,(%rax)
   2:	00 00                	add    %al,(%rax)
   4:	e3 00                	jrcxz  6 <wm4.sched.h.28.25eb17a9847efe42b26af9ba02dfcd4f+0x6>
	...

Disassembly of section .group:

0000000000000000 <wm4.pthread.h.35.4f9cb94142f84ba1b6ddc012cb580952>:
   0:	01 00                	add    %eax,(%rax)
   2:	00 00                	add    %al,(%rax)
   4:	e5 00                	in     $0x0,%eax
	...

Disassembly of section .group:

0000000000000000 <wm4.disk.h.2.16acb1cb4ef7514f8c2125bbd4661cd9>:
   0:	01 00                	add    %eax,(%rax)
   2:	00 00                	add    %al,(%rax)
   4:	e7 00                	out    %eax,$0x0
	...

Disassembly of section .group:

0000000000000000 <wm4.assert.h.34.e765578288c49a7c6e3139df017146bb>:
   0:	01 00                	add    %eax,(%rax)
   2:	00 00                	add    %al,(%rax)
   4:	e9                   	.byte 0xe9
   5:	00 00                	add    %al,(%rax)
	...

Disassembly of section .group:

0000000000000000 <wm4.logging.h.6.190ba2b5112831a739c1e0d09c955f4a>:
   0:	01 00                	add    %eax,(%rax)
   2:	00 00                	add    %al,(%rax)
   4:	eb 00                	jmp    6 <wm4.logging.h.6.190ba2b5112831a739c1e0d09c955f4a+0x6>
	...

Disassembly of section .group:

0000000000000000 <wm4.common.h.20.f119bca5e899c66db5413221445cde8a>:
   0:	01 00                	add    %eax,(%rax)
   2:	00 00                	add    %al,(%rax)
   4:	ed                   	in     (%dx),%eax
   5:	00 00                	add    %al,(%rax)
	...

Disassembly of section .text:

0000000000000000 <p6fs_opt_proc>:
   0:	55                   	push   %rbp
   1:	48 89 e5             	mov    %rsp,%rbp
   4:	48 83 ec 20          	sub    $0x20,%rsp
   8:	48 89 7d f8          	mov    %rdi,-0x8(%rbp)
   c:	48 89 75 f0          	mov    %rsi,-0x10(%rbp)
  10:	89 55 ec             	mov    %edx,-0x14(%rbp)
  13:	48 89 4d e0          	mov    %rcx,-0x20(%rbp)
  17:	8b 45 ec             	mov    -0x14(%rbp),%eax
  1a:	83 f8 fe             	cmp    $0xfffffffe,%eax
  1d:	74 0c                	je     2b <p6fs_opt_proc+0x2b>
  1f:	83 f8 ff             	cmp    $0xffffffff,%eax
  22:	75 34                	jne    58 <p6fs_opt_proc+0x58>
  24:	b8 01 00 00 00       	mov    $0x1,%eax
  29:	eb 50                	jmp    7b <p6fs_opt_proc+0x7b>
  2b:	48 8b 05 00 00 00 00 	mov    0x0(%rip),%rax        # 32 <p6fs_opt_proc+0x32>
  32:	48 85 c0             	test   %rax,%rax
  35:	75 1a                	jne    51 <p6fs_opt_proc+0x51>
  37:	48 8b 45 f0          	mov    -0x10(%rbp),%rax
  3b:	48 89 c7             	mov    %rax,%rdi
  3e:	e8 00 00 00 00       	callq  43 <p6fs_opt_proc+0x43>
  43:	48 89 05 00 00 00 00 	mov    %rax,0x0(%rip)        # 4a <p6fs_opt_proc+0x4a>
  4a:	b8 00 00 00 00       	mov    $0x0,%eax
  4f:	eb 2a                	jmp    7b <p6fs_opt_proc+0x7b>
  51:	b8 01 00 00 00       	mov    $0x1,%eax
  56:	eb 23                	jmp    7b <p6fs_opt_proc+0x7b>
  58:	48 8b 05 00 00 00 00 	mov    0x0(%rip),%rax        # 5f <p6fs_opt_proc+0x5f>
  5f:	48 89 c1             	mov    %rax,%rcx
  62:	ba 0f 00 00 00       	mov    $0xf,%edx
  67:	be 01 00 00 00       	mov    $0x1,%esi
  6c:	bf 00 00 00 00       	mov    $0x0,%edi
  71:	e8 00 00 00 00       	callq  76 <p6fs_opt_proc+0x76>
  76:	e8 00 00 00 00       	callq  7b <p6fs_opt_proc+0x7b>
  7b:	c9                   	leaveq 
  7c:	c3                   	retq   

000000000000007d <main>:
  7d:	55                   	push   %rbp
  7e:	48 89 e5             	mov    %rsp,%rbp
  81:	48 83 ec 40          	sub    $0x40,%rsp
  85:	89 7d cc             	mov    %edi,-0x34(%rbp)
  88:	48 89 75 c0          	mov    %rsi,-0x40(%rbp)
  8c:	64 48 8b 04 25 28 00 	mov    %fs:0x28,%rax
  93:	00 00 
  95:	48 89 45 f8          	mov    %rax,-0x8(%rbp)
  99:	31 c0                	xor    %eax,%eax
  9b:	8b 45 cc             	mov    -0x34(%rbp),%eax
  9e:	89 45 e0             	mov    %eax,-0x20(%rbp)
  a1:	48 8b 45 c0          	mov    -0x40(%rbp),%rax
  a5:	48 89 45 e8          	mov    %rax,-0x18(%rbp)
  a9:	c7 45 f0 00 00 00 00 	movl   $0x0,-0x10(%rbp)
  b0:	48 c7 05 00 00 00 00 	movq   $0x0,0x0(%rip)        # bb <main+0x3e>
  b7:	00 00 00 00 
  bb:	48 c7 05 00 00 00 00 	movq   $0x0,0x0(%rip)        # c6 <main+0x49>
  c2:	00 00 00 00 
  c6:	48 8d 45 e0          	lea    -0x20(%rbp),%rax
  ca:	b9 00 00 00 00       	mov    $0x0,%ecx
  cf:	ba 00 00 00 00       	mov    $0x0,%edx
  d4:	be 00 00 00 00       	mov    $0x0,%esi
  d9:	48 89 c7             	mov    %rax,%rdi
  dc:	e8 00 00 00 00       	callq  e1 <main+0x64>
  e1:	83 f8 ff             	cmp    $0xffffffff,%eax
  e4:	75 0a                	jne    f0 <main+0x73>
  e6:	b8 01 00 00 00       	mov    $0x1,%eax
  eb:	e9 19 01 00 00       	jmpq   209 <main+0x18c>
  f0:	48 8b 05 00 00 00 00 	mov    0x0(%rip),%rax        # f7 <main+0x7a>
  f7:	48 85 c0             	test   %rax,%rax
  fa:	75 2a                	jne    126 <main+0xa9>
  fc:	48 8b 45 c0          	mov    -0x40(%rbp),%rax
 100:	48 8b 10             	mov    (%rax),%rdx
 103:	48 8b 05 00 00 00 00 	mov    0x0(%rip),%rax        # 10a <main+0x8d>
 10a:	be 00 00 00 00       	mov    $0x0,%esi
 10f:	48 89 c7             	mov    %rax,%rdi
 112:	b8 00 00 00 00       	mov    $0x0,%eax
 117:	e8 00 00 00 00       	callq  11c <main+0x9f>
 11c:	bf 01 00 00 00       	mov    $0x1,%edi
 121:	e8 00 00 00 00       	callq  126 <main+0xa9>
 126:	48 8b 05 00 00 00 00 	mov    0x0(%rip),%rax        # 12d <main+0xb0>
 12d:	48 89 c7             	mov    %rax,%rdi
 130:	e8 00 00 00 00       	callq  135 <main+0xb8>
 135:	85 c0                	test   %eax,%eax
 137:	79 46                	jns    17f <main+0x102>
 139:	48 8b 05 00 00 00 00 	mov    0x0(%rip),%rax        # 140 <main+0xc3>
 140:	48 89 c1             	mov    %rax,%rcx
 143:	ba 1d 00 00 00       	mov    $0x1d,%edx
 148:	be 01 00 00 00       	mov    $0x1,%esi
 14d:	bf 00 00 00 00       	mov    $0x0,%edi
 152:	e8 00 00 00 00       	callq  157 <main+0xda>
 157:	48 8b 05 00 00 00 00 	mov    0x0(%rip),%rax        # 15e <main+0xe1>
 15e:	48 89 c1             	mov    %rax,%rcx
 161:	ba 4b 00 00 00       	mov    $0x4b,%edx
 166:	be 01 00 00 00       	mov    $0x1,%esi
 16b:	bf 00 00 00 00       	mov    $0x0,%edi
 170:	e8 00 00 00 00       	callq  175 <main+0xf8>
 175:	b8 01 00 00 00       	mov    $0x1,%eax
 17a:	e9 8a 00 00 00       	jmpq   209 <main+0x18c>
 17f:	48 8b 05 00 00 00 00 	mov    0x0(%rip),%rax        # 186 <main+0x109>
 186:	48 89 c7             	mov    %rax,%rdi
 189:	e8 00 00 00 00       	callq  18e <main+0x111>
 18e:	85 c0                	test   %eax,%eax
 190:	79 38                	jns    1ca <main+0x14d>
 192:	e8 00 00 00 00       	callq  197 <main+0x11a>
 197:	8b 00                	mov    (%rax),%eax
 199:	89 c7                	mov    %eax,%edi
 19b:	e8 00 00 00 00       	callq  1a0 <main+0x123>
 1a0:	48 89 c1             	mov    %rax,%rcx
 1a3:	48 8b 15 00 00 00 00 	mov    0x0(%rip),%rdx        # 1aa <main+0x12d>
 1aa:	48 8b 05 00 00 00 00 	mov    0x0(%rip),%rax        # 1b1 <main+0x134>
 1b1:	be 00 00 00 00       	mov    $0x0,%esi
 1b6:	48 89 c7             	mov    %rax,%rdi
 1b9:	b8 00 00 00 00       	mov    $0x0,%eax
 1be:	e8 00 00 00 00       	callq  1c3 <main+0x146>
 1c3:	b8 01 00 00 00       	mov    $0x1,%eax
 1c8:	eb 3f                	jmp    209 <main+0x18c>
 1ca:	48 8b 75 e8          	mov    -0x18(%rbp),%rsi
 1ce:	8b 45 e0             	mov    -0x20(%rbp),%eax
 1d1:	41 b8 00 00 00 00    	mov    $0x0,%r8d
 1d7:	b9 68 01 00 00       	mov    $0x168,%ecx
 1dc:	ba 00 00 00 00       	mov    $0x0,%edx
 1e1:	89 c7                	mov    %eax,%edi
 1e3:	e8 00 00 00 00       	callq  1e8 <main+0x16b>
 1e8:	89 45 dc             	mov    %eax,-0x24(%rbp)
 1eb:	48 8d 45 e0          	lea    -0x20(%rbp),%rax
 1ef:	48 89 c7             	mov    %rax,%rdi
 1f2:	e8 00 00 00 00       	callq  1f7 <main+0x17a>
 1f7:	48 8b 05 00 00 00 00 	mov    0x0(%rip),%rax        # 1fe <main+0x181>
 1fe:	48 89 c7             	mov    %rax,%rdi
 201:	e8 00 00 00 00       	callq  206 <main+0x189>
 206:	8b 45 dc             	mov    -0x24(%rbp),%eax
 209:	48 8b 4d f8          	mov    -0x8(%rbp),%rcx
 20d:	64 48 33 0c 25 28 00 	xor    %fs:0x28,%rcx
 214:	00 00 
 216:	74 05                	je     21d <main+0x1a0>
 218:	e8 00 00 00 00       	callq  21d <main+0x1a0>
 21d:	c9                   	leaveq 
 21e:	c3                   	retq   
