
process1:     file format elf32-tradlittlemips

Disassembly of section .text:

a0820000 <SunQuan>:
a0820000:	3c06a082 	lui	a2,0xa082
a0820004:	27bdffd0 	addiu	sp,sp,-48
a0820008:	24c60e18 	addiu	a2,a2,3608
a082000c:	24050001 	li	a1,1
a0820010:	24040001 	li	a0,1
a0820014:	afbf002c 	sw	ra,44(sp)
a0820018:	afb40028 	sw	s4,40(sp)
a082001c:	afb30024 	sw	s3,36(sp)
a0820020:	afb20020 	sw	s2,32(sp)
a0820024:	afb1001c 	sw	s1,28(sp)
a0820028:	0c2082ed 	jal	a0820bb4 <printf>
a082002c:	afb00018 	sw	s0,24(sp)
a0820030:	3c04a082 	lui	a0,0xa082
a0820034:	0c208088 	jal	a0820220 <mbox_open>
a0820038:	24840e30 	addiu	a0,a0,3632
a082003c:	0c208052 	jal	a0820148 <getpid>
a0820040:	00408021 	move	s0,v0
a0820044:	3c06a082 	lui	a2,0xa082
a0820048:	24c60e44 	addiu	a2,a2,3652
a082004c:	24040001 	li	a0,1
a0820050:	24050001 	li	a1,1
a0820054:	0c2082ed 	jal	a0820bb4 <printf>
a0820058:	afa20010 	sw	v0,16(sp)
a082005c:	3c06a082 	lui	a2,0xa082
a0820060:	24c60e64 	addiu	a2,a2,3684
a0820064:	24040002 	li	a0,2
a0820068:	0c2082ed 	jal	a0820bb4 <printf>
a082006c:	24050001 	li	a1,1
a0820070:	02002021 	move	a0,s0
a0820074:	27a50010 	addiu	a1,sp,16
a0820078:	0c208092 	jal	a0820248 <mbox_send>
a082007c:	24060004 	li	a2,4
a0820080:	02002021 	move	a0,s0
a0820084:	27a50010 	addiu	a1,sp,16
a0820088:	0c208092 	jal	a0820248 <mbox_send>
a082008c:	24060004 	li	a2,4
a0820090:	3c04a082 	lui	a0,0xa082
a0820094:	0c208088 	jal	a0820220 <mbox_open>
a0820098:	24840e84 	addiu	a0,a0,3716
a082009c:	00408821 	move	s1,v0
a08200a0:	3c14a082 	lui	s4,0xa082
a08200a4:	3c13a082 	lui	s3,0xa082
a08200a8:	3c12a082 	lui	s2,0xa082
a08200ac:	02202021 	move	a0,s1
a08200b0:	27a50014 	addiu	a1,sp,20
a08200b4:	0c208098 	jal	a0820260 <mbox_recv>
a08200b8:	24060004 	li	a2,4
a08200bc:	8fa70010 	lw	a3,16(sp)
a08200c0:	26860e98 	addiu	a2,s4,3736
a08200c4:	24050001 	li	a1,1
a08200c8:	0c2082ed 	jal	a0820bb4 <printf>
a08200cc:	24040001 	li	a0,1
a08200d0:	0c208083 	jal	a082020c <wait>
a08200d4:	8fa40014 	lw	a0,20(sp)
a08200d8:	8fa70010 	lw	a3,16(sp)
a08200dc:	26660ecc 	addiu	a2,s3,3788
a08200e0:	24050001 	li	a1,1
a08200e4:	0c2082ed 	jal	a0820bb4 <printf>
a08200e8:	24040001 	li	a0,1
a08200ec:	0c208057 	jal	a082015c <sleep>
a08200f0:	240403e8 	li	a0,1000
a08200f4:	0c208079 	jal	a08201e4 <spawn>
a08200f8:	26440efc 	addiu	a0,s2,3836
a08200fc:	02002021 	move	a0,s0
a0820100:	27a50010 	addiu	a1,sp,16
a0820104:	0c208092 	jal	a0820248 <mbox_send>
a0820108:	24060004 	li	a2,4
a082010c:	0820802c 	j	a08200b0 <SunQuan+0xb0>
a0820110:	02202021 	move	a0,s1
	...

a0820120 <yield>:
a0820120:	00002021 	move	a0,zero
a0820124:	00002821 	move	a1,zero
a0820128:	00003021 	move	a2,zero
a082012c:	082080a4 	j	a0820290 <invoke_syscall>
a0820130:	00003821 	move	a3,zero

a0820134 <exit>:
a0820134:	24040001 	li	a0,1
a0820138:	00002821 	move	a1,zero
a082013c:	00003021 	move	a2,zero
a0820140:	082080a4 	j	a0820290 <invoke_syscall>
a0820144:	00003821 	move	a3,zero

a0820148 <getpid>:
a0820148:	24040002 	li	a0,2
a082014c:	00002821 	move	a1,zero
a0820150:	00003021 	move	a2,zero
a0820154:	082080a4 	j	a0820290 <invoke_syscall>
a0820158:	00003821 	move	a3,zero

a082015c <sleep>:
a082015c:	00802821 	move	a1,a0
a0820160:	00003021 	move	a2,zero
a0820164:	24040005 	li	a0,5
a0820168:	082080a4 	j	a0820290 <invoke_syscall>
a082016c:	00003821 	move	a3,zero

a0820170 <shutdown>:
a0820170:	24040006 	li	a0,6
a0820174:	00002821 	move	a1,zero
a0820178:	00003021 	move	a2,zero
a082017c:	082080a4 	j	a0820290 <invoke_syscall>
a0820180:	00003821 	move	a3,zero

a0820184 <write_serial>:
a0820184:	00042600 	sll	a0,a0,0x18
a0820188:	00042603 	sra	a0,a0,0x18
a082018c:	00802821 	move	a1,a0
a0820190:	00003021 	move	a2,zero
a0820194:	24040007 	li	a0,7
a0820198:	082080a4 	j	a0820290 <invoke_syscall>
a082019c:	00003821 	move	a3,zero

a08201a0 <getpriority>:
a08201a0:	24040003 	li	a0,3
a08201a4:	00002821 	move	a1,zero
a08201a8:	00003021 	move	a2,zero
a08201ac:	082080a4 	j	a0820290 <invoke_syscall>
a08201b0:	00003821 	move	a3,zero

a08201b4 <setpriority>:
a08201b4:	00802821 	move	a1,a0
a08201b8:	00003021 	move	a2,zero
a08201bc:	24040004 	li	a0,4
a08201c0:	082080a4 	j	a0820290 <invoke_syscall>
a08201c4:	00003821 	move	a3,zero

a08201c8 <print_char>:
a08201c8:	00a01021 	move	v0,a1
a08201cc:	00063e00 	sll	a3,a2,0x18
a08201d0:	00802821 	move	a1,a0
a08201d4:	00073e03 	sra	a3,a3,0x18
a08201d8:	00403021 	move	a2,v0
a08201dc:	082080a4 	j	a0820290 <invoke_syscall>
a08201e0:	24040008 	li	a0,8

a08201e4 <spawn>:
a08201e4:	00802821 	move	a1,a0
a08201e8:	00003021 	move	a2,zero
a08201ec:	24040009 	li	a0,9
a08201f0:	082080a4 	j	a0820290 <invoke_syscall>
a08201f4:	00003821 	move	a3,zero

a08201f8 <kill>:
a08201f8:	00802821 	move	a1,a0
a08201fc:	00003021 	move	a2,zero
a0820200:	2404000a 	li	a0,10
a0820204:	082080a4 	j	a0820290 <invoke_syscall>
a0820208:	00003821 	move	a3,zero

a082020c <wait>:
a082020c:	00802821 	move	a1,a0
a0820210:	00003021 	move	a2,zero
a0820214:	2404000b 	li	a0,11
a0820218:	082080a4 	j	a0820290 <invoke_syscall>
a082021c:	00003821 	move	a3,zero

a0820220 <mbox_open>:
a0820220:	00802821 	move	a1,a0
a0820224:	00003021 	move	a2,zero
a0820228:	2404000c 	li	a0,12
a082022c:	082080a4 	j	a0820290 <invoke_syscall>
a0820230:	00003821 	move	a3,zero

a0820234 <mbox_close>:
a0820234:	00802821 	move	a1,a0
a0820238:	00003021 	move	a2,zero
a082023c:	2404000d 	li	a0,13
a0820240:	082080a4 	j	a0820290 <invoke_syscall>
a0820244:	00003821 	move	a3,zero

a0820248 <mbox_send>:
a0820248:	00a01021 	move	v0,a1
a082024c:	00c03821 	move	a3,a2
a0820250:	00802821 	move	a1,a0
a0820254:	00403021 	move	a2,v0
a0820258:	082080a4 	j	a0820290 <invoke_syscall>
a082025c:	2404000e 	li	a0,14

a0820260 <mbox_recv>:
a0820260:	00a01021 	move	v0,a1
a0820264:	00c03821 	move	a3,a2
a0820268:	00802821 	move	a1,a0
a082026c:	00403021 	move	a2,v0
a0820270:	082080a4 	j	a0820290 <invoke_syscall>
a0820274:	2404000f 	li	a0,15

a0820278 <timer>:
a0820278:	24040010 	li	a0,16
a082027c:	00002821 	move	a1,zero
a0820280:	00003021 	move	a2,zero
a0820284:	082080a4 	j	a0820290 <invoke_syscall>
a0820288:	00003821 	move	a3,zero
a082028c:	00000000 	nop

a0820290 <invoke_syscall>:
a0820290:	afa50000 	sw	a1,0(sp)
a0820294:	afa60004 	sw	a2,4(sp)
a0820298:	afa70008 	sw	a3,8(sp)
a082029c:	00801020 	add	v0,a0,zero
a08202a0:	00a02020 	add	a0,a1,zero
a08202a4:	00c02820 	add	a1,a2,zero
a08202a8:	00e03020 	add	a2,a3,zero
a08202ac:	0000000c 	syscall
a08202b0:	03e00008 	jr	ra
a08202b4:	00000000 	nop
	...

a08202c0 <printstr>:
a08202c0:	90850000 	lbu	a1,0(a0)
a08202c4:	3c02bfe4 	lui	v0,0xbfe4
a08202c8:	10a0000b 	beqz	a1,a08202f8 <printstr+0x38>
a08202cc:	34428000 	ori	v0,v0,0x8000
a08202d0:	2406ffff 	li	a2,-1
a08202d4:	2403270f 	li	v1,9999
a08202d8:	2463fffc 	addiu	v1,v1,-4
a08202dc:	5466ffff 	bnel	v1,a2,a08202dc <printstr+0x1c>
a08202e0:	2463fffc 	addiu	v1,v1,-4
a08202e4:	a0450000 	sb	a1,0(v0)
a08202e8:	24840001 	addiu	a0,a0,1
a08202ec:	90850000 	lbu	a1,0(a0)
a08202f0:	54a0fff9 	bnezl	a1,a08202d8 <printstr+0x18>
a08202f4:	2403270f 	li	v1,9999
a08202f8:	03e00008 	jr	ra
a08202fc:	00000000 	nop

a0820300 <print_color>:
a0820300:	27bdffe8 	addiu	sp,sp,-24
a0820304:	afb00010 	sw	s0,16(sp)
a0820308:	00808021 	move	s0,a0
a082030c:	afbf0014 	sw	ra,20(sp)
a0820310:	0c2080b0 	jal	a08202c0 <printstr>
a0820314:	00a02021 	move	a0,a1
a0820318:	0c2080b0 	jal	a08202c0 <printstr>
a082031c:	02002021 	move	a0,s0
a0820320:	3c04a082 	lui	a0,0xa082
a0820324:	8fbf0014 	lw	ra,20(sp)
a0820328:	8fb00010 	lw	s0,16(sp)
a082032c:	24840f04 	addiu	a0,a0,3844
a0820330:	082080b0 	j	a08202c0 <printstr>
a0820334:	27bd0018 	addiu	sp,sp,24

a0820338 <delays>:
a0820338:	24050005 	li	a1,5
a082033c:	24040004 	li	a0,4
a0820340:	24030074 	li	v1,116
a0820344:	240200d6 	li	v0,214
a0820348:	2442ffff 	addiu	v0,v0,-1
a082034c:	304200ff 	andi	v0,v0,0xff
a0820350:	1440fffe 	bnez	v0,a082034c <delays+0x14>
a0820354:	2442ffff 	addiu	v0,v0,-1
a0820358:	2462ffff 	addiu	v0,v1,-1
a082035c:	304300ff 	andi	v1,v0,0xff
a0820360:	1460fff9 	bnez	v1,a0820348 <delays+0x10>
a0820364:	240200d6 	li	v0,214
a0820368:	2482ffff 	addiu	v0,a0,-1
a082036c:	304400ff 	andi	a0,v0,0xff
a0820370:	5480fff4 	bnezl	a0,a0820344 <delays+0xc>
a0820374:	24030074 	li	v1,116
a0820378:	24a2ffff 	addiu	v0,a1,-1
a082037c:	304500ff 	andi	a1,v0,0xff
a0820380:	54a0ffef 	bnezl	a1,a0820340 <delays+0x8>
a0820384:	24040004 	li	a0,4
a0820388:	03e00008 	jr	ra
a082038c:	00000000 	nop

a0820390 <strlen>:
a0820390:	80820000 	lb	v0,0(a0)
a0820394:	082080e9 	j	a08203a4 <strlen+0x14>
a0820398:	00001821 	move	v1,zero
a082039c:	80820000 	lb	v0,0(a0)
a08203a0:	24630001 	addiu	v1,v1,1
a08203a4:	5440fffd 	bnezl	v0,a082039c <strlen+0xc>
a08203a8:	24840001 	addiu	a0,a0,1
a08203ac:	03e00008 	jr	ra
a08203b0:	00601021 	move	v0,v1

a08203b4 <print_str>:
a08203b4:	27bdffd8 	addiu	sp,sp,-40
a08203b8:	afb40020 	sw	s4,32(sp)
a08203bc:	0080a021 	move	s4,a0
a08203c0:	00c02021 	move	a0,a2
a08203c4:	afb3001c 	sw	s3,28(sp)
a08203c8:	afb20018 	sw	s2,24(sp)
a08203cc:	afb10014 	sw	s1,20(sp)
a08203d0:	afb00010 	sw	s0,16(sp)
a08203d4:	afbf0024 	sw	ra,36(sp)
a08203d8:	00c09821 	move	s3,a2
a08203dc:	0c2080e4 	jal	a0820390 <strlen>
a08203e0:	00a09021 	move	s2,a1
a08203e4:	00408821 	move	s1,v0
a08203e8:	1840000a 	blez	v0,a0820414 <print_str+0x60>
a08203ec:	00008021 	move	s0,zero
a08203f0:	02701021 	addu	v0,s3,s0
a08203f4:	80460000 	lb	a2,0(v0)
a08203f8:	02502821 	addu	a1,s2,s0
a08203fc:	02802021 	move	a0,s4
a0820400:	0c208072 	jal	a08201c8 <print_char>
a0820404:	26100001 	addiu	s0,s0,1
a0820408:	0211182a 	slt	v1,s0,s1
a082040c:	1460fff9 	bnez	v1,a08203f4 <print_str+0x40>
a0820410:	02701021 	addu	v0,s3,s0
a0820414:	8fbf0024 	lw	ra,36(sp)
a0820418:	8fb40020 	lw	s4,32(sp)
a082041c:	8fb3001c 	lw	s3,28(sp)
a0820420:	8fb20018 	lw	s2,24(sp)
a0820424:	8fb10014 	lw	s1,20(sp)
a0820428:	8fb00010 	lw	s0,16(sp)
a082042c:	03e00008 	jr	ra
a0820430:	27bd0028 	addiu	sp,sp,40

a0820434 <atoi>:
a0820434:	90850000 	lbu	a1,0(a0)
a0820438:	00803021 	move	a2,a0
a082043c:	24a2ffd0 	addiu	v0,a1,-48
a0820440:	304200ff 	andi	v0,v0,0xff
a0820444:	2c42000a 	sltiu	v0,v0,10
a0820448:	1040000e 	beqz	v0,a0820484 <atoi+0x50>
a082044c:	00003821 	move	a3,zero
a0820450:	24c60001 	addiu	a2,a2,1
a0820454:	00051600 	sll	v0,a1,0x18
a0820458:	90c50000 	lbu	a1,0(a2)
a082045c:	00071880 	sll	v1,a3,0x2
a0820460:	00671821 	addu	v1,v1,a3
a0820464:	24a4ffd0 	addiu	a0,a1,-48
a0820468:	00021603 	sra	v0,v0,0x18
a082046c:	00031840 	sll	v1,v1,0x1
a0820470:	308400ff 	andi	a0,a0,0xff
a0820474:	00621821 	addu	v1,v1,v0
a0820478:	2c84000a 	sltiu	a0,a0,10
a082047c:	1480fff4 	bnez	a0,a0820450 <atoi+0x1c>
a0820480:	2467ffd0 	addiu	a3,v1,-48
a0820484:	03e00008 	jr	ra
a0820488:	00e01021 	move	v0,a3

a082048c <reverse>:
a082048c:	27bdffe8 	addiu	sp,sp,-24
a0820490:	afb00010 	sw	s0,16(sp)
a0820494:	afbf0014 	sw	ra,20(sp)
a0820498:	0c2080e4 	jal	a0820390 <strlen>
a082049c:	00808021 	move	s0,a0
a08204a0:	2447ffff 	addiu	a3,v0,-1
a08204a4:	18e0000b 	blez	a3,a08204d4 <reverse+0x48>
a08204a8:	00004021 	move	t0,zero
a08204ac:	02082021 	addu	a0,s0,t0
a08204b0:	02072821 	addu	a1,s0,a3
a08204b4:	80860000 	lb	a2,0(a0)
a08204b8:	90a30000 	lbu	v1,0(a1)
a08204bc:	25080001 	addiu	t0,t0,1
a08204c0:	24e7ffff 	addiu	a3,a3,-1
a08204c4:	0107102a 	slt	v0,t0,a3
a08204c8:	a0830000 	sb	v1,0(a0)
a08204cc:	1440fff7 	bnez	v0,a08204ac <reverse+0x20>
a08204d0:	a0a60000 	sb	a2,0(a1)
a08204d4:	8fbf0014 	lw	ra,20(sp)
a08204d8:	8fb00010 	lw	s0,16(sp)
a08204dc:	03e00008 	jr	ra
a08204e0:	27bd0018 	addiu	sp,sp,24

a08204e4 <itohex>:
a08204e4:	08208140 	j	a0820500 <itohex+0x1c>
a08204e8:	00003021 	move	a2,zero
a08204ec:	00041102 	srl	v0,a0,0x4
a08204f0:	24c60001 	addiu	a2,a2,1
a08204f4:	a0e90000 	sb	t1,0(a3)
a08204f8:	1040000c 	beqz	v0,a082052c <itohex+0x48>
a08204fc:	00402021 	move	a0,v0
a0820500:	3082000f 	andi	v0,a0,0xf
a0820504:	24490030 	addiu	t1,v0,48
a0820508:	24480057 	addiu	t0,v0,87
a082050c:	2842000a 	slti	v0,v0,10
a0820510:	1440fff6 	bnez	v0,a08204ec <itohex+0x8>
a0820514:	00c53821 	addu	a3,a2,a1
a0820518:	00041102 	srl	v0,a0,0x4
a082051c:	24c60001 	addiu	a2,a2,1
a0820520:	a0e80000 	sb	t0,0(a3)
a0820524:	1440fff6 	bnez	v0,a0820500 <itohex+0x1c>
a0820528:	00402021 	move	a0,v0
a082052c:	00c51021 	addu	v0,a2,a1
a0820530:	a0400000 	sb	zero,0(v0)
a0820534:	08208123 	j	a082048c <reverse>
a0820538:	00a02021 	move	a0,a1

a082053c <print_hex>:
a082053c:	27bdffc8 	addiu	sp,sp,-56
a0820540:	00c02021 	move	a0,a2
a0820544:	afb40030 	sw	s4,48(sp)
a0820548:	00a0a021 	move	s4,a1
a082054c:	27a50010 	addiu	a1,sp,16
a0820550:	afbf0034 	sw	ra,52(sp)
a0820554:	afb3002c 	sw	s3,44(sp)
a0820558:	afb10024 	sw	s1,36(sp)
a082055c:	afb00020 	sw	s0,32(sp)
a0820560:	0c208139 	jal	a08204e4 <itohex>
a0820564:	afb20028 	sw	s2,40(sp)
a0820568:	0c2080e4 	jal	a0820390 <strlen>
a082056c:	27a40010 	addiu	a0,sp,16
a0820570:	00408821 	move	s1,v0
a0820574:	00008021 	move	s0,zero
a0820578:	1840000b 	blez	v0,a08205a8 <print_hex+0x6c>
a082057c:	3c13a082 	lui	s3,0xa082
a0820580:	27b20010 	addiu	s2,sp,16
a0820584:	02501021 	addu	v0,s2,s0
a0820588:	80460000 	lb	a2,0(v0)
a082058c:	8e640f90 	lw	a0,3984(s3)
a0820590:	02902821 	addu	a1,s4,s0
a0820594:	0c208072 	jal	a08201c8 <print_char>
a0820598:	26100001 	addiu	s0,s0,1
a082059c:	0211182a 	slt	v1,s0,s1
a08205a0:	1460fff9 	bnez	v1,a0820588 <print_hex+0x4c>
a08205a4:	02501021 	addu	v0,s2,s0
a08205a8:	8e620f90 	lw	v0,3984(s3)
a08205ac:	8fbf0034 	lw	ra,52(sp)
a08205b0:	8fb40030 	lw	s4,48(sp)
a08205b4:	24420001 	addiu	v0,v0,1
a08205b8:	ae620f90 	sw	v0,3984(s3)
a08205bc:	8fb20028 	lw	s2,40(sp)
a08205c0:	8fb3002c 	lw	s3,44(sp)
a08205c4:	8fb10024 	lw	s1,36(sp)
a08205c8:	8fb00020 	lw	s0,32(sp)
a08205cc:	03e00008 	jr	ra
a08205d0:	27bd0038 	addiu	sp,sp,56

a08205d4 <itoa>:
a08205d4:	3c02cccc 	lui	v0,0xcccc
a08205d8:	00803021 	move	a2,a0
a08205dc:	3448cccd 	ori	t0,v0,0xcccd
a08205e0:	00003821 	move	a3,zero
a08205e4:	00c80019 	multu	a2,t0
a08205e8:	00e52021 	addu	a0,a3,a1
a08205ec:	24e70001 	addiu	a3,a3,1
a08205f0:	00001010 	mfhi	v0
a08205f4:	000210c2 	srl	v0,v0,0x3
a08205f8:	00021880 	sll	v1,v0,0x2
a08205fc:	00621821 	addu	v1,v1,v0
a0820600:	00031840 	sll	v1,v1,0x1
a0820604:	00c31823 	subu	v1,a2,v1
a0820608:	24630030 	addiu	v1,v1,48
a082060c:	a0830000 	sb	v1,0(a0)
a0820610:	1440fff4 	bnez	v0,a08205e4 <itoa+0x10>
a0820614:	00403021 	move	a2,v0
a0820618:	00e51021 	addu	v0,a3,a1
a082061c:	a0400000 	sb	zero,0(v0)
a0820620:	08208123 	j	a082048c <reverse>
a0820624:	00a02021 	move	a0,a1

a0820628 <print_int>:
a0820628:	27bdffc8 	addiu	sp,sp,-56
a082062c:	afb00020 	sw	s0,32(sp)
a0820630:	000687c2 	srl	s0,a2,0x1f
a0820634:	afb3002c 	sw	s3,44(sp)
a0820638:	afb10024 	sw	s1,36(sp)
a082063c:	afbf0034 	sw	ra,52(sp)
a0820640:	afb40030 	sw	s4,48(sp)
a0820644:	afb20028 	sw	s2,40(sp)
a0820648:	00809821 	move	s3,a0
a082064c:	12000002 	beqz	s0,a0820658 <print_int+0x30>
a0820650:	00a08821 	move	s1,a1
a0820654:	00063023 	negu	a2,a2
a0820658:	00c02021 	move	a0,a2
a082065c:	0c208175 	jal	a08205d4 <itoa>
a0820660:	27a50010 	addiu	a1,sp,16
a0820664:	0c2080e4 	jal	a0820390 <strlen>
a0820668:	27a40010 	addiu	a0,sp,16
a082066c:	16000019 	bnez	s0,a08206d4 <print_int+0xac>
a0820670:	00409021 	move	s2,v0
a0820674:	00008021 	move	s0,zero
a0820678:	1a40000b 	blez	s2,a08206a8 <print_int+0x80>
a082067c:	3c14a082 	lui	s4,0xa082
a0820680:	27b30010 	addiu	s3,sp,16
a0820684:	02701021 	addu	v0,s3,s0
a0820688:	80460000 	lb	a2,0(v0)
a082068c:	8e840f90 	lw	a0,3984(s4)
a0820690:	02202821 	move	a1,s1
a0820694:	0c208072 	jal	a08201c8 <print_char>
a0820698:	26100001 	addiu	s0,s0,1
a082069c:	0212182a 	slt	v1,s0,s2
a08206a0:	1460fff8 	bnez	v1,a0820684 <print_int+0x5c>
a08206a4:	26310001 	addiu	s1,s1,1
a08206a8:	8e820f90 	lw	v0,3984(s4)
a08206ac:	8fbf0034 	lw	ra,52(sp)
a08206b0:	8fb3002c 	lw	s3,44(sp)
a08206b4:	24420001 	addiu	v0,v0,1
a08206b8:	ae820f90 	sw	v0,3984(s4)
a08206bc:	8fb20028 	lw	s2,40(sp)
a08206c0:	8fb40030 	lw	s4,48(sp)
a08206c4:	8fb10024 	lw	s1,36(sp)
a08206c8:	8fb00020 	lw	s0,32(sp)
a08206cc:	03e00008 	jr	ra
a08206d0:	27bd0038 	addiu	sp,sp,56
a08206d4:	02202821 	move	a1,s1
a08206d8:	02602021 	move	a0,s3
a08206dc:	2406002d 	li	a2,45
a08206e0:	0c208072 	jal	a08201c8 <print_char>
a08206e4:	26310001 	addiu	s1,s1,1
a08206e8:	0820819e 	j	a0820678 <print_int+0x50>
a08206ec:	00008021 	move	s0,zero

a08206f0 <print_location>:
a08206f0:	27bdffa0 	addiu	sp,sp,-96
a08206f4:	afb00050 	sw	s0,80(sp)
a08206f8:	00808021 	move	s0,a0
a08206fc:	3c04a082 	lui	a0,0xa082
a0820700:	24840f0c 	addiu	a0,a0,3852
a0820704:	afbf0058 	sw	ra,88(sp)
a0820708:	afb10054 	sw	s1,84(sp)
a082070c:	0c2080b0 	jal	a08202c0 <printstr>
a0820710:	00a08821 	move	s1,a1
a0820714:	27a50010 	addiu	a1,sp,16
a0820718:	0c208175 	jal	a08205d4 <itoa>
a082071c:	02002021 	move	a0,s0
a0820720:	0c2080b0 	jal	a08202c0 <printstr>
a0820724:	27a40010 	addiu	a0,sp,16
a0820728:	3c04a082 	lui	a0,0xa082
a082072c:	27b00030 	addiu	s0,sp,48
a0820730:	0c2080b0 	jal	a08202c0 <printstr>
a0820734:	24840f10 	addiu	a0,a0,3856
a0820738:	02002821 	move	a1,s0
a082073c:	0c208175 	jal	a08205d4 <itoa>
a0820740:	02202021 	move	a0,s1
a0820744:	0c2080b0 	jal	a08202c0 <printstr>
a0820748:	02002021 	move	a0,s0
a082074c:	3c04a082 	lui	a0,0xa082
a0820750:	0c2080b0 	jal	a08202c0 <printstr>
a0820754:	24840f14 	addiu	a0,a0,3860
a0820758:	8fbf0058 	lw	ra,88(sp)
a082075c:	8fb10054 	lw	s1,84(sp)
a0820760:	8fb00050 	lw	s0,80(sp)
a0820764:	03e00008 	jr	ra
a0820768:	27bd0060 	addiu	sp,sp,96

a082076c <clear_screen>:
a082076c:	27bdffe0 	addiu	sp,sp,-32
a0820770:	00a7102a 	slt	v0,a1,a3
a0820774:	afb20018 	sw	s2,24(sp)
a0820778:	afb00010 	sw	s0,16(sp)
a082077c:	afbf001c 	sw	ra,28(sp)
a0820780:	afb10014 	sw	s1,20(sp)
a0820784:	00e09021 	move	s2,a3
a0820788:	1040000b 	beqz	v0,a08207b8 <clear_screen+0x4c>
a082078c:	00a08021 	move	s0,a1
a0820790:	3c11a082 	lui	s1,0xa082
a0820794:	02002021 	move	a0,s0
a0820798:	0c2081bc 	jal	a08206f0 <print_location>
a082079c:	00002821 	move	a1,zero
a08207a0:	26100001 	addiu	s0,s0,1
a08207a4:	0c2080b0 	jal	a08202c0 <printstr>
a08207a8:	26240f18 	addiu	a0,s1,3864
a08207ac:	0212102a 	slt	v0,s0,s2
a08207b0:	5440fff9 	bnezl	v0,a0820798 <clear_screen+0x2c>
a08207b4:	02002021 	move	a0,s0
a08207b8:	8fbf001c 	lw	ra,28(sp)
a08207bc:	8fb20018 	lw	s2,24(sp)
a08207c0:	8fb10014 	lw	s1,20(sp)
a08207c4:	8fb00010 	lw	s0,16(sp)
a08207c8:	03e00008 	jr	ra
a08207cc:	27bd0020 	addiu	sp,sp,32

a08207d0 <same_string>:
a08207d0:	90880000 	lbu	t0,0(a0)
a08207d4:	00083600 	sll	a2,t0,0x18
a08207d8:	00063603 	sra	a2,a2,0x18
a08207dc:	10c00013 	beqz	a2,a082082c <same_string+0x5c>
a08207e0:	00a03821 	move	a3,a1
a08207e4:	90e20000 	lbu	v0,0(a3)
a08207e8:	00021e00 	sll	v1,v0,0x18
a08207ec:	00031e03 	sra	v1,v1,0x18
a08207f0:	5060000a 	beqzl	v1,a082081c <same_string+0x4c>
a08207f4:	00481026 	xor	v0,v0,t0
a08207f8:	14c30012 	bne	a2,v1,a0820844 <same_string+0x74>
a08207fc:	24840001 	addiu	a0,a0,1
a0820800:	90880000 	lbu	t0,0(a0)
a0820804:	00083600 	sll	a2,t0,0x18
a0820808:	00063603 	sra	a2,a2,0x18
a082080c:	14c0fff5 	bnez	a2,a08207e4 <same_string+0x14>
a0820810:	24e70001 	addiu	a3,a3,1
a0820814:	90e20000 	lbu	v0,0(a3)
a0820818:	00481026 	xor	v0,v0,t0
a082081c:	00021600 	sll	v0,v0,0x18
a0820820:	00021603 	sra	v0,v0,0x18
a0820824:	03e00008 	jr	ra
a0820828:	2c420001 	sltiu	v0,v0,1
a082082c:	90a20000 	lbu	v0,0(a1)
a0820830:	00481026 	xor	v0,v0,t0
a0820834:	00021600 	sll	v0,v0,0x18
a0820838:	00021603 	sra	v0,v0,0x18
a082083c:	03e00008 	jr	ra
a0820840:	2c420001 	sltiu	v0,v0,1
a0820844:	03e00008 	jr	ra
a0820848:	00001021 	move	v0,zero

a082084c <clear_string>:
a082084c:	27bdffe8 	addiu	sp,sp,-24
a0820850:	afb00010 	sw	s0,16(sp)
a0820854:	afbf0014 	sw	ra,20(sp)
a0820858:	0c2080e4 	jal	a0820390 <strlen>
a082085c:	00808021 	move	s0,a0
a0820860:	00402021 	move	a0,v0
a0820864:	18400006 	blez	v0,a0820880 <clear_string+0x34>
a0820868:	00001821 	move	v1,zero
a082086c:	24630001 	addiu	v1,v1,1
a0820870:	0064102a 	slt	v0,v1,a0
a0820874:	5440fffe 	bnezl	v0,a0820870 <clear_string+0x24>
a0820878:	24630001 	addiu	v1,v1,1
a082087c:	a2000000 	sb	zero,0(s0)
a0820880:	8fbf0014 	lw	ra,20(sp)
a0820884:	8fb00010 	lw	s0,16(sp)
a0820888:	03e00008 	jr	ra
a082088c:	27bd0018 	addiu	sp,sp,24

a0820890 <strcpy>:
a0820890:	27bdffe0 	addiu	sp,sp,-32
a0820894:	afb10014 	sw	s1,20(sp)
a0820898:	00a08821 	move	s1,a1
a082089c:	afbf001c 	sw	ra,28(sp)
a08208a0:	afb20018 	sw	s2,24(sp)
a08208a4:	afb00010 	sw	s0,16(sp)
a08208a8:	0c2080e4 	jal	a0820390 <strlen>
a08208ac:	00809021 	move	s2,a0
a08208b0:	02202021 	move	a0,s1
a08208b4:	0c2080e4 	jal	a0820390 <strlen>
a08208b8:	24500001 	addiu	s0,v0,1
a08208bc:	24420001 	addiu	v0,v0,1
a08208c0:	0202102a 	slt	v0,s0,v0
a08208c4:	1440000b 	bnez	v0,a08208f4 <strcpy+0x64>
a08208c8:	2403ffff 	li	v1,-1
a08208cc:	1a000008 	blez	s0,a08208f0 <strcpy+0x60>
a08208d0:	00002821 	move	a1,zero
a08208d4:	02251021 	addu	v0,s1,a1
a08208d8:	90440000 	lbu	a0,0(v0)
a08208dc:	02451821 	addu	v1,s2,a1
a08208e0:	24a50001 	addiu	a1,a1,1
a08208e4:	00b0102a 	slt	v0,a1,s0
a08208e8:	1440fffa 	bnez	v0,a08208d4 <strcpy+0x44>
a08208ec:	a0640000 	sb	a0,0(v1)
a08208f0:	00001821 	move	v1,zero
a08208f4:	8fbf001c 	lw	ra,28(sp)
a08208f8:	8fb20018 	lw	s2,24(sp)
a08208fc:	8fb10014 	lw	s1,20(sp)
a0820900:	8fb00010 	lw	s0,16(sp)
a0820904:	00601021 	move	v0,v1
a0820908:	03e00008 	jr	ra
a082090c:	27bd0020 	addiu	sp,sp,32

a0820910 <strncpy>:
a0820910:	00804021 	move	t0,a0
a0820914:	18c00008 	blez	a2,a0820938 <strncpy+0x28>
a0820918:	00003821 	move	a3,zero
a082091c:	00a71021 	addu	v0,a1,a3
a0820920:	90440000 	lbu	a0,0(v0)
a0820924:	01071821 	addu	v1,t0,a3
a0820928:	24e70001 	addiu	a3,a3,1
a082092c:	00e6102a 	slt	v0,a3,a2
a0820930:	1440fffa 	bnez	v0,a082091c <strncpy+0xc>
a0820934:	a0640000 	sb	a0,0(v1)
a0820938:	01071021 	addu	v0,t0,a3
a082093c:	a0400000 	sb	zero,0(v0)
a0820940:	03e00008 	jr	ra
a0820944:	00001021 	move	v0,zero

a0820948 <bcopy>:
a0820948:	10c0000c 	beqz	a2,a082097c <bcopy+0x34>
a082094c:	00804021 	move	t0,a0
a0820950:	0085102b 	sltu	v0,a0,a1
a0820954:	1040000b 	beqz	v0,a0820984 <bcopy+0x3c>
a0820958:	24c7ffff 	addiu	a3,a2,-1
a082095c:	04e00012 	bltz	a3,a08209a8 <bcopy+0x60>
a0820960:	00000000 	nop
a0820964:	01071021 	addu	v0,t0,a3
a0820968:	90440000 	lbu	a0,0(v0)
a082096c:	00a71821 	addu	v1,a1,a3
a0820970:	24e7ffff 	addiu	a3,a3,-1
a0820974:	04e1fffb 	bgez	a3,a0820964 <bcopy+0x1c>
a0820978:	a0640000 	sb	a0,0(v1)
a082097c:	03e00008 	jr	ra
a0820980:	00000000 	nop
a0820984:	18c0fffd 	blez	a2,a082097c <bcopy+0x34>
a0820988:	00003821 	move	a3,zero
a082098c:	01071021 	addu	v0,t0,a3
a0820990:	90440000 	lbu	a0,0(v0)
a0820994:	00a71821 	addu	v1,a1,a3
a0820998:	24e70001 	addiu	a3,a3,1
a082099c:	00e6102a 	slt	v0,a3,a2
a08209a0:	1440fffa 	bnez	v0,a082098c <bcopy+0x44>
a08209a4:	a0640000 	sb	a0,0(v1)
a08209a8:	03e00008 	jr	ra
a08209ac:	00000000 	nop

a08209b0 <bzero>:
a08209b0:	18a00006 	blez	a1,a08209cc <bzero+0x1c>
a08209b4:	00003021 	move	a2,zero
a08209b8:	00861821 	addu	v1,a0,a2
a08209bc:	24c60001 	addiu	a2,a2,1
a08209c0:	00c5102a 	slt	v0,a2,a1
a08209c4:	1440fffc 	bnez	v0,a08209b8 <bzero+0x8>
a08209c8:	a0600000 	sb	zero,0(v1)
a08209cc:	03e00008 	jr	ra
a08209d0:	00000000 	nop

a08209d4 <srand>:
a08209d4:	3c02a082 	lui	v0,0xa082
a08209d8:	03e00008 	jr	ra
a08209dc:	ac440f94 	sw	a0,3988(v0)

a08209e0 <rand_step>:
a08209e0:	3c0341c6 	lui	v1,0x41c6
a08209e4:	34634e6d 	ori	v1,v1,0x4e6d
a08209e8:	00830018 	mult	a0,v1
a08209ec:	00001012 	mflo	v0
a08209f0:	24423039 	addiu	v0,v0,12345
a08209f4:	03e00008 	jr	ra
a08209f8:	00021402 	srl	v0,v0,0x10

a08209fc <rand>:
a08209fc:	27bdffe8 	addiu	sp,sp,-24
a0820a00:	afb00010 	sw	s0,16(sp)
a0820a04:	3c10a082 	lui	s0,0xa082
a0820a08:	8e040f94 	lw	a0,3988(s0)
a0820a0c:	afbf0014 	sw	ra,20(sp)
a0820a10:	0c208278 	jal	a08209e0 <rand_step>
a0820a14:	00000000 	nop
a0820a18:	ae020f94 	sw	v0,3988(s0)
a0820a1c:	8fbf0014 	lw	ra,20(sp)
a0820a20:	8fb00010 	lw	s0,16(sp)
a0820a24:	03e00008 	jr	ra
a0820a28:	27bd0018 	addiu	sp,sp,24
a0820a2c:	00000000 	nop

a0820a30 <printf_c>:
a0820a30:	27bdffe0 	addiu	sp,sp,-32
a0820a34:	afb10014 	sw	s1,20(sp)
a0820a38:	afb00010 	sw	s0,16(sp)
a0820a3c:	afbf0018 	sw	ra,24(sp)
a0820a40:	8ca20000 	lw	v0,0(a1)
a0820a44:	00063600 	sll	a2,a2,0x18
a0820a48:	00a08021 	move	s0,a1
a0820a4c:	00808821 	move	s1,a0
a0820a50:	04400030 	bltz	v0,a0820b14 <printf_c+0xe4>
a0820a54:	00063603 	sra	a2,a2,0x18
a0820a58:	2402000a 	li	v0,10
a0820a5c:	10c20024 	beq	a2,v0,a0820af0 <printf_c+0xc0>
a0820a60:	28c2000b 	slti	v0,a2,11
a0820a64:	1440000f 	bnez	v0,a0820aa4 <printf_c+0x74>
a0820a68:	24020009 	li	v0,9
a0820a6c:	2402000d 	li	v0,13
a0820a70:	50c20023 	beql	a2,v0,a0820b00 <printf_c+0xd0>
a0820a74:	ae000000 	sw	zero,0(s0)
a0820a78:	8e240000 	lw	a0,0(s1)
a0820a7c:	0c208072 	jal	a08201c8 <print_char>
a0820a80:	8e050000 	lw	a1,0(s0)
a0820a84:	8e030000 	lw	v1,0(s0)
a0820a88:	24630001 	addiu	v1,v1,1
a0820a8c:	ae030000 	sw	v1,0(s0)
a0820a90:	8fbf0018 	lw	ra,24(sp)
a0820a94:	8fb10014 	lw	s1,20(sp)
a0820a98:	8fb00010 	lw	s0,16(sp)
a0820a9c:	03e00008 	jr	ra
a0820aa0:	27bd0020 	addiu	sp,sp,32
a0820aa4:	54c2fff5 	bnel	a2,v0,a0820a7c <printf_c+0x4c>
a0820aa8:	8e240000 	lw	a0,0(s1)
a0820aac:	02202021 	move	a0,s1
a0820ab0:	02002821 	move	a1,s0
a0820ab4:	0c20828c 	jal	a0820a30 <printf_c>
a0820ab8:	24060020 	li	a2,32
a0820abc:	8e020000 	lw	v0,0(s0)
a0820ac0:	30420007 	andi	v0,v0,0x7
a0820ac4:	1040fff2 	beqz	v0,a0820a90 <printf_c+0x60>
a0820ac8:	02202021 	move	a0,s1
a0820acc:	02002821 	move	a1,s0
a0820ad0:	0c20828c 	jal	a0820a30 <printf_c>
a0820ad4:	24060020 	li	a2,32
a0820ad8:	8e020000 	lw	v0,0(s0)
a0820adc:	30420007 	andi	v0,v0,0x7
a0820ae0:	1440fff3 	bnez	v0,a0820ab0 <printf_c+0x80>
a0820ae4:	02202021 	move	a0,s1
a0820ae8:	082082a5 	j	a0820a94 <printf_c+0x64>
a0820aec:	8fbf0018 	lw	ra,24(sp)
a0820af0:	8e220000 	lw	v0,0(s1)
a0820af4:	24420001 	addiu	v0,v0,1
a0820af8:	ae220000 	sw	v0,0(s1)
a0820afc:	ae000000 	sw	zero,0(s0)
a0820b00:	8fbf0018 	lw	ra,24(sp)
a0820b04:	8fb10014 	lw	s1,20(sp)
a0820b08:	8fb00010 	lw	s0,16(sp)
a0820b0c:	03e00008 	jr	ra
a0820b10:	27bd0020 	addiu	sp,sp,32
a0820b14:	08208296 	j	a0820a58 <printf_c+0x28>
a0820b18:	aca00000 	sw	zero,0(a1)

a0820b1c <printf_u>:
a0820b1c:	27bdffd0 	addiu	sp,sp,-48
a0820b20:	3c02cccc 	lui	v0,0xcccc
a0820b24:	afb20028 	sw	s2,40(sp)
a0820b28:	afb10024 	sw	s1,36(sp)
a0820b2c:	afb00020 	sw	s0,32(sp)
a0820b30:	00809021 	move	s2,a0
a0820b34:	afbf002c 	sw	ra,44(sp)
a0820b38:	00a08821 	move	s1,a1
a0820b3c:	a3a00010 	sb	zero,16(sp)
a0820b40:	3444cccd 	ori	a0,v0,0xcccd
a0820b44:	27b00010 	addiu	s0,sp,16
a0820b48:	00c40019 	multu	a2,a0
a0820b4c:	26100001 	addiu	s0,s0,1
a0820b50:	00001810 	mfhi	v1
a0820b54:	000318c2 	srl	v1,v1,0x3
a0820b58:	00031080 	sll	v0,v1,0x2
a0820b5c:	00431021 	addu	v0,v0,v1
a0820b60:	00021040 	sll	v0,v0,0x1
a0820b64:	00c21023 	subu	v0,a2,v0
a0820b68:	24420030 	addiu	v0,v0,48
a0820b6c:	a2020000 	sb	v0,0(s0)
a0820b70:	1460fff5 	bnez	v1,a0820b48 <printf_u+0x2c>
a0820b74:	00603021 	move	a2,v1
a0820b78:	00023600 	sll	a2,v0,0x18
a0820b7c:	082082e5 	j	a0820b94 <printf_u+0x78>
a0820b80:	00063603 	sra	a2,a2,0x18
a0820b84:	02402021 	move	a0,s2
a0820b88:	0c20828c 	jal	a0820a30 <printf_c>
a0820b8c:	02202821 	move	a1,s1
a0820b90:	82060000 	lb	a2,0(s0)
a0820b94:	14c0fffb 	bnez	a2,a0820b84 <printf_u+0x68>
a0820b98:	2610ffff 	addiu	s0,s0,-1
a0820b9c:	8fbf002c 	lw	ra,44(sp)
a0820ba0:	8fb20028 	lw	s2,40(sp)
a0820ba4:	8fb10024 	lw	s1,36(sp)
a0820ba8:	8fb00020 	lw	s0,32(sp)
a0820bac:	03e00008 	jr	ra
a0820bb0:	27bd0030 	addiu	sp,sp,48

a0820bb4 <printf>:
a0820bb4:	27bdffc8 	addiu	sp,sp,-56
a0820bb8:	afb3001c 	sw	s3,28(sp)
a0820bbc:	afb10014 	sw	s1,20(sp)
a0820bc0:	afbf0030 	sw	ra,48(sp)
a0820bc4:	afb7002c 	sw	s7,44(sp)
a0820bc8:	afb60028 	sw	s6,40(sp)
a0820bcc:	afb50024 	sw	s5,36(sp)
a0820bd0:	afb40020 	sw	s4,32(sp)
a0820bd4:	afb20018 	sw	s2,24(sp)
a0820bd8:	afb00010 	sw	s0,16(sp)
a0820bdc:	afa40038 	sw	a0,56(sp)
a0820be0:	afa5003c 	sw	a1,60(sp)
a0820be4:	afa70044 	sw	a3,68(sp)
a0820be8:	afa60040 	sw	a2,64(sp)
a0820bec:	00c08821 	move	s1,a2
a0820bf0:	80c60000 	lb	a2,0(a2)
a0820bf4:	10c0001c 	beqz	a2,a0820c68 <printf+0xb4>
a0820bf8:	27b30044 	addiu	s3,sp,68
a0820bfc:	27b5003c 	addiu	s5,sp,60
a0820c00:	02a0b821 	move	s7,s5
a0820c04:	02a0b021 	move	s6,s5
a0820c08:	24020025 	li	v0,37
a0820c0c:	14c20028 	bne	a2,v0,a0820cb0 <printf+0xfc>
a0820c10:	27a40038 	addiu	a0,sp,56
a0820c14:	26310001 	addiu	s1,s1,1
a0820c18:	92260000 	lbu	a2,0(s1)
a0820c1c:	24020073 	li	v0,115
a0820c20:	00061e00 	sll	v1,a2,0x18
a0820c24:	00031e03 	sra	v1,v1,0x18
a0820c28:	10620052 	beq	v1,v0,a0820d74 <printf+0x1c0>
a0820c2c:	28620074 	slti	v0,v1,116
a0820c30:	10400018 	beqz	v0,a0820c94 <printf+0xe0>
a0820c34:	24020075 	li	v0,117
a0820c38:	24020063 	li	v0,99
a0820c3c:	1062005a 	beq	v1,v0,a0820da8 <printf+0x1f4>
a0820c40:	28620064 	slti	v0,v1,100
a0820c44:	5040002b 	beqzl	v0,a0820cf4 <printf+0x140>
a0820c48:	24020064 	li	v0,100
a0820c4c:	14600016 	bnez	v1,a0820ca8 <printf+0xf4>
a0820c50:	00063600 	sll	a2,a2,0x18
a0820c54:	2631ffff 	addiu	s1,s1,-1
a0820c58:	26310001 	addiu	s1,s1,1
a0820c5c:	82260000 	lb	a2,0(s1)
a0820c60:	14c0ffea 	bnez	a2,a0820c0c <printf+0x58>
a0820c64:	24020025 	li	v0,37
a0820c68:	8fbf0030 	lw	ra,48(sp)
a0820c6c:	8fb7002c 	lw	s7,44(sp)
a0820c70:	8fb60028 	lw	s6,40(sp)
a0820c74:	8fb50024 	lw	s5,36(sp)
a0820c78:	8fb40020 	lw	s4,32(sp)
a0820c7c:	8fb3001c 	lw	s3,28(sp)
a0820c80:	8fb20018 	lw	s2,24(sp)
a0820c84:	8fb10014 	lw	s1,20(sp)
a0820c88:	8fb00010 	lw	s0,16(sp)
a0820c8c:	03e00008 	jr	ra
a0820c90:	27bd0038 	addiu	sp,sp,56
a0820c94:	10620049 	beq	v1,v0,a0820dbc <printf+0x208>
a0820c98:	24020078 	li	v0,120
a0820c9c:	50620020 	beql	v1,v0,a0820d20 <printf+0x16c>
a0820ca0:	8e720000 	lw	s2,0(s3)
a0820ca4:	00063600 	sll	a2,a2,0x18
a0820ca8:	00063603 	sra	a2,a2,0x18
a0820cac:	27a40038 	addiu	a0,sp,56
a0820cb0:	27a5003c 	addiu	a1,sp,60
a0820cb4:	0c20828c 	jal	a0820a30 <printf_c>
a0820cb8:	26310001 	addiu	s1,s1,1
a0820cbc:	82260000 	lb	a2,0(s1)
a0820cc0:	14c0ffd2 	bnez	a2,a0820c0c <printf+0x58>
a0820cc4:	24020025 	li	v0,37
a0820cc8:	8fbf0030 	lw	ra,48(sp)
a0820ccc:	8fb7002c 	lw	s7,44(sp)
a0820cd0:	8fb60028 	lw	s6,40(sp)
a0820cd4:	8fb50024 	lw	s5,36(sp)
a0820cd8:	8fb40020 	lw	s4,32(sp)
a0820cdc:	8fb3001c 	lw	s3,28(sp)
a0820ce0:	8fb20018 	lw	s2,24(sp)
a0820ce4:	8fb10014 	lw	s1,20(sp)
a0820ce8:	8fb00010 	lw	s0,16(sp)
a0820cec:	03e00008 	jr	ra
a0820cf0:	27bd0038 	addiu	sp,sp,56
a0820cf4:	1462ffec 	bne	v1,v0,a0820ca8 <printf+0xf4>
a0820cf8:	00063600 	sll	a2,a2,0x18
a0820cfc:	8e700000 	lw	s0,0(s3)
a0820d00:	06000035 	bltz	s0,a0820dd8 <printf+0x224>
a0820d04:	26730004 	addiu	s3,s3,4
a0820d08:	02003021 	move	a2,s0
a0820d0c:	27a40038 	addiu	a0,sp,56
a0820d10:	0c2082c7 	jal	a0820b1c <printf_u>
a0820d14:	02e02821 	move	a1,s7
a0820d18:	0820832f 	j	a0820cbc <printf+0x108>
a0820d1c:	26310001 	addiu	s1,s1,1
a0820d20:	27b40038 	addiu	s4,sp,56
a0820d24:	26730004 	addiu	s3,s3,4
a0820d28:	24100007 	li	s0,7
a0820d2c:	00101080 	sll	v0,s0,0x2
a0820d30:	00521006 	srlv	v0,s2,v0
a0820d34:	3046000f 	andi	a2,v0,0xf
a0820d38:	24c40057 	addiu	a0,a2,87
a0820d3c:	28c2000a 	slti	v0,a2,10
a0820d40:	24c30030 	addiu	v1,a2,48
a0820d44:	10400002 	beqz	v0,a0820d50 <printf+0x19c>
a0820d48:	00043600 	sll	a2,a0,0x18
a0820d4c:	00033600 	sll	a2,v1,0x18
a0820d50:	2610ffff 	addiu	s0,s0,-1
a0820d54:	00063603 	sra	a2,a2,0x18
a0820d58:	02802021 	move	a0,s4
a0820d5c:	0c20828c 	jal	a0820a30 <printf_c>
a0820d60:	02c02821 	move	a1,s6
a0820d64:	0601fff2 	bgez	s0,a0820d30 <printf+0x17c>
a0820d68:	00101080 	sll	v0,s0,0x2
a0820d6c:	0820832f 	j	a0820cbc <printf+0x108>
a0820d70:	26310001 	addiu	s1,s1,1
a0820d74:	8e620000 	lw	v0,0(s3)
a0820d78:	27b20038 	addiu	s2,sp,56
a0820d7c:	26730004 	addiu	s3,s3,4
a0820d80:	08208365 	j	a0820d94 <printf+0x1e0>
a0820d84:	00408021 	move	s0,v0
a0820d88:	02a02821 	move	a1,s5
a0820d8c:	0c20828c 	jal	a0820a30 <printf_c>
a0820d90:	26100001 	addiu	s0,s0,1
a0820d94:	82060000 	lb	a2,0(s0)
a0820d98:	14c0fffb 	bnez	a2,a0820d88 <printf+0x1d4>
a0820d9c:	02402021 	move	a0,s2
a0820da0:	0820832f 	j	a0820cbc <printf+0x108>
a0820da4:	26310001 	addiu	s1,s1,1
a0820da8:	82660000 	lb	a2,0(s3)
a0820dac:	27a40038 	addiu	a0,sp,56
a0820db0:	27a5003c 	addiu	a1,sp,60
a0820db4:	0820832d 	j	a0820cb4 <printf+0x100>
a0820db8:	26730004 	addiu	s3,s3,4
a0820dbc:	8e660000 	lw	a2,0(s3)
a0820dc0:	27a40038 	addiu	a0,sp,56
a0820dc4:	27a5003c 	addiu	a1,sp,60
a0820dc8:	0c2082c7 	jal	a0820b1c <printf_u>
a0820dcc:	26730004 	addiu	s3,s3,4
a0820dd0:	0820832f 	j	a0820cbc <printf+0x108>
a0820dd4:	26310001 	addiu	s1,s1,1
a0820dd8:	27a40038 	addiu	a0,sp,56
a0820ddc:	02e02821 	move	a1,s7
a0820de0:	0c20828c 	jal	a0820a30 <printf_c>
a0820de4:	2406002d 	li	a2,45
a0820de8:	27a40038 	addiu	a0,sp,56
a0820dec:	02e02821 	move	a1,s7
a0820df0:	0c2082c7 	jal	a0820b1c <printf_u>
a0820df4:	00103023 	negu	a2,s0
a0820df8:	0820832f 	j	a0820cbc <printf+0x108>
a0820dfc:	26310001 	addiu	s1,s1,1
a0820e00:	a01f00f4 	sb	ra,244(zero)
	...
Disassembly of section .rodata.str1.4:

a0820e18 <.rodata.str1.4>:
a0820e18:	65657267 	daddiu	a1,t3,29287
a0820e1c:	676e6974 	daddiu	t6,k1,26996
a0820e20:	49202c73 	0x49202c73
a0820e24:	206d6120 	addi	t5,v1,24864
a0820e28:	516e7553 	beql	t3,t6,a083e378 <_gp+0x153f8>
a0820e2c:	006e6175 	0x6e6175
a0820e30:	516e7553 	beql	t3,t6,a083e380 <_gp+0x15400>
a0820e34:	2d6e6175 	sltiu	t6,t3,24949
a0820e38:	6c627550 	ldr	v0,30032(v1)
a0820e3c:	2d687369 	sltiu	t0,t3,29545
a0820e40:	00444950 	0x444950
a0820e44:	6c69614d 	ldr	t1,24909(v1)
a0820e48:	20786f42 	addi	t8,v1,28482
a0820e4c:	6f207369 	ldr	zero,29545(t9)
a0820e50:	206e6570 	addi	t6,v1,25968
a0820e54:	20202020 	addi	zero,at,8224
a0820e58:	20202020 	addi	zero,at,8224
a0820e5c:	20202020 	addi	zero,at,8224
a0820e60:	00000020 	add	zero,zero,zero
a0820e64:	6d612049 	ldr	at,8265(t3)
a0820e68:	74697720 	jalx	a1a5dc80 <_gp+0x1234d00>
a0820e6c:	694c2068 	ldl	t4,8296(t2)
a0820e70:	69654275 	ldl	a1,17013(t3)
a0820e74:	20202020 	addi	zero,at,8224
a0820e78:	20202020 	addi	zero,at,8224
a0820e7c:	20202020 	addi	zero,at,8224
a0820e80:	00000020 	add	zero,zero,zero
a0820e84:	4275694c 	c0	0x75694c
a0820e88:	502d6965 	beql	at,t5,a083b420 <_gp+0x124a0>
a0820e8c:	696c6275 	ldl	t4,25205(t3)
a0820e90:	502d6873 	beql	at,t5,a083b060 <_gp+0x120e0>
a0820e94:	00004449 	0x4449
a0820e98:	516e7553 	beql	t3,t6,a083e3e8 <_gp+0x15468>
a0820e9c:	206e6175 	addi	t6,v1,24949
a0820ea0:	29642528 	slti	a0,t3,9512
a0820ea4:	2749203a 	addiu	t1,k0,8250
a0820ea8:	6177206d 	daddi	s7,t3,8301
a0820eac:	6e697469 	ldr	t1,29801(s3)
a0820eb0:	6f662067 	ldr	a2,8295(k1)
a0820eb4:	694c2072 	ldl	t4,8306(t2)
a0820eb8:	69656275 	ldl	a1,25205(t3)
a0820ebc:	20202020 	addi	zero,at,8224
a0820ec0:	20202020 	addi	zero,at,8224
a0820ec4:	20202020 	addi	zero,at,8224
a0820ec8:	00202020 	add	a0,at,zero
a0820ecc:	516e7553 	beql	t3,t6,a083e41c <_gp+0x1549c>
a0820ed0:	286e6175 	slti	t6,v1,24949
a0820ed4:	3a296425 	xori	t1,s1,0x6425
a0820ed8:	6d274920 	ldr	a3,18720(t1)
a0820edc:	6d6f6320 	ldr	t7,25376(t3)
a0820ee0:	20676e69 	addi	a3,v1,28265
a0820ee4:	73206f74 	0x73206f74
a0820ee8:	20657661 	addi	a1,v1,30305
a0820eec:	2c756f79 	sltiu	s5,v1,28537
a0820ef0:	75694c20 	jalx	a5a53080 <_gp+0x522a100>
a0820ef4:	21696542 	addi	t1,t3,25922
a0820ef8:	00000000 	nop
a0820efc:	4275694c 	c0	0x75694c
a0820f00:	00006965 	0x6965
a0820f04:	305b1b20 	andi	k1,v0,0x1b20
a0820f08:	0000006d 	0x6d
a0820f0c:	00005b1b 	0x5b1b
a0820f10:	0000003b 	dsra	zero,zero,0x0
a0820f14:	00000048 	0x48
a0820f18:	20202020 	addi	zero,at,8224
a0820f1c:	20202020 	addi	zero,at,8224
a0820f20:	20202020 	addi	zero,at,8224
a0820f24:	20202020 	addi	zero,at,8224
a0820f28:	20202020 	addi	zero,at,8224
a0820f2c:	20202020 	addi	zero,at,8224
a0820f30:	20202020 	addi	zero,at,8224
a0820f34:	20202020 	addi	zero,at,8224
a0820f38:	20202020 	addi	zero,at,8224
a0820f3c:	20202020 	addi	zero,at,8224
a0820f40:	20202020 	addi	zero,at,8224
a0820f44:	20202020 	addi	zero,at,8224
a0820f48:	20202020 	addi	zero,at,8224
a0820f4c:	20202020 	addi	zero,at,8224
a0820f50:	20202020 	addi	zero,at,8224
a0820f54:	20202020 	addi	zero,at,8224
a0820f58:	20202020 	addi	zero,at,8224
a0820f5c:	20202020 	addi	zero,at,8224
a0820f60:	20202020 	addi	zero,at,8224
a0820f64:	00002020 	add	a0,zero,zero
Disassembly of section .data:

a0820f70 <_fdata>:
	...
Disassembly of section .ctors:

a0820f80 <__CTOR_LIST__>:
	...
Disassembly of section .dtors:

a0820f88 <__DTOR_LIST__>:
	...
Disassembly of section .bss:

a0820f90 <line_all>:
a0820f90:	00000000 	nop

a0820f94 <rand_val>:
	...
Disassembly of section .debug_aranges:

00000000 <.debug_aranges>:
   0:	0000001c 	dmult	zero,zero
   4:	00000002 	srl	zero,zero,0x0
   8:	00040000 	sll	zero,a0,0x0
   c:	00000000 	nop
  10:	a0820000 	sb	v0,0(a0)
  14:	00000114 	0x114
	...
  20:	0000001c 	dmult	zero,zero
  24:	00000002 	srl	zero,zero,0x0
  28:	00040000 	sll	zero,a0,0x0
  2c:	00000000 	nop
  30:	a0820120 	sb	v0,288(a0)
  34:	0000016c 	0x16c
	...
  40:	0000001c 	dmult	zero,zero
  44:	00000002 	srl	zero,zero,0x0
  48:	00040000 	sll	zero,a0,0x0
  4c:	00000000 	nop
  50:	a0820290 	sb	v0,656(a0)
  54:	00000028 	0x28
	...
  60:	0000001c 	dmult	zero,zero
  64:	00000002 	srl	zero,zero,0x0
  68:	00040000 	sll	zero,a0,0x0
  6c:	00000000 	nop
  70:	a08202c0 	sb	v0,704(a0)
  74:	0000076c 	0x76c
	...
  80:	0000001c 	dmult	zero,zero
  84:	00000002 	srl	zero,zero,0x0
  88:	00040000 	sll	zero,a0,0x0
  8c:	00000000 	nop
  90:	a0820a30 	sb	v0,2608(a0)
  94:	000003d0 	0x3d0
	...
Disassembly of section .debug_pubnames:

00000000 <.debug_pubnames>:
   0:	0000001a 	div	zero,zero,zero
   4:	00000002 	srl	zero,zero,0x0
   8:	01080000 	0x1080000
   c:	007a0000 	0x7a0000
  10:	75530000 	jalx	54c0000 <SunQuan-0x9b360000>
  14:	6175516e 	daddi	s5,t3,20846
  18:	0000006e 	0x6e
  1c:	00e20000 	0xe20000
  20:	00020000 	sll	zero,v0,0x0
  24:	00000000 	nop
  28:	00000340 	sll	zero,zero,0xd
  2c:	0000007a 	dsrl	zero,zero,0x1
  30:	6c656979 	ldr	a1,27001(v1)
  34:	00910064 	0x910064
  38:	78650000 	0x78650000
  3c:	a8007469 	swl	zero,29801(zero)
  40:	67000000 	daddiu	zero,t8,0
  44:	69707465 	ldl	s0,29797(t3)
  48:	00c30064 	0xc30064
  4c:	6c730000 	ldr	s3,0(v1)
  50:	00706565 	0x706565
  54:	000000ec 	0xec
  58:	74756873 	jalx	1d5a1cc <SunQuan-0x9eac5e34>
  5c:	6e776f64 	ldr	s7,28516(s3)
  60:	00010300 	sll	zero,at,0xc
  64:	69727700 	ldl	s2,30464(t3)
  68:	735f6574 	0x735f6574
  6c:	61697265 	daddi	t1,t3,29285
  70:	0131006c 	0x131006c
  74:	65670000 	daddiu	a3,t3,0
  78:	69727074 	ldl	s2,28788(t3)
  7c:	7469726f 	jalx	1a5c9bc <SunQuan-0x9edc3644>
  80:	014c0079 	0x14c0079
  84:	65730000 	daddiu	s3,t3,0
  88:	69727074 	ldl	s2,28788(t3)
  8c:	7469726f 	jalx	1a5c9bc <SunQuan-0x9edc3644>
  90:	01730079 	0x1730079
  94:	72700000 	0x72700000
  98:	5f746e69 	0x5f746e69
  9c:	72616863 	0x72616863
  a0:	0001b800 	sll	s7,at,0x0
  a4:	61707300 	daddi	s0,t3,29440
  a8:	f0006e77 	scd	zero,28279(zero)
  ac:	6b000001 	ldl	zero,1(t8)
  b0:	006c6c69 	0x6c6c69
  b4:	0000021d 	0x21d
  b8:	74696177 	jalx	1a585dc <SunQuan-0x9edc7a24>
  bc:	00024a00 	sll	t1,v0,0x8
  c0:	6f626d00 	ldr	v0,27904(k1)
  c4:	706f5f78 	0x706f5f78
  c8:	77006e65 	jalx	c01b994 <SunQuan-0x9480466c>
  cc:	6d000002 	ldr	zero,2(t0)
  d0:	5f786f62 	0x5f786f62
  d4:	736f6c63 	0x736f6c63
  d8:	02a00065 	0x2a00065
  dc:	626d0000 	daddi	t5,s3,0
  e0:	735f786f 	0x735f786f
  e4:	00646e65 	0x646e65
  e8:	000002e5 	0x2e5
  ec:	786f626d 	0x786f626d
  f0:	6365725f 	daddi	a1,k1,29279
  f4:	03280076 	tne	t9,t0,0x1
  f8:	69740000 	ldl	s4,0(t3)
  fc:	0072656d 	0x72656d
 100:	00000000 	nop
 104:	00000132 	tlt	zero,zero,0x4
 108:	00000002 	srl	zero,zero,0x0
 10c:	07130000 	bgezall	t8,110 <SunQuan-0xa081fef0>
 110:	006f0000 	0x6f0000
 114:	72700000 	0x72700000
 118:	73746e69 	0x73746e69
 11c:	bb007274 	swr	zero,29300(t8)
 120:	70000000 	0x70000000
 124:	746e6972 	jalx	1b9a5c8 <SunQuan-0x9ec85a38>
 128:	6c6f635f 	ldr	t7,25439(v1)
 12c:	ef00726f 	swc3	$0,29295(t8)
 130:	64000000 	daddiu	zero,zero,0
 134:	79616c65 	0x79616c65
 138:	01370073 	tltu	t1,s7,0x1
 13c:	74730000 	jalx	1cc0000 <SunQuan-0x9eb60000>
 140:	6e656c72 	ldr	a1,27762(s3)
 144:	00018500 	sll	s0,at,0x14
 148:	69727000 	ldl	s2,28672(t3)
 14c:	735f746e 	0x735f746e
 150:	de007274 	ld	zero,29300(s0)
 154:	61000001 	daddi	zero,t0,1
 158:	00696f74 	teq	v1,t1,0x1bd
 15c:	00000214 	0x214
 160:	65766572 	daddiu	s6,t3,25970
 164:	00657372 	tlt	v1,a1,0x1cd
 168:	0000025c 	0x25c
 16c:	686f7469 	ldl	t7,29801(v1)
 170:	a4007865 	sh	zero,30821(zero)
 174:	70000002 	0x70000002
 178:	746e6972 	jalx	1b9a5c8 <SunQuan-0x9ec85a38>
 17c:	7865685f 	0x7865685f
 180:	00032200 	sll	a0,v1,0x8
 184:	6f746900 	ldr	s4,26880(k1)
 188:	035f0061 	0x35f0061
 18c:	72700000 	0x72700000
 190:	5f746e69 	0x5f746e69
 194:	00746e69 	0x746e69
 198:	000003d3 	0x3d3
 19c:	6e697270 	ldr	t1,29296(s3)
 1a0:	6f6c5f74 	ldr	t4,24436(k1)
 1a4:	69746163 	ldl	s4,24931(t3)
 1a8:	31006e6f 	andi	zero,t0,0x6e6f
 1ac:	63000004 	daddi	zero,t8,4
 1b0:	7261656c 	0x7261656c
 1b4:	7263735f 	0x7263735f
 1b8:	006e6565 	0x6e6565
 1bc:	0000049e 	0x49e
 1c0:	656d6173 	daddiu	t5,t3,24947
 1c4:	7274735f 	0x7274735f
 1c8:	00676e69 	0x676e69
 1cc:	000004f0 	tge	zero,zero,0x13
 1d0:	61656c63 	daddi	a1,t3,27747
 1d4:	74735f72 	jalx	1cd7dc8 <SunQuan-0x9eb48238>
 1d8:	676e6972 	daddiu	t6,k1,26994
 1dc:	00053100 	sll	a2,a1,0x4
 1e0:	72747300 	0x72747300
 1e4:	00797063 	0x797063
 1e8:	0000059a 	0x59a
 1ec:	6e727473 	ldr	s2,29811(s3)
 1f0:	00797063 	0x797063
 1f4:	000005ec 	0x5ec
 1f8:	706f6362 	0x706f6362
 1fc:	063a0079 	0x63a0079
 200:	7a620000 	0x7a620000
 204:	006f7265 	0x6f7265
 208:	0000067b 	dsra	zero,zero,0x19
 20c:	6e617273 	ldr	at,29299(s3)
 210:	06a40064 	0x6a40064
 214:	61720000 	daddi	s2,t3,0
 218:	735f646e 	0x735f646e
 21c:	00706574 	teq	v1,s0,0x195
 220:	000006d3 	0x6d3
 224:	646e6172 	daddiu	t6,v1,24946
 228:	0006ef00 	sll	sp,a2,0x1c
 22c:	6e696c00 	ldr	t1,27648(s3)
 230:	6c615f65 	ldr	at,24421(v1)
 234:	0000006c 	0x6c
 238:	00190000 	sll	zero,t9,0x0
 23c:	00020000 	sll	zero,v0,0x0
 240:	00000000 	nop
 244:	00000296 	0x296
 248:	0000011d 	0x11d
 24c:	6e697270 	ldr	t1,29296(s3)
 250:	00006674 	teq	zero,zero,0x199
 254:	Address 0x0000000000000254 is out of bounds.

Disassembly of section .pdr:

00000000 <.pdr>:
   0:	a0820000 	sb	v0,0(a0)
   4:	801f0000 	lb	ra,0(zero)
   8:	fffffffc 	sd	ra,-4(ra)
	...
  14:	00000030 	tge	zero,zero
  18:	0000001d 	dmultu	zero,zero
  1c:	0000001f 	ddivu	zero,zero,zero
  20:	a0820120 	sb	v0,288(a0)
	...
  38:	0000001d 	dmultu	zero,zero
  3c:	0000001f 	ddivu	zero,zero,zero
  40:	a0820134 	sb	v0,308(a0)
	...
  58:	0000001d 	dmultu	zero,zero
  5c:	0000001f 	ddivu	zero,zero,zero
  60:	a0820148 	sb	v0,328(a0)
	...
  78:	0000001d 	dmultu	zero,zero
  7c:	0000001f 	ddivu	zero,zero,zero
  80:	a082015c 	sb	v0,348(a0)
	...
  98:	0000001d 	dmultu	zero,zero
  9c:	0000001f 	ddivu	zero,zero,zero
  a0:	a0820170 	sb	v0,368(a0)
	...
  b8:	0000001d 	dmultu	zero,zero
  bc:	0000001f 	ddivu	zero,zero,zero
  c0:	a0820184 	sb	v0,388(a0)
	...
  d8:	0000001d 	dmultu	zero,zero
  dc:	0000001f 	ddivu	zero,zero,zero
  e0:	a08201a0 	sb	v0,416(a0)
	...
  f8:	0000001d 	dmultu	zero,zero
  fc:	0000001f 	ddivu	zero,zero,zero
 100:	a08201b4 	sb	v0,436(a0)
	...
 118:	0000001d 	dmultu	zero,zero
 11c:	0000001f 	ddivu	zero,zero,zero
 120:	a08201c8 	sb	v0,456(a0)
	...
 138:	0000001d 	dmultu	zero,zero
 13c:	0000001f 	ddivu	zero,zero,zero
 140:	a08201e4 	sb	v0,484(a0)
	...
 158:	0000001d 	dmultu	zero,zero
 15c:	0000001f 	ddivu	zero,zero,zero
 160:	a08201f8 	sb	v0,504(a0)
	...
 178:	0000001d 	dmultu	zero,zero
 17c:	0000001f 	ddivu	zero,zero,zero
 180:	a082020c 	sb	v0,524(a0)
	...
 198:	0000001d 	dmultu	zero,zero
 19c:	0000001f 	ddivu	zero,zero,zero
 1a0:	a0820220 	sb	v0,544(a0)
	...
 1b8:	0000001d 	dmultu	zero,zero
 1bc:	0000001f 	ddivu	zero,zero,zero
 1c0:	a0820234 	sb	v0,564(a0)
	...
 1d8:	0000001d 	dmultu	zero,zero
 1dc:	0000001f 	ddivu	zero,zero,zero
 1e0:	a0820248 	sb	v0,584(a0)
	...
 1f8:	0000001d 	dmultu	zero,zero
 1fc:	0000001f 	ddivu	zero,zero,zero
 200:	a0820260 	sb	v0,608(a0)
	...
 218:	0000001d 	dmultu	zero,zero
 21c:	0000001f 	ddivu	zero,zero,zero
 220:	a0820278 	sb	v0,632(a0)
	...
 238:	0000001d 	dmultu	zero,zero
 23c:	0000001f 	ddivu	zero,zero,zero
 240:	a0820290 	sb	v0,656(a0)
	...
 258:	0000001d 	dmultu	zero,zero
 25c:	0000001f 	ddivu	zero,zero,zero
 260:	a08202c0 	sb	v0,704(a0)
	...
 278:	0000001d 	dmultu	zero,zero
 27c:	0000001f 	ddivu	zero,zero,zero
 280:	a0820300 	sb	v0,768(a0)
 284:	80010000 	lb	at,0(zero)
 288:	fffffffc 	sd	ra,-4(ra)
	...
 294:	00000018 	mult	zero,zero
 298:	0000001d 	dmultu	zero,zero
 29c:	0000001f 	ddivu	zero,zero,zero
 2a0:	a0820338 	sb	v0,824(a0)
	...
 2b8:	0000001d 	dmultu	zero,zero
 2bc:	0000001f 	ddivu	zero,zero,zero
 2c0:	a0820390 	sb	v0,912(a0)
	...
 2d8:	0000001d 	dmultu	zero,zero
 2dc:	0000001f 	ddivu	zero,zero,zero
 2e0:	a08203b4 	sb	v0,948(a0)
 2e4:	801f0000 	lb	ra,0(zero)
 2e8:	fffffffc 	sd	ra,-4(ra)
	...
 2f4:	00000028 	0x28
 2f8:	0000001d 	dmultu	zero,zero
 2fc:	0000001f 	ddivu	zero,zero,zero
 300:	a0820434 	sb	v0,1076(a0)
	...
 318:	0000001d 	dmultu	zero,zero
 31c:	0000001f 	ddivu	zero,zero,zero
 320:	a082048c 	sb	v0,1164(a0)
 324:	80010000 	lb	at,0(zero)
 328:	fffffffc 	sd	ra,-4(ra)
	...
 334:	00000018 	mult	zero,zero
 338:	0000001d 	dmultu	zero,zero
 33c:	0000001f 	ddivu	zero,zero,zero
 340:	a08204e4 	sb	v0,1252(a0)
	...
 358:	0000001d 	dmultu	zero,zero
 35c:	0000001f 	ddivu	zero,zero,zero
 360:	a082053c 	sb	v0,1340(a0)
 364:	801f0000 	lb	ra,0(zero)
 368:	fffffffc 	sd	ra,-4(ra)
	...
 374:	00000038 	dsll	zero,zero,0x0
 378:	0000001d 	dmultu	zero,zero
 37c:	0000001f 	ddivu	zero,zero,zero
 380:	a08205d4 	sb	v0,1492(a0)
	...
 398:	0000001d 	dmultu	zero,zero
 39c:	0000001f 	ddivu	zero,zero,zero
 3a0:	a0820628 	sb	v0,1576(a0)
 3a4:	801f0000 	lb	ra,0(zero)
 3a8:	fffffffc 	sd	ra,-4(ra)
	...
 3b4:	00000038 	dsll	zero,zero,0x0
 3b8:	0000001d 	dmultu	zero,zero
 3bc:	0000001f 	ddivu	zero,zero,zero
 3c0:	a08206f0 	sb	v0,1776(a0)
 3c4:	80030000 	lb	v1,0(zero)
 3c8:	fffffff8 	sd	ra,-8(ra)
	...
 3d4:	00000060 	0x60
 3d8:	0000001d 	dmultu	zero,zero
 3dc:	0000001f 	ddivu	zero,zero,zero
 3e0:	a082076c 	sb	v0,1900(a0)
 3e4:	80070000 	lb	a3,0(zero)
 3e8:	fffffffc 	sd	ra,-4(ra)
	...
 3f4:	00000020 	add	zero,zero,zero
 3f8:	0000001d 	dmultu	zero,zero
 3fc:	0000001f 	ddivu	zero,zero,zero
 400:	a08207d0 	sb	v0,2000(a0)
	...
 418:	0000001d 	dmultu	zero,zero
 41c:	0000001f 	ddivu	zero,zero,zero
 420:	a082084c 	sb	v0,2124(a0)
 424:	80010000 	lb	at,0(zero)
 428:	fffffffc 	sd	ra,-4(ra)
	...
 434:	00000018 	mult	zero,zero
 438:	0000001d 	dmultu	zero,zero
 43c:	0000001f 	ddivu	zero,zero,zero
 440:	a0820890 	sb	v0,2192(a0)
 444:	80070000 	lb	a3,0(zero)
 448:	fffffffc 	sd	ra,-4(ra)
	...
 454:	00000020 	add	zero,zero,zero
 458:	0000001d 	dmultu	zero,zero
 45c:	0000001f 	ddivu	zero,zero,zero
 460:	a0820910 	sb	v0,2320(a0)
	...
 478:	0000001d 	dmultu	zero,zero
 47c:	0000001f 	ddivu	zero,zero,zero
 480:	a0820948 	sb	v0,2376(a0)
	...
 498:	0000001d 	dmultu	zero,zero
 49c:	0000001f 	ddivu	zero,zero,zero
 4a0:	a08209b0 	sb	v0,2480(a0)
	...
 4b8:	0000001d 	dmultu	zero,zero
 4bc:	0000001f 	ddivu	zero,zero,zero
 4c0:	a08209d4 	sb	v0,2516(a0)
	...
 4d8:	0000001d 	dmultu	zero,zero
 4dc:	0000001f 	ddivu	zero,zero,zero
 4e0:	a08209e0 	sb	v0,2528(a0)
	...
 4f8:	0000001d 	dmultu	zero,zero
 4fc:	0000001f 	ddivu	zero,zero,zero
 500:	a08209fc 	sb	v0,2556(a0)
 504:	80010000 	lb	at,0(zero)
 508:	fffffffc 	sd	ra,-4(ra)
	...
 514:	00000018 	mult	zero,zero
 518:	0000001d 	dmultu	zero,zero
 51c:	0000001f 	ddivu	zero,zero,zero
 520:	a0820a30 	sb	v0,2608(a0)
 524:	80030000 	lb	v1,0(zero)
 528:	fffffff8 	sd	ra,-8(ra)
	...
 534:	00000020 	add	zero,zero,zero
 538:	0000001d 	dmultu	zero,zero
 53c:	0000001f 	ddivu	zero,zero,zero
 540:	a0820b1c 	sb	v0,2844(a0)
 544:	80070000 	lb	a3,0(zero)
 548:	fffffffc 	sd	ra,-4(ra)
	...
 554:	00000030 	tge	zero,zero
 558:	0000001d 	dmultu	zero,zero
 55c:	0000001f 	ddivu	zero,zero,zero
 560:	a0820bb4 	sb	v0,2996(a0)
 564:	80ff0000 	lb	ra,0(a3)
 568:	fffffff8 	sd	ra,-8(ra)
	...
 574:	00000038 	dsll	zero,zero,0x0
 578:	0000001d 	dmultu	zero,zero
 57c:	0000001f 	ddivu	zero,zero,zero
Disassembly of section .debug_abbrev:

00000000 <.debug_abbrev>:
   0:	10011101 	beq	zero,at,4408 <SunQuan-0xa081bbf8>
   4:	11011206 	beq	t0,at,4820 <SunQuan-0xa081b7e0>
   8:	130e2501 	beq	t8,t6,9410 <SunQuan-0xa0816bf0>
   c:	1b0e030b 	0x1b0e030b
  10:	0200000e 	0x200000e
  14:	0e030024 	jal	80c0090 <SunQuan-0x9875ff70>
  18:	0b3e0b0b 	j	cf82c2c <SunQuan-0x9389d3d4>
  1c:	16030000 	bne	s0,v1,20 <SunQuan-0xa081ffe0>
  20:	3a0e0300 	xori	t6,s0,0x300
  24:	490b3b0b 	0x490b3b0b
  28:	04000013 	bltz	zero,78 <SunQuan-0xa081ff88>
  2c:	08030024 	j	c0090 <SunQuan-0xa075ff70>
  30:	0b3e0b0b 	j	cf82c2c <SunQuan-0x9389d3d4>
  34:	2e050000 	sltiu	a1,s0,0
  38:	030c3f01 	0x30c3f01
  3c:	3b0b3a0e 	xori	t3,t8,0x3a0e
  40:	110c270b 	beq	t0,t4,9c70 <SunQuan-0xa0816390>
  44:	81011201 	lb	at,4609(t0)
  48:	0a400640 	j	9001900 <SunQuan-0x9781e700>
  4c:	34060000 	li	a2,0x0
  50:	3a080300 	xori	t0,s0,0x300
  54:	490b3b0b 	0x490b3b0b
  58:	000a0213 	0xa0213
  5c:	012e0700 	0x12e0700
  60:	0c3f1301 	jal	fc4c04 <SunQuan-0x9f85b3fc>
  64:	0b3a0e03 	j	ce8380c <SunQuan-0x9399c7f4>
  68:	13490b3b 	beq	k0,t1,2d58 <SunQuan-0xa081d2a8>
  6c:	00000c3c 	dsll32	at,zero,0x10
  70:	00001808 	0x1808
  74:	00340900 	0x340900
  78:	0b3a0e03 	j	ce8380c <SunQuan-0x9399c7f4>
  7c:	13490b3b 	beq	k0,t1,2d6c <SunQuan-0xa081d294>
  80:	00000a02 	srl	at,zero,0x8
  84:	11010b0a 	beq	t0,at,2cb0 <SunQuan-0xa081d350>
  88:	00011201 	0x11201
  8c:	012e0b00 	0x12e0b00
  90:	0e030c3f 	jal	80c30fc <SunQuan-0x9875cf04>
  94:	0b3b0b3a 	j	cec2ce8 <SunQuan-0x9395d318>
  98:	0c3c1349 	jal	f04d24 <SunQuan-0x9f91b2dc>
  9c:	Address 0x000000000000009c is out of bounds.

Disassembly of section .debug_info:

00000000 <.debug_info>:
   0:	00000104 	0x104
   4:	00000002 	srl	zero,zero,0x0
   8:	01040000 	0x1040000
   c:	00000000 	nop
  10:	a0820114 	sb	v0,276(a0)
  14:	a0820000 	sb	v0,0(a0)
  18:	00000024 	and	zero,zero,zero
  1c:	00003901 	0x3901
  20:	00000000 	nop
  24:	00460200 	0x460200
  28:	06010000 	bgez	s0,2c <SunQuan-0xa081ffd4>
  2c:	0000ac02 	srl	s5,zero,0x10
  30:	02050200 	0x2050200
  34:	0000009c 	0x9c
  38:	97020504 	lhu	v0,1284(t8)
  3c:	08000000 	j	0 <SunQuan-0xa0820000>
  40:	00440205 	0x440205
  44:	08010000 	j	40000 <SunQuan-0xa07e0000>
  48:	00005202 	srl	t2,zero,0x8
  4c:	02070200 	0x2070200
  50:	00000074 	teq	zero,zero,0x1
  54:	6f020704 	ldr	v0,1796(t8)
  58:	08000000 	j	0 <SunQuan-0xa0820000>
  5c:	00330307 	0x330307
  60:	47020000 	c1	0x1020000
  64:	00000068 	0x68
  68:	746e6904 	jalx	1b9a410 <SunQuan-0x9ec85bf0>
  6c:	03050400 	0x3050400
  70:	00000090 	0x90
  74:	00684802 	0x684802
  78:	01050000 	0x1050000
  7c:	000000c6 	0xc6
  80:	00010701 	0x10701
  84:	14a08200 	bnez	a1,fffe0888 <_gp+0x5f7b7908>
  88:	10a08201 	beqz	a1,fffe0890 <_gp+0x5f7b7910>
  8c:	01000000 	0x1000000
  90:	7570066d 	jalx	5c019b4 <SunQuan-0x9ac1e64c>
  94:	0b010062 	j	c040188 <SunQuan-0x947dfe78>
  98:	0000006f 	0x6f
  9c:	b1076001 	sdl	a3,24577(t0)
  a0:	01000000 	0x1000000
  a4:	000000b6 	tne	zero,zero,0x2
  a8:	00680b01 	0x680b01
  ac:	08010000 	j	40000 <SunQuan-0xa07e0000>
  b0:	00c00900 	0xc00900
  b4:	0c010000 	jal	40000 <SunQuan-0xa07e0000>
  b8:	0000005d 	0x5d
  bc:	07109102 	bltzal	t8,fffe44c8 <_gp+0x5f7bb548>
  c0:	000000d2 	0xd2
  c4:	00006501 	0x6501
  c8:	68120100 	ldl	s2,256(zero)
  cc:	01000000 	0x1000000
  d0:	73060008 	0x73060008
  d4:	01006275 	0x1006275
  d8:	00006f16 	0x6f16
  dc:	0a610100 	j	9840400 <SunQuan-0x96fdfc00>
  e0:	a08200ac 	sb	v0,172(a0)
  e4:	a0820114 	sb	v0,276(a0)
  e8:	0000a509 	0xa509
  ec:	5d190100 	0x5d190100
  f0:	02000000 	0x2000000
  f4:	010b1491 	0x10b1491
  f8:	00000086 	0x86
  fc:	00681a01 	0x681a01
 100:	08010000 	j	40000 <SunQuan-0xa07e0000>
 104:	00000000 	nop
Disassembly of section .debug_line:

00000000 <.debug_line>:
   0:	0000005b 	0x5b
   4:	002d0002 	0x2d0002
   8:	01010000 	0x1010000
   c:	000d0efb 	dsra	at,t5,0x1b
  10:	01010101 	0x1010101
  14:	01000000 	0x1000000
  18:	00010000 	sll	zero,at,0x0
  1c:	636f7270 	daddi	t7,k1,29296
  20:	31737365 	andi	s3,t3,0x7365
  24:	0000632e 	0x632e
  28:	6f630000 	ldr	v1,0(k1)
  2c:	6e6f6d6d 	ldr	t7,28013(s3)
  30:	0000682e 	dneg	t5,zero
  34:	00000000 	nop
  38:	00000205 	0x205
  3c:	481aa082 	0x481aa082
  40:	3e08b84c 	0x3e08b84c
  44:	f283bb84 	scd	v1,-17532(s4)
  48:	f3400883 	scd	zero,2179(k0)
  4c:	f4b008f5 	sdc1	$f16,2293(a1)
  50:	08843e08 	j	210f820 <SunQuan-0x9e7107e0>
  54:	0383833e 	0x383833e
  58:	0802f276 	j	bc9d8 <SunQuan-0xa0763628>
  5c:	Address 0x000000000000005c is out of bounds.

Disassembly of section .debug_frame:

00000000 <.debug_frame>:
   0:	0000000c 	syscall
   4:	ffffffff 	sd	ra,-1(ra)
   8:	04010001 	b	10 <SunQuan-0xa081fff0>
   c:	001d0c1f 	0x1d0c1f
  10:	00000024 	and	zero,zero,zero
  14:	00000000 	nop
  18:	a0820000 	sb	v0,0(a0)
  1c:	00000114 	0x114
  20:	60300e48 	daddi	s0,at,3656
  24:	117a1011 	beq	t3,k0,406c <SunQuan-0xa081bf94>
  28:	12117b11 	beq	s0,s1,1ec70 <SunQuan-0xa0801390>
  2c:	7d13117c 	0x7d13117c
  30:	117e1411 	beq	t3,s8,5078 <SunQuan-0xa081af88>
  34:	00007f1f 	0x7f1f
  38:	0000000c 	syscall
  3c:	ffffffff 	sd	ra,-1(ra)
  40:	04010001 	b	48 <SunQuan-0xa081ffb8>
  44:	001d0c1f 	0x1d0c1f
  48:	0000000c 	syscall
  4c:	00000038 	dsll	zero,zero,0x0
  50:	a0820120 	sb	v0,288(a0)
  54:	00000014 	dsllv	zero,zero,zero
  58:	0000000c 	syscall
  5c:	00000038 	dsll	zero,zero,0x0
  60:	a0820134 	sb	v0,308(a0)
  64:	00000014 	dsllv	zero,zero,zero
  68:	0000000c 	syscall
  6c:	00000038 	dsll	zero,zero,0x0
  70:	a0820148 	sb	v0,328(a0)
  74:	00000014 	dsllv	zero,zero,zero
  78:	0000000c 	syscall
  7c:	00000038 	dsll	zero,zero,0x0
  80:	a082015c 	sb	v0,348(a0)
  84:	00000014 	dsllv	zero,zero,zero
  88:	0000000c 	syscall
  8c:	00000038 	dsll	zero,zero,0x0
  90:	a0820170 	sb	v0,368(a0)
  94:	00000014 	dsllv	zero,zero,zero
  98:	0000000c 	syscall
  9c:	00000038 	dsll	zero,zero,0x0
  a0:	a0820184 	sb	v0,388(a0)
  a4:	0000001c 	dmult	zero,zero
  a8:	0000000c 	syscall
  ac:	00000038 	dsll	zero,zero,0x0
  b0:	a08201a0 	sb	v0,416(a0)
  b4:	00000014 	dsllv	zero,zero,zero
  b8:	0000000c 	syscall
  bc:	00000038 	dsll	zero,zero,0x0
  c0:	a08201b4 	sb	v0,436(a0)
  c4:	00000014 	dsllv	zero,zero,zero
  c8:	0000000c 	syscall
  cc:	00000038 	dsll	zero,zero,0x0
  d0:	a08201c8 	sb	v0,456(a0)
  d4:	0000001c 	dmult	zero,zero
  d8:	0000000c 	syscall
  dc:	00000038 	dsll	zero,zero,0x0
  e0:	a08201e4 	sb	v0,484(a0)
  e4:	00000014 	dsllv	zero,zero,zero
  e8:	0000000c 	syscall
  ec:	00000038 	dsll	zero,zero,0x0
  f0:	a08201f8 	sb	v0,504(a0)
  f4:	00000014 	dsllv	zero,zero,zero
  f8:	0000000c 	syscall
  fc:	00000038 	dsll	zero,zero,0x0
 100:	a082020c 	sb	v0,524(a0)
 104:	00000014 	dsllv	zero,zero,zero
 108:	0000000c 	syscall
 10c:	00000038 	dsll	zero,zero,0x0
 110:	a0820220 	sb	v0,544(a0)
 114:	00000014 	dsllv	zero,zero,zero
 118:	0000000c 	syscall
 11c:	00000038 	dsll	zero,zero,0x0
 120:	a0820234 	sb	v0,564(a0)
 124:	00000014 	dsllv	zero,zero,zero
 128:	0000000c 	syscall
 12c:	00000038 	dsll	zero,zero,0x0
 130:	a0820248 	sb	v0,584(a0)
 134:	00000018 	mult	zero,zero
 138:	0000000c 	syscall
 13c:	00000038 	dsll	zero,zero,0x0
 140:	a0820260 	sb	v0,608(a0)
 144:	00000018 	mult	zero,zero
 148:	0000000c 	syscall
 14c:	00000038 	dsll	zero,zero,0x0
 150:	a0820278 	sb	v0,632(a0)
 154:	00000014 	dsllv	zero,zero,zero
 158:	0000000c 	syscall
 15c:	ffffffff 	sd	ra,-1(ra)
 160:	04010001 	b	168 <SunQuan-0xa081fe98>
 164:	001d0c1f 	0x1d0c1f
 168:	0000000c 	syscall
 16c:	00000158 	0x158
 170:	a08202c0 	sb	v0,704(a0)
 174:	00000040 	sll	zero,zero,0x1
 178:	00000018 	mult	zero,zero
 17c:	00000158 	0x158
 180:	a0820300 	sb	v0,768(a0)
 184:	00000038 	dsll	zero,zero,0x0
 188:	44180e44 	0x44180e44
 18c:	487e1011 	0x487e1011
 190:	007f1f11 	0x7f1f11
 194:	0000000c 	syscall
 198:	00000158 	0x158
 19c:	a0820338 	sb	v0,824(a0)
 1a0:	00000058 	0x58
 1a4:	0000000c 	syscall
 1a8:	00000158 	0x158
 1ac:	a0820390 	sb	v0,912(a0)
 1b0:	00000024 	and	zero,zero,zero
 1b4:	00000024 	and	zero,zero,zero
 1b8:	00000158 	0x158
 1bc:	a08203b4 	sb	v0,948(a0)
 1c0:	00000080 	sll	zero,zero,0x2
 1c4:	44280e44 	0x44280e44
 1c8:	5c7e1411 	0x5c7e1411
 1cc:	117f1f11 	beq	t3,ra,7e14 <SunQuan-0xa08181ec>
 1d0:	11117a10 	beq	t0,s1,1ea14 <SunQuan-0xa08015ec>
 1d4:	7c12117b 	0x7c12117b
 1d8:	007d1311 	0x7d1311
 1dc:	0000000c 	syscall
 1e0:	00000158 	0x158
 1e4:	a0820434 	sb	v0,1076(a0)
 1e8:	00000058 	0x58
 1ec:	00000018 	mult	zero,zero
 1f0:	00000158 	0x158
 1f4:	a082048c 	sb	v0,1164(a0)
 1f8:	00000058 	0x58
 1fc:	48180e44 	0x48180e44
 200:	117f1f11 	beq	t3,ra,7e48 <SunQuan-0xa08181b8>
 204:	00007e10 	0x7e10
 208:	0000000c 	syscall
 20c:	00000158 	0x158
 210:	a08204e4 	sb	v0,1252(a0)
 214:	00000058 	0x58
 218:	00000024 	and	zero,zero,zero
 21c:	00000158 	0x158
 220:	a082053c 	sb	v0,1340(a0)
 224:	00000098 	0x98
 228:	48380e44 	0x48380e44
 22c:	587e1411 	0x587e1411
 230:	117c1211 	beq	t3,gp,4a78 <SunQuan-0xa081b588>
 234:	11117a10 	beq	t0,s1,1ea78 <SunQuan-0xa0801588>
 238:	7d13117b 	0x7d13117b
 23c:	007f1f11 	0x7f1f11
 240:	0000000c 	syscall
 244:	00000158 	0x158
 248:	a08205d4 	sb	v0,1492(a0)
 24c:	00000054 	0x54
 250:	00000024 	and	zero,zero,zero
 254:	00000158 	0x158
 258:	a0820628 	sb	v0,1576(a0)
 25c:	000000c8 	0xc8
 260:	44380e44 	0x44380e44
 264:	587a1011 	0x587a1011
 268:	117c1211 	beq	t3,gp,4ab0 <SunQuan-0xa081b550>
 26c:	1f117e14 	0x1f117e14
 270:	7b11117f 	0x7b11117f
 274:	007d1311 	0x7d1311
 278:	0000001c 	dmult	zero,zero
 27c:	00000158 	0x158
 280:	a08206f0 	sb	v0,1776(a0)
 284:	0000007c 	dsll32	zero,zero,0x1
 288:	44600e44 	0x44600e44
 28c:	547c1011 	bnel	v1,gp,42d4 <SunQuan-0xa081bd2c>
 290:	117d1111 	beq	t3,sp,46d8 <SunQuan-0xa081b928>
 294:	00007e1f 	0x7e1f
 298:	0000001c 	dmult	zero,zero
 29c:	00000158 	0x158
 2a0:	a082076c 	sb	v0,1900(a0)
 2a4:	00000064 	0x64
 2a8:	54200e44 	bnezl	at,3bbc <SunQuan-0xa081c444>
 2ac:	117d1111 	beq	t3,sp,46f4 <SunQuan-0xa081b90c>
 2b0:	10117f1f 	beq	zero,s1,1ff30 <SunQuan-0xa08000d0>
 2b4:	7e12117c 	0x7e12117c
 2b8:	0000000c 	syscall
 2bc:	00000158 	0x158
 2c0:	a08207d0 	sb	v0,2000(a0)
 2c4:	0000007c 	dsll32	zero,zero,0x1
 2c8:	00000018 	mult	zero,zero
 2cc:	00000158 	0x158
 2d0:	a082084c 	sb	v0,2124(a0)
 2d4:	00000044 	0x44
 2d8:	48180e44 	0x48180e44
 2dc:	117f1f11 	beq	t3,ra,7f24 <SunQuan-0xa08180dc>
 2e0:	00007e10 	0x7e10
 2e4:	00000020 	add	zero,zero,zero
 2e8:	00000158 	0x158
 2ec:	a0820890 	sb	v0,2192(a0)
 2f0:	00000080 	sll	zero,zero,0x2
 2f4:	44200e44 	0x44200e44
 2f8:	507d1111 	beql	v1,sp,4740 <SunQuan-0xa081b8c0>
 2fc:	117c1011 	beq	t3,gp,4344 <SunQuan-0xa081bcbc>
 300:	1f117e12 	0x1f117e12
 304:	0000007f 	dsra32	zero,zero,0x1
 308:	0000000c 	syscall
 30c:	00000158 	0x158
 310:	a0820910 	sb	v0,2320(a0)
 314:	00000038 	dsll	zero,zero,0x0
 318:	0000000c 	syscall
 31c:	00000158 	0x158
 320:	a0820948 	sb	v0,2376(a0)
 324:	00000068 	0x68
 328:	0000000c 	syscall
 32c:	00000158 	0x158
 330:	a08209b0 	sb	v0,2480(a0)
 334:	00000024 	and	zero,zero,zero
 338:	0000000c 	syscall
 33c:	00000158 	0x158
 340:	a08209d4 	sb	v0,2516(a0)
 344:	0000000c 	syscall
 348:	0000000c 	syscall
 34c:	00000158 	0x158
 350:	a08209e0 	sb	v0,2528(a0)
 354:	0000001c 	dmult	zero,zero
 358:	00000018 	mult	zero,zero
 35c:	00000158 	0x158
 360:	a08209fc 	sb	v0,2556(a0)
 364:	00000030 	tge	zero,zero
 368:	44180e44 	0x44180e44
 36c:	4c7e1011 	0x4c7e1011
 370:	007f1f11 	0x7f1f11
 374:	0000000c 	syscall
 378:	ffffffff 	sd	ra,-1(ra)
 37c:	04010001 	b	384 <SunQuan-0xa081fc7c>
 380:	001d0c1f 	0x1d0c1f
 384:	0000001c 	dmult	zero,zero
 388:	00000374 	teq	zero,zero,0xd
 38c:	a0820a30 	sb	v0,2608(a0)
 390:	000000ec 	0xec
 394:	4c200e44 	0x4c200e44
 398:	117e1f11 	beq	t3,s8,7fe0 <SunQuan-0xa0818020>
 39c:	11117c10 	beq	t0,s1,1f3e0 <SunQuan-0xa0800c20>
 3a0:	0000007d 	0x7d
 3a4:	00000020 	add	zero,zero,zero
 3a8:	00000374 	teq	zero,zero,0xd
 3ac:	a0820b1c 	sb	v0,2844(a0)
 3b0:	00000098 	0x98
 3b4:	50300e44 	beql	at,s0,3cc8 <SunQuan-0xa081c338>
 3b8:	117c1011 	beq	t3,gp,4400 <SunQuan-0xa081bc00>
 3bc:	12117d11 	beq	s0,s1,1f804 <SunQuan-0xa08007fc>
 3c0:	1f11487e 	0x1f11487e
 3c4:	0000007f 	dsra32	zero,zero,0x1
 3c8:	0000002c 	dadd	zero,zero,zero
 3cc:	00000374 	teq	zero,zero,0xd
 3d0:	a0820bb4 	sb	v0,2996(a0)
 3d4:	0000024c 	syscall	0x9
 3d8:	64380e44 	daddiu	t8,at,3652
 3dc:	11761011 	beq	t3,s6,4424 <SunQuan-0xa081bbdc>
 3e0:	14117812 	bne	zero,s1,1e42c <SunQuan-0xa0801bd4>
 3e4:	7b15117a 	0x7b15117a
 3e8:	117c1611 	beq	t3,gp,5c30 <SunQuan-0xa081a3d0>
 3ec:	1f117d17 	0x1f117d17
 3f0:	7711117e 	jalx	c4445f8 <SunQuan-0x943dba08>
 3f4:	00791311 	0x791311
Disassembly of section .debug_str:

00000000 <.debug_str>:
   0:	6d6f682f 	ldr	t7,26671(t3)
   4:	74732f65 	jalx	1ccbd94 <SunQuan-0x9eb5426c>
   8:	534f2f75 	beql	k0,t7,bde0 <SunQuan-0xa0814220>
   c:	2f34502f 	sltiu	s4,t9,20527
  10:	6a6f7270 	ldl	t7,29296(s3)
  14:	34746365 	ori	s4,v1,0x6365
  18:	6174735f 	daddi	s4,t3,29535
  1c:	635f7472 	daddi	ra,k0,29810
  20:	0065646f 	0x65646f
  24:	20554e47 	addi	s5,v0,20039
  28:	2e332043 	sltiu	s3,s1,8259
  2c:	20362e34 	addi	s6,at,11828
  30:	7000672d 	0x7000672d
  34:	745f6469 	jalx	17d91a4 <SunQuan-0x9f046e5c>
  38:	6f727000 	ldr	s2,28672(k1)
  3c:	73736563 	0x73736563
  40:	00632e31 	tgeu	v1,v1,0xb8
  44:	69736e75 	ldl	s3,28277(t3)
  48:	64656e67 	daddiu	a1,v1,28263
  4c:	61686320 	daddi	t0,t3,25376
  50:	68730072 	ldl	s3,114(v1)
  54:	2074726f 	addi	s4,v1,29295
  58:	69736e75 	ldl	s3,28277(t3)
  5c:	64656e67 	daddiu	a1,v1,28263
  60:	746e6920 	jalx	1b9a480 <SunQuan-0x9ec85b80>
  64:	6f626d00 	ldr	v0,27904(k1)
  68:	65735f78 	daddiu	s3,t3,24440
  6c:	6c00646e 	ldr	zero,25710(zero)
  70:	20676e6f 	addi	a3,v1,28271
  74:	676e6f6c 	daddiu	t6,k1,28524
  78:	736e7520 	0x736e7520
  7c:	656e6769 	daddiu	t6,t3,26473
  80:	6e692064 	ldr	t1,8292(s3)
  84:	626d0074 	daddi	t5,s3,116
  88:	725f786f 	0x725f786f
  8c:	00766365 	0x766365
  90:	786f626d 	0x786f626d
  94:	6c00745f 	ldr	zero,29791(zero)
  98:	20676e6f 	addi	a3,v1,28271
  9c:	676e6f6c 	daddiu	t6,k1,28524
  a0:	746e6920 	jalx	1b9a480 <SunQuan-0x9ec85b80>
  a4:	75696c00 	jalx	5a5b000 <SunQuan-0x9adc5000>
  a8:	00696562 	0x696562
  ac:	726f6873 	0x726f6873
  b0:	6e692074 	ldr	t1,8308(s3)
  b4:	626d0074 	daddi	t5,s3,116
  b8:	6f5f786f 	ldr	ra,30831(k0)
  bc:	006e6570 	tge	v1,t6,0x195
  c0:	6950796d 	ldl	s0,31085(t2)
  c4:	75530064 	jalx	54c0190 <SunQuan-0x9b35fe70>
  c8:	6175516e 	daddi	s5,t3,20846
  cc:	6567006e 	daddiu	a3,t3,110
  d0:	64697074 	daddiu	t1,v1,28788
  d4:	73797300 	0x73797300
  d8:	2e62696c 	sltiu	v0,s3,26988
  dc:	626d0063 	daddi	t5,s3,99
  e0:	7000786f 	0x7000786f
  e4:	746e6972 	jalx	1b9a5c8 <SunQuan-0x9ec85a38>
  e8:	6168635f 	daddi	t0,t3,25439
  ec:	70730072 	0x70730072
  f0:	006e7761 	0x6e7761
  f4:	656d6974 	daddiu	t5,t3,26996
  f8:	696b0072 	ldl	t3,114(t3)
  fc:	6d006c6c 	ldr	zero,27756(t0)
 100:	696c6c69 	ldl	t4,27753(t3)
 104:	6f636573 	ldr	v1,25971(k1)
 108:	0073646e 	0x73646e
 10c:	74696177 	jalx	1a585dc <SunQuan-0x9edc7a24>
 110:	74656700 	jalx	1959c00 <SunQuan-0x9eec6400>
 114:	6f697270 	ldr	t1,29296(k1)
 118:	79746972 	0x79746972
 11c:	6c696600 	ldr	t1,26112(v1)
 120:	6d616e65 	ldr	at,28261(t3)
 124:	65730065 	daddiu	s3,t3,101
 128:	69727074 	ldl	s2,28788(t3)
 12c:	7469726f 	jalx	1a5c9bc <SunQuan-0x9edc3644>
 130:	696c0079 	ldl	t4,121(t3)
 134:	7300656e 	0x7300656e
 138:	64747568 	daddiu	s4,v1,30056
 13c:	006e776f 	0x6e776f
 140:	6c656979 	ldr	a1,27001(v1)
 144:	78650064 	0x78650064
 148:	73007469 	0x73007469
 14c:	7065656c 	0x7065656c
 150:	79626e00 	0x79626e00
 154:	00736574 	teq	v1,s3,0x195
 158:	74697277 	jalx	1a5c9dc <SunQuan-0x9edc3624>
 15c:	65735f65 	daddiu	s3,t3,24421
 160:	6c616972 	ldr	at,26994(v1)
 164:	6f626d00 	ldr	v0,27904(k1)
 168:	6c635f78 	ldr	v1,24440(v1)
 16c:	0065736f 	0x65736f
 170:	6e727473 	ldr	s2,29811(s3)
 174:	00797063 	0x797063
 178:	5f6e656c 	0x5f6e656c
 17c:	74736564 	jalx	1cd9590 <SunQuan-0x9eb46a70>
 180:	69727000 	ldl	s2,28672(t3)
 184:	635f746e 	daddi	ra,k0,29806
 188:	726f6c6f 	0x726f6c6f
 18c:	69727000 	ldl	s2,28672(t3)
 190:	7473746e 	jalx	1cdd1b8 <SunQuan-0x9eb42e48>
 194:	74750072 	jalx	1d401c8 <SunQuan-0x9eadfe38>
 198:	632e6c69 	daddi	t6,t9,27753
 19c:	656c6300 	daddiu	t4,t3,25344
 1a0:	735f7261 	0x735f7261
 1a4:	6e697274 	ldr	t1,29300(s3)
 1a8:	656e0067 	daddiu	t6,t3,103
 1ac:	6c665f67 	ldr	a2,24423(v1)
 1b0:	70006761 	0x70006761
 1b4:	746e6972 	jalx	1b9a5c8 <SunQuan-0x9ec85a38>
 1b8:	746e695f 	jalx	1b9a57c <SunQuan-0x9ec85a84>
 1bc:	72747300 	0x72747300
 1c0:	74730031 	jalx	1cc00c4 <SunQuan-0x9eb5ff3c>
 1c4:	63003272 	daddi	zero,t8,12914
 1c8:	7261656c 	0x7261656c
 1cc:	7263735f 	0x7263735f
 1d0:	006e6565 	0x6e6565
 1d4:	7878616d 	0x7878616d
 1d8:	657a6200 	daddiu	k0,t3,25088
 1dc:	74006f72 	jalx	1bdc8 <SunQuan-0xa0804238>
 1e0:	32706d65 	andi	s0,s3,0x6d65
 1e4:	6e656c00 	ldr	a1,27648(s3)
 1e8:	756f735f 	jalx	5bdcd7c <SunQuan-0x9ac43284>
 1ec:	656c0072 	daddiu	t4,t3,114
 1f0:	6874676e 	ldl	s4,26478(v1)
 1f4:	69727000 	ldl	s2,28672(t3)
 1f8:	6c5f746e 	ldr	ra,29806(v0)
 1fc:	7461636f 	jalx	1858dbc <SunQuan-0x9efc7244>
 200:	006e6f69 	0x6e6f69
 204:	7978616d 	0x7978616d
 208:	756f7300 	jalx	5bdcc00 <SunQuan-0x9ac43400>
 20c:	00656372 	tlt	v1,a1,0x18d
 210:	6e697270 	ldr	t1,29296(s3)
 214:	74735f74 	jalx	1cd7dd0 <SunQuan-0x9eb48230>
 218:	74690072 	jalx	1a401c8 <SunQuan-0x9eddfe38>
 21c:	6100616f 	daddi	zero,t0,24943
 220:	00696f74 	teq	v1,t1,0x1bd
 224:	746e6975 	jalx	1b9a5d4 <SunQuan-0x9ec85a2c>
 228:	745f3233 	jalx	17cc8cc <SunQuan-0x9f053734>
 22c:	6c656400 	ldr	a1,25600(v1)
 230:	00737961 	0x737961
 234:	656e696c 	daddiu	t6,t3,26988
 238:	6c6c615f 	ldr	t4,24927(v1)
 23c:	6f636200 	ldr	v1,25088(k1)
 240:	72007970 	0x72007970
 244:	72657665 	0x72657665
 248:	73006573 	0x73006573
 24c:	00646565 	0x646565
 250:	6c727473 	ldr	s2,29811(v1)
 254:	73006e65 	0x73006e65
 258:	70637274 	0x70637274
 25c:	696d0079 	ldl	t5,121(t3)
 260:	7300786e 	0x7300786e
 264:	5f656d61 	0x5f656d61
 268:	69727473 	ldl	s2,29811(t3)
 26c:	7000676e 	0x7000676e
 270:	746e6972 	jalx	1b9a5c8 <SunQuan-0x9ec85a38>
 274:	7865685f 	0x7865685f
 278:	726f7000 	0x726f7000
 27c:	69730074 	ldl	s3,116(t3)
 280:	7200657a 	0x7200657a
 284:	5f646e61 	0x5f646e61
 288:	006c6176 	tne	v1,t4,0x185
 28c:	796e696d 	0x796e696d
 290:	6d657400 	ldr	a1,29696(t3)
 294:	64003170 	daddiu	zero,zero,12656
 298:	69747365 	ldl	s4,29541(t3)
 29c:	7469006e 	jalx	1a401b8 <SunQuan-0x9eddfe48>
 2a0:	7865686f 	0x7865686f
 2a4:	61727300 	daddi	s2,t3,29440
 2a8:	6100646e 	daddi	zero,t0,25710
 2ac:	00616572 	tlt	v1,at,0x195
 2b0:	646e6172 	daddiu	t6,v1,24946
 2b4:	6574735f 	daddiu	s4,t3,29535
 2b8:	72700070 	0x72700070
 2bc:	66746e69 	daddiu	s4,s3,28265
 2c0:	7000645f 	0x7000645f
 2c4:	746e6972 	jalx	1b9a5c8 <SunQuan-0x9ec85a38>
 2c8:	72700066 	0x72700066
 2cc:	66746e69 	daddiu	s4,s3,28265
 2d0:	7000735f 	0x7000735f
 2d4:	746e6972 	jalx	1b9a5c8 <SunQuan-0x9ec85a38>
 2d8:	00755f66 	0x755f66
 2dc:	61696c61 	daddi	t1,t3,27745
 2e0:	6e755f73 	ldr	s5,24435(s3)
 2e4:	6e676973 	ldr	a3,26995(s3)
 2e8:	70006465 	0x70006465
 2ec:	746e6972 	jalx	1b9a5c8 <SunQuan-0x9ec85a38>
 2f0:	00785f66 	0x785f66
 2f4:	75677261 	jalx	59dc984 <SunQuan-0x9ae4367c>
 2f8:	746e656d 	jalx	1b995b4 <SunQuan-0x9ec86a4c>
 2fc:	726f6600 	0x726f6600
 300:	0074616d 	0x74616d
 304:	6e697270 	ldr	t1,29296(s3)
 308:	632e6674 	daddi	t6,t9,26228
 30c:	66756200 	daddiu	s5,s3,25088
 310:	00726566 	0x726566
 314:	6e697270 	ldr	t1,29296(s3)
 318:	635f6674 	daddi	ra,k0,26228
	...
Disassembly of section .comment:

00000000 <.comment>:
   0:	43434700 	c0	0x1434700
   4:	4728203a 	c1	0x128203a
   8:	2029554e 	addi	t1,at,21838
   c:	2e342e33 	sltiu	s4,s1,11827
  10:	47000036 	c1	0x1000036
  14:	203a4343 	addi	k0,at,17219
  18:	554e4728 	bnel	t2,t6,11cbc <SunQuan-0xa080e344>
  1c:	2e332029 	sltiu	s3,s1,8233
  20:	00362e34 	teq	at,s6,0xb8
  24:	43434700 	c0	0x1434700
  28:	4728203a 	c1	0x128203a
  2c:	2029554e 	addi	t1,at,21838
  30:	2e342e33 	sltiu	s4,s1,11827
  34:	47000036 	c1	0x1000036
  38:	203a4343 	addi	k0,at,17219
  3c:	554e4728 	bnel	t2,t6,11ce0 <SunQuan-0xa080e320>
  40:	2e332029 	sltiu	s3,s1,8233
  44:	00362e34 	teq	at,s6,0xb8
Disassembly of section .debug_abbrev.1:

00000000 <.debug_abbrev.1>:
   0:	10011101 	beq	zero,at,4408 <SunQuan-0xa081bbf8>
   4:	11011206 	beq	t0,at,4820 <SunQuan-0xa081b7e0>
   8:	130e2501 	beq	t8,t6,9410 <SunQuan-0xa0816bf0>
   c:	1b0e030b 	0x1b0e030b
  10:	0200000e 	0x200000e
  14:	0e030024 	jal	80c0090 <SunQuan-0x9875ff70>
  18:	0b3e0b0b 	j	cf82c2c <SunQuan-0x9389d3d4>
  1c:	16030000 	bne	s0,v1,20 <SunQuan-0xa081ffe0>
  20:	3a0e0300 	xori	t6,s0,0x300
  24:	490b3b0b 	0x490b3b0b
  28:	04000013 	bltz	zero,78 <SunQuan-0xa081ff88>
  2c:	08030024 	j	c0090 <SunQuan-0xa075ff70>
  30:	0b3e0b0b 	j	cf82c2c <SunQuan-0x9389d3d4>
  34:	2e050000 	sltiu	a1,s0,0
  38:	030c3f00 	0x30c3f00
  3c:	3b0b3a0e 	xori	t3,t8,0x3a0e
  40:	110c270b 	beq	t0,t4,9c70 <SunQuan-0xa0816390>
  44:	81011201 	lb	at,4609(t0)
  48:	0a400640 	j	9001900 <SunQuan-0x9781e700>
  4c:	2e060000 	sltiu	a2,s0,0
  50:	030c3f00 	0x30c3f00
  54:	3b0b3a0e 	xori	t3,t8,0x3a0e
  58:	490c270b 	0x490c270b
  5c:	12011113 	beq	s0,at,44ac <SunQuan-0xa081bb54>
  60:	06408101 	bltz	s2,fffe0468 <_gp+0x5f7b74e8>
  64:	00000a40 	sll	at,zero,0x9
  68:	01012e07 	0x1012e07
  6c:	030c3f13 	0x30c3f13
  70:	3b0b3a0e 	xori	t3,t8,0x3a0e
  74:	110c270b 	beq	t0,t4,9ca4 <SunQuan-0xa081635c>
  78:	81011201 	lb	at,4609(t0)
  7c:	0a400640 	j	9001900 <SunQuan-0x9781e700>
  80:	05080000 	tgei	t0,0
  84:	3a0e0300 	xori	t6,s0,0x300
  88:	490b3b0b 	0x490b3b0b
  8c:	000a0213 	0xa0213
  90:	00050900 	sll	at,a1,0x4
  94:	0b3a0803 	j	ce8200c <SunQuan-0x9399dff4>
  98:	13490b3b 	beq	k0,t1,2d88 <SunQuan-0xa081d278>
  9c:	00000a02 	srl	at,zero,0x8
  a0:	01012e0a 	0x1012e0a
  a4:	030c3f13 	0x30c3f13
  a8:	3b0b3a0e 	xori	t3,t8,0x3a0e
  ac:	490c270b 	0x490c270b
  b0:	12011113 	beq	s0,at,4500 <SunQuan-0xa081bb00>
  b4:	06408101 	bltz	s2,fffe04bc <_gp+0x5f7b753c>
  b8:	00000a40 	sll	at,zero,0x9
  bc:	0b000f0b 	j	c003c2c <SunQuan-0x9481c3d4>
  c0:	0013490b 	0x13490b
  c4:	00260c00 	0x260c00
  c8:	00001349 	0x1349
  cc:	0b000f0d 	j	c003c34 <SunQuan-0x9481c3cc>
  d0:	0000000b 	0xb
Disassembly of section .debug_info.2:

00000000 <.debug_info.2>:
   0:	0000033c 	dsll32	zero,zero,0xc
   4:	00000002 	srl	zero,zero,0x0
   8:	01040000 	0x1040000
   c:	00000000 	nop
  10:	a082028c 	sb	v0,652(a0)
  14:	a0820120 	sb	v0,288(a0)
  18:	00000024 	and	zero,zero,zero
  1c:	0000d501 	0xd501
  20:	00000000 	nop
  24:	00460200 	0x460200
  28:	06010000 	bgez	s0,2c <SunQuan-0xa081ffd4>
  2c:	0000ac02 	srl	s5,zero,0x10
  30:	02050200 	0x2050200
  34:	0000009c 	0x9c
  38:	97020504 	lhu	v0,1284(t8)
  3c:	08000000 	j	0 <SunQuan-0xa0820000>
  40:	00440205 	0x440205
  44:	08010000 	j	40000 <SunQuan-0xa07e0000>
  48:	00005202 	srl	t2,zero,0x8
  4c:	02070200 	0x2070200
  50:	00000074 	teq	zero,zero,0x1
  54:	6f020704 	ldr	v0,1796(t8)
  58:	08000000 	j	0 <SunQuan-0xa0820000>
  5c:	00330307 	0x330307
  60:	47020000 	c1	0x1020000
  64:	00000068 	0x68
  68:	746e6904 	jalx	1b9a410 <SunQuan-0x9ec85bf0>
  6c:	03050400 	0x3050400
  70:	00000090 	0x90
  74:	00684802 	0x684802
  78:	01050000 	0x1050000
  7c:	00000140 	sll	zero,zero,0x5
  80:	20010b01 	addi	at,zero,2817
  84:	34a08201 	ori	zero,a1,0x8201
  88:	48a08201 	0x48a08201
  8c:	01000000 	0x1000000
  90:	4601056d 	c1	0x1056d
  94:	01000001 	0x1000001
  98:	0134010f 	0x134010f
  9c:	0148a082 	0x148a082
  a0:	0058a082 	0x58a082
  a4:	6d010000 	ldr	at,0(t0)
  a8:	00ce0106 	0xce0106
  ac:	13010000 	beq	t8,at,b0 <SunQuan-0xa081ff50>
  b0:	00006801 	0x6801
  b4:	82014800 	lb	at,18432(s0)
  b8:	82015ca0 	lb	at,23712(s0)
  bc:	000068a0 	0x68a0
  c0:	076d0100 	0x76d0100
  c4:	000000ec 	0xec
  c8:	00014b01 	0x14b01
  cc:	01170100 	0x1170100
  d0:	a082015c 	sb	v0,348(a0)
  d4:	a0820170 	sb	v0,368(a0)
  d8:	00000078 	dsll	zero,zero,0x1
  dc:	ff086d01 	sd	t0,27905(t8)
  e0:	01000000 	0x1000000
  e4:	00006817 	dsrav	t5,zero,zero
  e8:	00540100 	0x540100
  ec:	01370105 	0x1370105
  f0:	1b010000 	0x1b010000
  f4:	82017001 	lb	at,28673(s0)
  f8:	820184a0 	lb	at,-31584(s0)
  fc:	000088a0 	0x88a0
 100:	076d0100 	0x76d0100
 104:	0000012a 	0x12a
 108:	00015801 	0x15801
 10c:	011f0100 	0x11f0100
 110:	a0820184 	sb	v0,388(a0)
 114:	a08201a0 	sb	v0,416(a0)
 118:	00000098 	0x98
 11c:	63096d01 	daddi	t1,t8,27905
 120:	2a1f0100 	slti	ra,s0,256
 124:	01000001 	0x1000001
 128:	4d020054 	bc3fl	27c <SunQuan-0xa081fd84>
 12c:	01000000 	0x1000000
 130:	11010606 	beq	t0,at,194c <SunQuan-0xa081e6b4>
 134:	01000001 	0x1000001
 138:	00680124 	0x680124
 13c:	01a00000 	0x1a00000
 140:	01b4a082 	0x1b4a082
 144:	00a8a082 	0xa8a082
 148:	6d010000 	ldr	at,0(t0)
 14c:	00017307 	0x17307
 150:	01260100 	0x1260100
 154:	29010000 	slti	at,t0,0
 158:	8201b401 	lb	at,-19455(s0)
 15c:	8201c8a0 	lb	at,-14176(s0)
 160:	0000b8a0 	0xb8a0
 164:	096d0100 	j	5b40400 <SunQuan-0x9acdfc00>
 168:	29010070 	slti	at,t0,112
 16c:	00000068 	0x68
 170:	0a005401 	j	8015004 <SunQuan-0x9880affc>
 174:	000001b8 	dsll	zero,zero,0x6
 178:	0000e301 	0xe301
 17c:	012d0100 	0x12d0100
 180:	00000068 	0x68
 184:	a08201c8 	sb	v0,456(a0)
 188:	a08201e4 	sb	v0,484(a0)
 18c:	000000c8 	0xc8
 190:	32086d01 	andi	t0,s0,0x6d01
 194:	01000001 	0x1000001
 198:	0000682d 	move	t5,zero
 19c:	09540100 	j	5500400 <SunQuan-0x9b31fc00>
 1a0:	006c6f63 	0x6c6f63
 1a4:	00682d01 	0x682d01
 1a8:	52010000 	beql	s0,at,1ac <SunQuan-0xa081fe54>
 1ac:	01006309 	0x1006309
 1b0:	00012a2d 	0x12a2d
 1b4:	00570100 	0x570100
 1b8:	0001e50a 	0x1e50a
 1bc:	00ee0100 	0xee0100
 1c0:	33010000 	andi	at,t8,0x0
 1c4:	00005d01 	0x5d01
 1c8:	8201e400 	lb	at,-7168(s0)
 1cc:	8201f8a0 	lb	at,-1888(s0)
 1d0:	0000d8a0 	0xd8a0
 1d4:	086d0100 	j	1b40400 <SunQuan-0x9ecdfc00>
 1d8:	0000011d 	0x11d
 1dc:	01e53201 	0x1e53201
 1e0:	54010000 	bnel	zero,at,1e4 <SunQuan-0xa081fe1c>
 1e4:	eb040b00 	swc2	$4,2816(t8)
 1e8:	0c000001 	jal	4 <SunQuan-0xa081fffc>
 1ec:	0000012a 	0x12a
 1f0:	00021d0a 	0x21d0a
 1f4:	00fa0100 	0xfa0100
 1f8:	38010000 	xori	at,zero,0x0
 1fc:	00006801 	0x6801
 200:	8201f800 	lb	at,-2048(s0)
 204:	82020ca0 	lb	v0,3232(s0)
 208:	0000e8a0 	0xe8a0
 20c:	096d0100 	j	5b40400 <SunQuan-0x9acdfc00>
 210:	00646970 	tge	v1,a0,0x1a5
 214:	005d3701 	0x5d3701
 218:	54010000 	bnel	zero,at,21c <SunQuan-0xa081fde4>
 21c:	024a0a00 	0x24a0a00
 220:	0c010000 	jal	40000 <SunQuan-0xa07e0000>
 224:	01000001 	0x1000001
 228:	0068013d 	0x68013d
 22c:	020c0000 	0x20c0000
 230:	0220a082 	0x220a082
 234:	00f8a082 	0xf8a082
 238:	6d010000 	ldr	at,0(t0)
 23c:	64697009 	daddiu	t1,v1,28681
 240:	5d3c0100 	0x5d3c0100
 244:	01000000 	0x1000000
 248:	770a0054 	jalx	c280150 <SunQuan-0x9459feb0>
 24c:	01000002 	0x1000002
 250:	000000b6 	tne	zero,zero,0x2
 254:	6f014301 	ldr	at,17153(t8)
 258:	20000000 	addi	zero,zero,0
 25c:	34a08202 	ori	zero,a1,0x8202
 260:	08a08202 	j	2820808 <SunQuan-0x9dfff7f8>
 264:	01000001 	0x1000001
 268:	0121086d 	0x121086d
 26c:	42010000 	c0	0x10000
 270:	000001e5 	0x1e5
 274:	07005401 	bltz	t8,1527c <SunQuan-0xa080ad84>
 278:	000002a0 	0x2a0
 27c:	00016501 	0x16501
 280:	01480100 	0x1480100
 284:	a0820234 	sb	v0,564(a0)
 288:	a0820248 	sb	v0,584(a0)
 28c:	00000118 	0x118
 290:	de086d01 	ld	t0,27905(s0)
 294:	01000000 	0x1000000
 298:	00006f47 	0x6f47
 29c:	00540100 	0x540100
 2a0:	0002e307 	0x2e307
 2a4:	00650100 	0x650100
 2a8:	4d010000 	bc3t	2ac <SunQuan-0xa081fd54>
 2ac:	82024801 	lb	v0,18433(s0)
 2b0:	820260a0 	lb	v0,24736(s0)
 2b4:	000128a0 	0x128a0
 2b8:	086d0100 	j	1b40400 <SunQuan-0x9ecdfc00>
 2bc:	000000de 	0xde
 2c0:	006f4c01 	0x6f4c01
 2c4:	54010000 	bnel	zero,at,2c8 <SunQuan-0xa081fd38>
 2c8:	67736d09 	daddiu	s3,k1,27913
 2cc:	e34c0100 	sc	t4,256(k0)
 2d0:	01000002 	0x1000002
 2d4:	01510852 	0x1510852
 2d8:	4c010000 	mfc3	at,$0
 2dc:	00000068 	0x68
 2e0:	0d005701 	jal	4015c04 <SunQuan-0x9c80a3fc>
 2e4:	03280704 	0x3280704
 2e8:	86010000 	lh	at,0(s0)
 2ec:	01000000 	0x1000000
 2f0:	02600152 	0x2600152
 2f4:	0278a082 	0x278a082
 2f8:	0138a082 	0x138a082
 2fc:	6d010000 	ldr	at,0(t0)
 300:	0000de08 	0xde08
 304:	6f510100 	ldr	s1,256(k0)
 308:	01000000 	0x1000000
 30c:	736d0954 	0x736d0954
 310:	51010067 	beql	t0,at,4b0 <SunQuan-0xa081fb50>
 314:	000002e3 	0x2e3
 318:	51085201 	beql	t0,t0,14b20 <SunQuan-0xa080b4e0>
 31c:	01000001 	0x1000001
 320:	00006851 	0x6851
 324:	00570100 	0x570100
 328:	00f40105 	0xf40105
 32c:	57010000 	bnel	t8,at,330 <SunQuan-0xa081fcd0>
 330:	82027801 	lb	v0,30721(s0)
 334:	82028ca0 	lb	v0,-29536(s0)
 338:	000148a0 	0x148a0
 33c:	006d0100 	0x6d0100
Disassembly of section .debug_line.3:

00000000 <.debug_line.3>:
   0:	00000063 	0x63
   4:	002b0002 	0x2b0002
   8:	01010000 	0x1010000
   c:	000d0efb 	dsra	at,t5,0x1b
  10:	01010101 	0x1010101
  14:	01000000 	0x1000000
  18:	00010000 	sll	zero,at,0x0
  1c:	6c737973 	ldr	s3,31091(v1)
  20:	632e6269 	daddi	t6,t9,25193
  24:	00000000 	nop
  28:	6d6d6f63 	ldr	t5,28515(t3)
  2c:	682e6e6f 	ldl	t6,28271(at)
  30:	00000000 	nop
  34:	02050000 	0x2050000
  38:	a0820120 	sb	v0,288(a0)
  3c:	08010b03 	j	42c0c <SunQuan-0xa07dd3f4>
  40:	08400840 	j	1002100 <SunQuan-0x9f81df00>
  44:	08400840 	j	1002100 <SunQuan-0x9f81df00>
  48:	4108833f 	0x4108833f
  4c:	3f084108 	0x3f084108
  50:	c04b4983 	ll	t3,18819(v0)
  54:	41084108 	0x41084108
  58:	41084208 	0x41084208
  5c:	f6834008 	sdc1	$f3,16392(s4)
  60:	1402f783 	bne	zero,v0,ffffde70 <_gp+0x5f7d4ef0>
  64:	Address 0x0000000000000064 is out of bounds.

Disassembly of section .debug_line.4:

00000000 <.debug_line.4>:
   0:	0000003b 	dsra	zero,zero,0x0
   4:	00200002 	0x200002
   8:	01010000 	0x1010000
   c:	000d0efb 	dsra	at,t5,0x1b
  10:	01010101 	0x1010101
  14:	01000000 	0x1000000
  18:	00010000 	sll	zero,at,0x0
  1c:	63737973 	daddi	s3,k1,31091
  20:	2e6c6c61 	sltiu	t4,s3,27745
  24:	00000053 	0x53
  28:	05000000 	bltz	t0,2c <SunQuan-0xa081ffd4>
  2c:	82029002 	lb	v0,-28670(s0)
  30:	4b4b15a0 	c2	0x14b15a0
  34:	4b4b4b4b 	c2	0x14b4b4b
  38:	08024c4c 	j	93130 <SunQuan-0xa078ced0>
  3c:	Address 0x000000000000003c is out of bounds.

Disassembly of section .debug_info.5:

00000000 <.debug_info.5>:
   0:	00000050 	0x50
   4:	00000002 	srl	zero,zero,0x0
   8:	01040000 	0x1040000
   c:	00000000 	nop
  10:	a0820290 	sb	v0,656(a0)
  14:	a08202b8 	sb	v0,696(a0)
  18:	63737973 	daddi	s3,k1,31091
  1c:	2e6c6c61 	sltiu	t4,s3,27745
  20:	682f0053 	ldl	t7,83(at)
  24:	2f656d6f 	sltiu	a1,k1,28015
  28:	2f757473 	sltiu	s5,k1,29811
  2c:	502f534f 	beql	at,t7,14d6c <SunQuan-0xa080b294>
  30:	72702f34 	0x72702f34
  34:	63656a6f 	daddi	a1,k1,27247
  38:	735f3474 	0x735f3474
  3c:	74726174 	jalx	1c985d0 <SunQuan-0x9eb87a30>
  40:	646f635f 	daddiu	t7,v1,25439
  44:	4e470065 	c3	0x470065
  48:	53412055 	beql	k0,at,81a0 <SunQuan-0xa0817e60>
  4c:	312e3220 	andi	t6,t1,0x3220
  50:	80010037 	lb	at,55(zero)
Disassembly of section .debug_abbrev.6:

00000000 <.debug_abbrev.6>:
   0:	10001101 	b	4408 <SunQuan-0xa081bbf8>
   4:	12011106 	beq	s0,at,4420 <SunQuan-0xa081bbe0>
   8:	1b080301 	0x1b080301
   c:	13082508 	beq	t8,t0,9430 <SunQuan-0xa0816bd0>
  10:	00000005 	0x5
Disassembly of section .debug_abbrev.7:

00000000 <.debug_abbrev.7>:
   0:	10011101 	beq	zero,at,4408 <SunQuan-0xa081bbf8>
   4:	11011206 	beq	t0,at,4820 <SunQuan-0xa081b7e0>
   8:	130e2501 	beq	t8,t6,9410 <SunQuan-0xa0816bf0>
   c:	1b0e030b 	0x1b0e030b
  10:	0200000e 	0x200000e
  14:	0e030024 	jal	80c0090 <SunQuan-0x9875ff70>
  18:	0b3e0b0b 	j	cf82c2c <SunQuan-0x9389d3d4>
  1c:	16030000 	bne	s0,v1,20 <SunQuan-0xa081ffe0>
  20:	3a0e0300 	xori	t6,s0,0x300
  24:	490b3b0b 	0x490b3b0b
  28:	04000013 	bltz	zero,78 <SunQuan-0xa081ff88>
  2c:	08030024 	j	c0090 <SunQuan-0xa075ff70>
  30:	0b3e0b0b 	j	cf82c2c <SunQuan-0x9389d3d4>
  34:	2e050000 	sltiu	a1,s0,0
  38:	3f130101 	0x3f130101
  3c:	3a0e030c 	xori	t6,s0,0x30c
  40:	270b3b0b 	addiu	t3,t8,15115
  44:	1201110c 	beq	s0,at,4478 <SunQuan-0xa081bb88>
  48:	06408101 	bltz	s2,fffe0450 <_gp+0x5f7b74d0>
  4c:	00000a40 	sll	at,zero,0x9
  50:	03000506 	0x3000506
  54:	3b0b3a08 	xori	t3,t8,0x3a08
  58:	0213490b 	0x213490b
  5c:	0700000a 	bltz	t8,88 <SunQuan-0xa081ff78>
  60:	08030034 	j	c00d0 <SunQuan-0xa075ff30>
  64:	0b3b0b3a 	j	cec2ce8 <SunQuan-0x9395d318>
  68:	0a021349 	j	8084d24 <SunQuan-0x9879b2dc>
  6c:	34080000 	li	t0,0x0
  70:	3a0e0300 	xori	t6,s0,0x300
  74:	490b3b0b 	0x490b3b0b
  78:	000a0213 	0xa0213
  7c:	000f0900 	sll	at,t7,0x4
  80:	13490b0b 	beq	k0,t1,2cb0 <SunQuan-0xa081d350>
  84:	050a0000 	tlti	t0,0
  88:	3a0e0300 	xori	t6,s0,0x300
  8c:	490b3b0b 	0x490b3b0b
  90:	000a0213 	0xa0213
  94:	012e0b00 	0x12e0b00
  98:	0c3f1301 	jal	fc4c04 <SunQuan-0x9f85b3fc>
  9c:	0b3a0e03 	j	ce8380c <SunQuan-0x9399c7f4>
  a0:	0c270b3b 	jal	9c2cec <SunQuan-0x9fe5d314>
  a4:	01111349 	0x1111349
  a8:	40810112 	0x40810112
  ac:	000a4006 	srlv	t0,t2,zero
  b0:	00260c00 	0x260c00
  b4:	00001349 	0x1349
  b8:	0101010d 	break	0x101,0x4
  bc:	00134913 	0x134913
  c0:	00210e00 	0x210e00
  c4:	0b2f1349 	j	cbc4d24 <SunQuan-0x93c5b2dc>
  c8:	340f0000 	li	t7,0x0
  cc:	3a080300 	xori	t0,s0,0x300
  d0:	490b3b0b 	0x490b3b0b
  d4:	10000013 	b	124 <SunQuan-0xa081fedc>
  d8:	0111010b 	0x111010b
  dc:	00000112 	0x112
  e0:	01012e11 	0x1012e11
  e4:	030c3f13 	0x30c3f13
  e8:	3b0b3a0e 	xori	t3,t8,0x3a0e
  ec:	490c2705 	0x490c2705
  f0:	12011113 	beq	s0,at,4540 <SunQuan-0xa081bac0>
  f4:	06408101 	bltz	s2,fffe04fc <_gp+0x5f7b757c>
  f8:	00000a40 	sll	at,zero,0x9
  fc:	03000512 	0x3000512
 100:	3b0b3a0e 	xori	t3,t8,0x3a0e
 104:	02134905 	0x2134905
 108:	1300000a 	beqz	t8,134 <SunQuan-0xa081fecc>
 10c:	0c3f002e 	jal	fc00b8 <SunQuan-0x9f85ff48>
 110:	0b3a0e03 	j	ce8380c <SunQuan-0x9399c7f4>
 114:	0c27053b 	jal	9c14ec <SunQuan-0x9fe5eb14>
 118:	01111349 	0x1111349
 11c:	40810112 	0x40810112
 120:	000a4006 	srlv	t0,t2,zero
 124:	00341400 	0x341400
 128:	0b3a0e03 	j	ce8380c <SunQuan-0x9399c7f4>
 12c:	13490b3b 	beq	k0,t1,2e1c <SunQuan-0xa081d1e4>
 130:	0a020c3f 	j	80830fc <SunQuan-0x9879cf04>
 134:	Address 0x0000000000000134 is out of bounds.

Disassembly of section .debug_info.8:

00000000 <.debug_info.8>:
   0:	0000070f 	0x70f
   4:	00000002 	srl	zero,zero,0x0
   8:	01040000 	0x1040000
   c:	00000000 	nop
  10:	a0820a2c 	sb	v0,2604(a0)
  14:	a08202c0 	sb	v0,704(a0)
  18:	00000024 	and	zero,zero,zero
  1c:	00019601 	0x19601
  20:	00000000 	nop
  24:	00460200 	0x460200
  28:	06010000 	bgez	s0,2c <SunQuan-0xa081ffd4>
  2c:	0000ac02 	srl	s5,zero,0x10
  30:	02050200 	0x2050200
  34:	0000009c 	0x9c
  38:	97020504 	lhu	v0,1284(t8)
  3c:	08000000 	j	0 <SunQuan-0xa0820000>
  40:	00440205 	0x440205
  44:	08010000 	j	40000 <SunQuan-0xa07e0000>
  48:	00005202 	srl	t2,zero,0x8
  4c:	03070200 	0x3070200
  50:	00000224 	0x224
  54:	005a4402 	0x5a4402
  58:	74020000 	jalx	80000 <SunQuan-0xa07a0000>
  5c:	04000000 	bltz	zero,60 <SunQuan-0xa081ffa0>
  60:	006f0207 	0x6f0207
  64:	07080000 	tgei	t8,0
  68:	746e6904 	jalx	1b9a410 <SunQuan-0x9ec85bf0>
  6c:	05050400 	0x5050400
  70:	000000ae 	0xae
  74:	00018d01 	0x18d01
  78:	010b0100 	0x10b0100
  7c:	a08202c0 	sb	v0,704(a0)
  80:	a0820300 	sb	v0,768(a0)
  84:	00000168 	0x168
  88:	73066d01 	0x73066d01
  8c:	ae0b0100 	sw	t3,256(s0)
  90:	01000000 	0x1000000
  94:	00690754 	0x690754
  98:	00680c01 	0x680c01
  9c:	53010000 	beql	t8,at,a0 <SunQuan-0xa081ff60>
  a0:	00027908 	0x27908
  a4:	5a0d0100 	0x5a0d0100
  a8:	01000000 	0x1000000
  ac:	04090052 	tgeiu	zero,82
  b0:	000000b4 	teq	zero,zero,0x2
  b4:	00004d02 	srl	t1,zero,0x14
  b8:	05060100 	0x5060100
  bc:	000000ef 	0xef
  c0:	00018101 	0x18101
  c4:	01240100 	0x1240100
  c8:	a0820300 	sb	v0,768(a0)
  cc:	a0820338 	sb	v0,824(a0)
  d0:	00000178 	dsll	zero,zero,0x5
  d4:	73066d01 	0x73066d01
  d8:	ae240100 	sw	a0,256(s1)
  dc:	01000000 	0x1000000
  e0:	01870a60 	0x1870a60
  e4:	24010000 	li	at,0
  e8:	000000ae 	0xae
  ec:	05005501 	bltz	t0,154f4 <SunQuan-0xa080ab0c>
  f0:	00000137 	0x137
  f4:	00022d01 	0x22d01
  f8:	012a0100 	0x12a0100
  fc:	a0820338 	sb	v0,824(a0)
 100:	a0820390 	sb	v0,912(a0)
 104:	00000194 	0x194
 108:	68076d01 	ldl	a3,27905(zero)
 10c:	412b0100 	0x412b0100
 110:	01000000 	0x1000000
 114:	00690755 	0x690755
 118:	00412b01 	0x412b01
 11c:	54010000 	bnel	zero,at,120 <SunQuan-0xa081fee0>
 120:	01006a07 	0x1006a07
 124:	0000412b 	0x412b
 128:	07530100 	bgezall	k0,52c <SunQuan-0xa081fad4>
 12c:	2b01006b 	slti	at,t8,107
 130:	00000041 	0x41
 134:	0b005201 	j	c014804 <SunQuan-0x9480b7fc>
 138:	0000017a 	dsrl	zero,zero,0x5
 13c:	00025001 	0x25001
 140:	01a70100 	0x1a70100
 144:	00000068 	0x68
 148:	a0820390 	sb	v0,912(a0)
 14c:	a08203b4 	sb	v0,948(a0)
 150:	000001a4 	0x1a4
 154:	73066d01 	0x73066d01
 158:	01007274 	teq	t0,zero,0x1c9
 15c:	00017aa6 	0x17aa6
 160:	07540100 	0x7540100
 164:	a8010073 	swl	at,115(zero)
 168:	000000ae 	0xae
 16c:	6e075401 	ldr	a3,21505(s0)
 170:	68a90100 	ldl	t1,256(a1)
 174:	01000000 	0x1000000
 178:	04090053 	tgeiu	zero,83
 17c:	00000180 	sll	zero,zero,0x6
 180:	0000b40c 	syscall	0x2d0
 184:	01de0500 	0x1de0500
 188:	10010000 	beq	zero,at,18c <SunQuan-0xa081fe74>
 18c:	01000002 	0x1000002
 190:	03b40156 	0x3b40156
 194:	0434a082 	0x434a082
 198:	01b4a082 	0x1b4a082
 19c:	6d010000 	ldr	at,0(t0)
 1a0:	0001320a 	0x1320a
 1a4:	68550100 	ldl	s5,256(v0)
 1a8:	01000000 	0x1000000
 1ac:	6f630664 	ldr	v1,1636(k1)
 1b0:	5501006c 	bnel	t0,at,364 <SunQuan-0xa081fc9c>
 1b4:	00000068 	0x68
 1b8:	73066201 	0x73066201
 1bc:	01007274 	teq	t0,zero,0x1c9
 1c0:	0000ae55 	0xae55
 1c4:	07630100 	bgezl	k1,5c8 <SunQuan-0xa081fa38>
 1c8:	57010069 	bnel	t8,at,370 <SunQuan-0xa081fc90>
 1cc:	00000068 	0x68
 1d0:	6e076001 	ldr	a3,24577(s0)
 1d4:	68570100 	ldl	s7,256(v0)
 1d8:	01000000 	0x1000000
 1dc:	140b0061 	bne	zero,t3,364 <SunQuan-0xa081fc9c>
 1e0:	01000002 	0x1000002
 1e4:	0000021f 	0x21f
 1e8:	4f017101 	c3	0x1017101
 1ec:	34000000 	li	zero,0x0
 1f0:	8ca08204 	lw	zero,-32252(a1)
 1f4:	dca08204 	ld	zero,-32252(a1)
 1f8:	01000001 	0x1000001
 1fc:	0073066d 	0x73066d
 200:	00ae7001 	0xae7001
 204:	56010000 	bnel	s0,at,208 <SunQuan-0xa081fdf8>
 208:	01006e07 	0x1006e07
 20c:	00006872 	tlt	zero,zero,0x1a1
 210:	00570100 	0x570100
 214:	00025c05 	0x25c05
 218:	02430100 	0x2430100
 21c:	9b010000 	lwr	at,0(t8)
 220:	82048c01 	lb	a0,-29695(s0)
 224:	8204e4a0 	lb	a0,-7008(s0)
 228:	0001eca0 	0x1eca0
 22c:	066d0100 	0x66d0100
 230:	9a010073 	lwr	at,115(s0)
 234:	000000ae 	0xae
 238:	63076001 	daddi	a3,t8,24577
 23c:	689c0100 	ldl	gp,256(a0)
 240:	01000000 	0x1000000
 244:	00690756 	0x690756
 248:	00689c01 	0x689c01
 24c:	58010000 	0x58010000
 250:	01006a07 	0x1006a07
 254:	0000689c 	0x689c
 258:	00570100 	0x570100
 25c:	0002a405 	0x2a405
 260:	029e0100 	0x29e0100
 264:	8a010000 	lwl	at,0(s0)
 268:	8204e401 	lb	a0,-7167(s0)
 26c:	82053ca0 	lb	a1,15520(s0)
 270:	000208a0 	0x208a0
 274:	066d0100 	0x66d0100
 278:	8901006e 	lwl	at,110(t0)
 27c:	0000004f 	0x4f
 280:	73065401 	0x73065401
 284:	ae890100 	sw	t1,256(s4)
 288:	01000000 	0x1000000
 28c:	00690755 	0x690755
 290:	00688b01 	0x688b01
 294:	56010000 	bnel	s0,at,298 <SunQuan-0xa081fd68>
 298:	01006407 	0x1006407
 29c:	0000688b 	0x688b
 2a0:	00520100 	0x520100
 2a4:	00030b05 	0x30b05
 2a8:	026f0100 	0x26f0100
 2ac:	48010000 	mfc2	at,$0
 2b0:	82053c01 	lb	a1,15361(s0)
 2b4:	8205d4a0 	lb	a1,-11104(s0)
 2b8:	000218a0 	0x218a0
 2bc:	0a6d0100 	j	9b40400 <SunQuan-0x96cdfc00>
 2c0:	00000132 	tlt	zero,zero,0x4
 2c4:	00684701 	0x684701
 2c8:	54010000 	bnel	zero,at,2cc <SunQuan-0xa081fd34>
 2cc:	6c6f6306 	ldr	t7,25350(v1)
 2d0:	68470100 	ldl	a3,256(v0)
 2d4:	01000000 	0x1000000
 2d8:	756e0664 	jalx	5b81990 <SunQuan-0x9ac9e670>
 2dc:	4701006d 	c1	0x101006d
 2e0:	0000004f 	0x4f
 2e4:	69075601 	ldl	a3,22017(t0)
 2e8:	68490100 	ldl	t1,256(v0)
 2ec:	01000000 	0x1000000
 2f0:	006e0760 	0x6e0760
 2f4:	00684901 	0x684901
 2f8:	61010000 	daddi	at,t0,0
 2fc:	66756207 	daddiu	s5,s3,25095
 300:	0b4a0100 	j	d280400 <SunQuan-0x9359fc00>
 304:	02000003 	0x2000003
 308:	0d001091 	jal	4004244 <SunQuan-0x9c81bdbc>
 30c:	0000031b 	0x31b
 310:	000000b4 	teq	zero,zero,0x2
 314:	00031b0e 	0x31b0e
 318:	02000b00 	0x2000b00
 31c:	00000079 	0x79
 320:	5f050704 	0x5f050704
 324:	01000003 	0x1000003
 328:	0000021a 	0x21a
 32c:	d4017d01 	ldc1	$f1,32001(zero)
 330:	28a08205 	slti	zero,a1,-32251
 334:	40a08206 	0x40a08206
 338:	01000002 	0x1000002
 33c:	006e066d 	0x6e066d
 340:	004f7c01 	0x4f7c01
 344:	56010000 	bnel	s0,at,348 <SunQuan-0xa081fcb8>
 348:	01007306 	0x1007306
 34c:	0000ae7c 	dsll32	s5,zero,0x19
 350:	07550100 	0x7550100
 354:	7e010069 	0x7e010069
 358:	00000068 	0x68
 35c:	05005701 	bltz	t0,15f64 <SunQuan-0xa080a09c>
 360:	000003d3 	0x3d3
 364:	0001b301 	0x1b301
 368:	01340100 	0x1340100
 36c:	a0820628 	sb	v0,1576(a0)
 370:	a08206f0 	sb	v0,1776(a0)
 374:	00000250 	0x250
 378:	320a6d01 	andi	t2,s0,0x6d01
 37c:	01000001 	0x1000001
 380:	00006833 	tltu	zero,zero,0x1a0
 384:	06630100 	bgezl	s3,788 <SunQuan-0xa081f878>
 388:	006c6f63 	0x6c6f63
 38c:	00683301 	0x683301
 390:	61010000 	daddi	at,t0,0
 394:	6d756e06 	ldr	s5,28166(t3)
 398:	68330100 	ldl	s3,256(at)
 39c:	01000000 	0x1000000
 3a0:	00690756 	0x690756
 3a4:	00683501 	0x683501
 3a8:	60010000 	daddi	at,zero,0
 3ac:	01006e07 	0x1006e07
 3b0:	00006835 	0x6835
 3b4:	08620100 	j	1880400 <SunQuan-0x9ef9fc00>
 3b8:	000001aa 	0x1aa
 3bc:	00683501 	0x683501
 3c0:	60010000 	daddi	at,zero,0
 3c4:	66756207 	daddiu	s5,s3,25095
 3c8:	0b360100 	j	cd80400 <SunQuan-0x93a9fc00>
 3cc:	02000003 	0x2000003
 3d0:	05001091 	bltz	t0,4618 <SunQuan-0xa081b9e8>
 3d4:	00000421 	0x421
 3d8:	0001f501 	0x1f501
 3dc:	01160100 	0x1160100
 3e0:	a08206f0 	sb	v0,1776(a0)
 3e4:	a082076c 	sb	v0,1900(a0)
 3e8:	00000278 	dsll	zero,zero,0x9
 3ec:	78066d01 	0x78066d01
 3f0:	68160100 	ldl	s6,256(zero)
 3f4:	01000000 	0x1000000
 3f8:	00790660 	0x790660
 3fc:	00681601 	0x681601
 400:	61010000 	daddi	at,t0,0
 404:	00029108 	0x29108
 408:	21180100 	addi	t8,t0,256
 40c:	02000004 	sllv	zero,zero,s0
 410:	df081091 	ld	t0,4241(t8)
 414:	01000001 	0x1000001
 418:	0004211e 	0x4211e
 41c:	30910200 	andi	s1,a0,0x200
 420:	04310d00 	bgezal	at,3824 <SunQuan-0xa081c7dc>
 424:	00b40000 	0xb40000
 428:	1b0e0000 	0x1b0e0000
 42c:	1f000003 	bgtz	t8,43c <SunQuan-0xa081fbc4>
 430:	049e0500 	0x49e0500
 434:	c7010000 	lwc1	$f1,0(t8)
 438:	01000001 	0x1000001
 43c:	076c0161 	teqi	k1,353
 440:	07d0a082 	bltzal	s8,fffe864c <_gp+0x5f7bf6cc>
 444:	0298a082 	0x298a082
 448:	6d010000 	ldr	at,0(t0)
 44c:	00025e0a 	0x25e0a
 450:	68600100 	ldl	zero,256(v1)
 454:	01000000 	0x1000000
 458:	028c0a54 	0x28c0a54
 45c:	60010000 	daddi	at,zero,0
 460:	00000068 	0x68
 464:	d40a5501 	ldc1	$f10,21761(zero)
 468:	01000001 	0x1000001
 46c:	00006860 	0x6860
 470:	0a560100 	j	9580400 <SunQuan-0x9729fc00>
 474:	00000204 	0x204
 478:	00686001 	0x686001
 47c:	62010000 	daddi	at,s0,0
 480:	0100690f 	0x100690f
 484:	00006862 	0x6862
 488:	006a0700 	0x6a0700
 48c:	00686201 	0x686201
 490:	60010000 	daddi	at,zero,0
 494:	01006b0f 	0x1006b0f
 498:	00006862 	0x6862
 49c:	f00b0000 	scd	t3,0(zero)
 4a0:	01000004 	sllv	zero,zero,t0
 4a4:	00000263 	0x263
 4a8:	6801b101 	ldl	at,-20223(zero)
 4ac:	d0000000 	lld	zero,0(zero)
 4b0:	4ca08207 	0x4ca08207
 4b4:	b8a08208 	swr	zero,-32248(a1)
 4b8:	01000002 	0x1000002
 4bc:	01bd0a6d 	0x1bd0a6d
 4c0:	b0010000 	sdl	at,0(zero)
 4c4:	0000017a 	dsrl	zero,zero,0x5
 4c8:	c20a5401 	ll	t2,21505(s0)
 4cc:	01000001 	0x1000001
 4d0:	00017ab0 	tge	zero,at,0x1ea
 4d4:	07550100 	0x7550100
 4d8:	01003173 	tltu	t0,zero,0xc5
 4dc:	0000aeb3 	tltu	zero,zero,0x2ba
 4e0:	07540100 	0x7540100
 4e4:	01003273 	tltu	t0,zero,0xc9
 4e8:	0000aeb4 	teq	zero,zero,0x2ba
 4ec:	00570100 	0x570100
 4f0:	00053105 	0x53105
 4f4:	019d0100 	0x19d0100
 4f8:	bf010000 	cache	0x1,0(t8)
 4fc:	82084c01 	lb	t0,19457(s0)
 500:	820890a0 	lb	t0,-28512(s0)
 504:	0002c8a0 	0x2c8a0
 508:	066d0100 	0x66d0100
 50c:	00727473 	tltu	v1,s2,0x1d1
 510:	00aebf01 	0xaebf01
 514:	60010000 	daddi	at,zero,0
 518:	0001ee08 	0x1ee08
 51c:	68c00100 	ldl	zero,256(a2)
 520:	01000000 	0x1000000
 524:	00690754 	0x690754
 528:	0068c101 	0x68c101
 52c:	53010000 	beql	t8,at,530 <SunQuan-0xa081fad0>
 530:	059a0b00 	0x59a0b00
 534:	57010000 	bnel	t8,at,538 <SunQuan-0xa081fac8>
 538:	01000002 	0x1000002
 53c:	006801c6 	0x6801c6
 540:	08900000 	j	2400000 <SunQuan-0x9e420000>
 544:	0910a082 	j	4428208 <SunQuan-0x9c3f7df8>
 548:	02e4a082 	0x2e4a082
 54c:	6d010000 	ldr	at,0(t0)
 550:	00017c0a 	0x17c0a
 554:	aec60100 	sw	a2,256(s6)
 558:	01000000 	0x1000000
 55c:	01e90a62 	0x1e90a62
 560:	c6010000 	lwc1	$f1,0(s0)
 564:	0000017a 	dsrl	zero,zero,0x5
 568:	78086101 	0x78086101
 56c:	01000001 	0x1000001
 570:	000068c8 	0x68c8
 574:	08600100 	j	1800400 <SunQuan-0x9f01fc00>
 578:	000001e5 	0x1e5
 57c:	0068c901 	0x68c901
 580:	52010000 	beql	s0,at,584 <SunQuan-0xa081fa7c>
 584:	8208cc10 	lb	t0,-13296(s0)
 588:	8208f0a0 	lb	t0,-3936(s0)
 58c:	006907a0 	0x6907a0
 590:	0068ce01 	0x68ce01
 594:	55010000 	bnel	t0,at,598 <SunQuan-0xa081fa68>
 598:	ec0b0000 	swc3	$11,0(zero)
 59c:	01000005 	0x1000005
 5a0:	00000170 	tge	zero,zero,0x5
 5a4:	6801d501 	ldl	at,-11007(zero)
 5a8:	10000000 	b	5ac <SunQuan-0xa081fa54>
 5ac:	48a08209 	0x48a08209
 5b0:	08a08209 	j	2820824 <SunQuan-0x9dfff7dc>
 5b4:	01000003 	0x1000003
 5b8:	017c0a6d 	0x17c0a6d
 5bc:	d5010000 	ldc1	$f1,0(t0)
 5c0:	000000ae 	0xae
 5c4:	e90a5801 	swc2	$10,22529(t0)
 5c8:	01000001 	0x1000001
 5cc:	00017ad5 	0x17ad5
 5d0:	0a550100 	j	9540400 <SunQuan-0x972dfc00>
 5d4:	0000027e 	dsrl32	zero,zero,0x9
 5d8:	0068d501 	0x68d501
 5dc:	56010000 	bnel	s0,at,5e0 <SunQuan-0xa081fa20>
 5e0:	01006907 	0x1006907
 5e4:	000068d9 	0x68d9
 5e8:	00570100 	0x570100
 5ec:	00063a05 	0x63a05
 5f0:	023d0100 	0x23d0100
 5f4:	e4010000 	swc1	$f1,0(zero)
 5f8:	82094801 	lb	t1,18433(s0)
 5fc:	8209b0a0 	lb	t1,-20320(s0)
 600:	000318a0 	0x318a0
 604:	0a6d0100 	j	9b40400 <SunQuan-0x96cdfc00>
 608:	00000209 	0x209
 60c:	00aee301 	0xaee301
 610:	58010000 	0x58010000
 614:	0002970a 	0x2970a
 618:	aee30100 	sw	v1,256(s7)
 61c:	01000000 	0x1000000
 620:	027e0a55 	0x27e0a55
 624:	e3010000 	sc	at,0(t8)
 628:	00000068 	0x68
 62c:	69075601 	ldl	a3,22017(t0)
 630:	68e50100 	ldl	a1,256(a3)
 634:	01000000 	0x1000000
 638:	7b050057 	0x7b050057
 63c:	01000006 	srlv	zero,zero,t0
 640:	000001d9 	0x1d9
 644:	b001f501 	sdl	at,-2815(zero)
 648:	d4a08209 	ldc1	$f0,-32247(a1)
 64c:	28a08209 	slti	zero,a1,-32247
 650:	01000003 	0x1000003
 654:	02ab0a6d 	0x2ab0a6d
 658:	f4010000 	sdc1	$f1,0(zero)
 65c:	000000ae 	0xae
 660:	7e0a5401 	0x7e0a5401
 664:	01000002 	0x1000002
 668:	000068f4 	teq	zero,zero,0x1a3
 66c:	07550100 	0x7550100
 670:	f6010069 	sdc1	$f1,105(s0)
 674:	00000068 	0x68
 678:	05005601 	bltz	t0,15e80 <SunQuan-0xa080a180>
 67c:	000006a4 	0x6a4
 680:	0002a501 	0x2a501
 684:	01ff0100 	0x1ff0100
 688:	a08209d4 	sb	v0,2516(a0)
 68c:	a08209e0 	sb	v0,2528(a0)
 690:	00000338 	dsll	zero,zero,0xc
 694:	4b0a6d01 	c2	0x10a6d01
 698:	01000002 	0x1000002
 69c:	00004ffe 	dsrl32	t1,zero,0x1f
 6a0:	00540100 	0x540100
 6a4:	0006d311 	0x6d311
 6a8:	02b00100 	0x2b00100
 6ac:	0e010000 	jal	8040000 <SunQuan-0x987e0000>
 6b0:	004f0101 	0x4f0101
 6b4:	09e00000 	j	7800000 <SunQuan-0x99020000>
 6b8:	09fca082 	j	7f28208 <SunQuan-0x988f7df8>
 6bc:	0348a082 	0x348a082
 6c0:	6d010000 	ldr	at,0(t0)
 6c4:	00024b12 	0x24b12
 6c8:	010d0100 	0x10d0100
 6cc:	0000004f 	0x4f
 6d0:	13005401 	beqz	t8,156d8 <SunQuan-0xa080a928>
 6d4:	0002a601 	0x2a601
 6d8:	01050100 	0x1050100
 6dc:	00004f01 	0x4f01
 6e0:	8209fc00 	lb	t1,-1024(s0)
 6e4:	820a2ca0 	lb	t2,11424(s0)
 6e8:	000358a0 	0x358a0
 6ec:	146d0100 	bne	v1,t5,af0 <SunQuan-0xa081f510>
 6f0:	00000234 	teq	zero,zero,0x8
 6f4:	00680601 	0x680601
 6f8:	05010000 	bgez	t0,6fc <SunQuan-0xa081f904>
 6fc:	820f9003 	lb	t7,-28669(s0)
 700:	028308a0 	0x28308a0
 704:	fc010000 	sd	at,0(zero)
 708:	0000004f 	0x4f
 70c:	0f940305 	jal	e500c14 <SunQuan-0x9231f3ec>
 710:	Address 0x0000000000000710 is out of bounds.

Disassembly of section .debug_line.9:

00000000 <.debug_line.9>:
   0:	0000012d 	0x12d
   4:	00290002 	0x290002
   8:	01010000 	0x1010000
   c:	000d0efb 	dsra	at,t5,0x1b
  10:	01010101 	0x1010101
  14:	01000000 	0x1000000
  18:	00010000 	sll	zero,at,0x0
  1c:	6c697475 	ldr	t1,29813(v1)
  20:	0000632e 	0x632e
  24:	6f630000 	ldr	v1,0(k1)
  28:	6e6f6d6d 	ldr	t7,28013(s3)
  2c:	0000682e 	dneg	t5,zero
  30:	00000000 	nop
  34:	02c00205 	0x2c00205
  38:	1103a082 	beq	t0,v1,fffe8244 <_gp+0x5f7bf2c4>
  3c:	b84f4501 	swr	t7,17665(v0)
  40:	03824bf3 	tltu	gp,v0,0x12f
  44:	83f3f212 	lb	s3,-3566(ra)
  48:	4b790883 	c2	0x1790883
  4c:	3b084b4b 	xori	t0,t8,0x4b4b
  50:	81828182 	lb	v0,-32382(t4)
  54:	00fe0382 	0xfe0382
  58:	8549f3f2 	lh	t1,-3086(t2)
  5c:	827fa903 	lb	ra,-22269(s3)
  60:	3c0847bd 	lui	t0,0x47bd
  64:	f283bc4d 	scd	v1,-17331(s4)
  68:	18034a81 	0x18034a81
  6c:	48012802 	0x48012802
  70:	1448024c 	bne	v0,t0,9a4 <SunQuan-0xa081f65c>
  74:	bd822603 	cache	0x2,9731(t4)
  78:	494b3d08 	0x494b3d08
  7c:	48bc484b 	0x48bc484b
  80:	74086f03 	jalx	21bc0c <SunQuan-0xa06043f4>
  84:	7d854789 	0x7d854789
  88:	4a474c4c 	c2	0x474c4c
  8c:	83834986 	lb	v1,18822(gp)
  90:	7fb20383 	0x7fb20383
  94:	86464e82 	lh	a2,20098(s2)
  98:	bb84f646 	swr	a0,-2490(gp)
  9c:	4a81f2f3 	c2	0x81f2f3
  a0:	022c0384 	0x22c0384
  a4:	854a012c 	lh	t2,300(t2)
  a8:	132c024c 	beq	t9,t4,9dc <SunQuan-0xa081f624>
  ac:	af038383 	sw	v1,-31869(t8)
  b0:	4686827f 	c1	0x86827f
  b4:	834f3c08 	lb	t7,15368(k0)
  b8:	8483bc4c 	lh	v1,-17332(a0)
  bc:	4a81f2f3 	c2	0x81f2f3
  c0:	0f2c0284 	jal	cb00a10 <SunQuan-0x93d1f5f0>
  c4:	55033d08 	bnel	t0,v1,f4e8 <SunQuan-0xa0810b18>
  c8:	8381bb82 	lb	at,-17534(gp)
  cc:	4c84bb85 	0x4c84bb85
  d0:	83bb8448 	lb	k1,-31672(sp)
  d4:	0800c003 	j	3000c <SunQuan-0xa07efff4>
  d8:	f2474de4 	scd	a3,19940(s2)
  dc:	4cb9bb4d 	0x4cb9bb4d
  e0:	d6034a80 	ldc1	$f3,19072(s0)
  e4:	bae40800 	swr	a0,2048(s7)
  e8:	857f3c08 	lh	ra,15368(t3)
  ec:	b9bb7608 	swr	k1,30216(t5)
  f0:	bb897dbb 	swr	t1,32187(gp)
  f4:	162c02bc 	bne	s1,t4,be8 <SunQuan-0xa081f418>
  f8:	4a837608 	c2	0x837608
  fc:	83864abc 	lb	a2,19132(gp)
 100:	4b8582b9 	c2	0x18582b9
 104:	834fae08 	lb	t7,-20984(k0)
 108:	848482b9 	lh	a0,-32071(a0)
 10c:	85820903 	lh	v0,2307(t4)
 110:	b983834a 	swr	v1,-31926(t4)
 114:	b983f54a 	swr	v1,-2742(t4)
 118:	f20a0382 	scd	t2,898(s0)
 11c:	fa824983 	sdc2	$2,18819(s4)
 120:	08ba0f03 	j	2e83c0c <SunQuan-0x9d99c3f4>
 124:	8275033d 	lb	s5,829(s3)
 128:	bc4b8183 	cache	0xb,-32381(v0)
 12c:	01001002 	0x1001002
 130:	Address 0x0000000000000130 is out of bounds.

Disassembly of section .debug_abbrev.10:

00000000 <.debug_abbrev.10>:
   0:	10011101 	beq	zero,at,4408 <SunQuan-0xa081bbf8>
   4:	11011206 	beq	t0,at,4820 <SunQuan-0xa081b7e0>
   8:	130e2501 	beq	t8,t6,9410 <SunQuan-0xa0816bf0>
   c:	1b0e030b 	0x1b0e030b
  10:	0200000e 	0x200000e
  14:	0e030016 	jal	80c0058 <SunQuan-0x9875ffa8>
  18:	0b3b0b3a 	j	cec2ce8 <SunQuan-0x9395d318>
  1c:	00001349 	0x1349
  20:	03002403 	0x3002403
  24:	3e0b0b0e 	0x3e0b0b0e
  28:	0400000b 	bltz	zero,58 <SunQuan-0xa081ffa8>
  2c:	1301012e 	beq	t8,at,4e8 <SunQuan-0xa081fb18>
  30:	0b3a0e03 	j	ce8380c <SunQuan-0x9399c7f4>
  34:	0c270b3b 	jal	9c2cec <SunQuan-0x9fe5d314>
  38:	01120111 	0x1120111
  3c:	40064081 	0x40064081
  40:	0500000a 	bltz	t0,6c <SunQuan-0xa081ff94>
  44:	0e030005 	jal	80c0014 <SunQuan-0x9875ffec>
  48:	0b3b0b3a 	j	cec2ce8 <SunQuan-0x9395d318>
  4c:	0a021349 	j	8084d24 <SunQuan-0x9879b2dc>
  50:	05060000 	0x5060000
  54:	3a080300 	xori	t0,s0,0x300
  58:	490b3b0b 	0x490b3b0b
  5c:	000a0213 	0xa0213
  60:	010b0700 	0x10b0700
  64:	00000655 	0x655
  68:	3f012e08 	0x3f012e08
  6c:	3a0e030c 	xori	t6,s0,0x30c
  70:	490b3b0b 	0x490b3b0b
  74:	000c3c13 	0xc3c13
  78:	00180900 	sll	at,t8,0x4
  7c:	0f0a0000 	jal	c280000 <SunQuan-0x945a0000>
  80:	490b0b00 	0x490b0b00
  84:	0b000013 	j	c00004c <SunQuan-0x9481ffb4>
  88:	08030024 	j	c0090 <SunQuan-0xa075ff70>
  8c:	0b3e0b0b 	j	cf82c2c <SunQuan-0x9389d3d4>
  90:	340c0000 	li	t4,0x0
  94:	3a0e0300 	xori	t6,s0,0x300
  98:	490b3b0b 	0x490b3b0b
  9c:	000a0213 	0xa0213
  a0:	00340d00 	0x340d00
  a4:	0b3a0803 	j	ce8200c <SunQuan-0x9399dff4>
  a8:	13490b3b 	beq	k0,t1,2d98 <SunQuan-0xa081d268>
  ac:	00000a02 	srl	at,zero,0x8
  b0:	0101010e 	0x101010e
  b4:	00134913 	0x134913
  b8:	00210f00 	0x210f00
  bc:	0b2f1349 	j	cbc4d24 <SunQuan-0x93c5b2dc>
  c0:	2e100000 	sltiu	s0,s0,0
  c4:	3f130101 	0x3f130101
  c8:	3a0e030c 	xori	t6,s0,0x30c
  cc:	270b3b0b 	addiu	t3,t8,15115
  d0:	1201110c 	beq	s0,at,4504 <SunQuan-0xa081bafc>
  d4:	06408101 	bltz	s2,fffe04dc <_gp+0x5f7b755c>
  d8:	00000a40 	sll	at,zero,0x9
  dc:	01011d11 	0x1011d11
  e0:	11133113 	beq	t0,s3,c530 <SunQuan-0xa0813ad0>
  e4:	00011201 	0x11201
  e8:	00051200 	sll	v0,a1,0x8
  ec:	00001331 	tgeu	zero,zero,0x4c
  f0:	31000513 	andi	zero,t0,0x513
  f4:	000a0213 	0xa0213
  f8:	010b1400 	0x10b1400
  fc:	01120111 	0x1120111
 100:	34150000 	li	s5,0x0
 104:	02133100 	0x2133100
 108:	1600000a 	bnez	s0,134 <SunQuan-0xa081fecc>
 10c:	1331011d 	beq	t9,s1,584 <SunQuan-0xa081fa7c>
 110:	01120111 	0x1120111
 114:	2e170000 	sltiu	s7,s0,0
 118:	03130101 	0x3130101
 11c:	3b0b3a0e 	xori	t3,t8,0x3a0e
 120:	200c270b 	addi	t4,zero,9995
 124:	1800000b 	blez	zero,154 <SunQuan-0xa081feac>
 128:	0e030005 	jal	80c0014 <SunQuan-0x9875ffec>
 12c:	0b3b0b3a 	j	cec2ce8 <SunQuan-0x9395d318>
 130:	00001349 	0x1349
 134:	03000519 	0x3000519
 138:	3b0b3a08 	xori	t3,t8,0x3a08
 13c:	0013490b 	0x13490b
 140:	00341a00 	0x341a00
 144:	0b3a0803 	j	ce8200c <SunQuan-0x9399dff4>
 148:	13490b3b 	beq	k0,t1,2e38 <SunQuan-0xa081d1c8>
 14c:	2e1b0000 	sltiu	k1,s0,0
 150:	3a0e0301 	xori	t6,s0,0x301
 154:	270b3b0b 	addiu	t3,t8,15115
 158:	000b200c 	syscall	0x2c80
	...
Disassembly of section .debug_info.11:

00000000 <.debug_info.11>:
   0:	00000292 	0x292
   4:	00000002 	srl	zero,zero,0x0
   8:	01040000 	0x1040000
   c:	00000000 	nop
  10:	a0820e00 	sb	v0,3584(a0)
  14:	a0820a30 	sb	v0,2608(a0)
  18:	00000024 	and	zero,zero,zero
  1c:	00030401 	0x30401
  20:	00000000 	nop
  24:	02dc0200 	0x2dc0200
  28:	57010000 	bnel	t8,at,2c <SunQuan-0xa081ffd4>
  2c:	00000030 	tge	zero,zero
  30:	00007903 	sra	t7,zero,0x4
  34:	04070400 	0x4070400
  38:	0000008c 	syscall	0x2
  3c:	00000314 	0x314
  40:	30010701 	andi	at,zero,0x701
  44:	1ca0820a 	bgtz	a1,fffe0870 <_gp+0x5f7b78f0>
  48:	84a0820b 	lh	zero,-32245(a1)
  4c:	01000003 	0x1000003
  50:	0132056d 	0x132056d
  54:	06010000 	bgez	s0,58 <SunQuan-0xa081ffa8>
  58:	0000008c 	syscall	0x2
  5c:	63066101 	daddi	a2,t8,24833
  60:	01006c6f 	0x1006c6f
  64:	00008c06 	0x8c06
  68:	06600100 	bltz	s3,46c <SunQuan-0xa081fb94>
  6c:	06010063 	bgez	s0,1fc <SunQuan-0xa081fe04>
  70:	00000099 	0x99
  74:	00075601 	0x75601
  78:	08000000 	j	0 <SunQuan-0xa0820000>
  7c:	0000e301 	0xe301
  80:	92200100 	lbu	zero,256(s1)
  84:	01000000 	0x1000000
  88:	00000009 	jalr	zero,zero
  8c:	0092040a 	0x92040a
  90:	690b0000 	ldl	t3,0(t0)
  94:	0400746e 	bltz	zero,1d250 <SunQuan-0xa0802db0>
  98:	004d0305 	0x4d0305
  9c:	06010000 	bgez	s0,a0 <SunQuan-0xa081ff60>
  a0:	0000f904 	0xf904
  a4:	0002d300 	sll	k0,v0,0xc
  a8:	01260100 	0x1260100
  ac:	a0820b1c 	sb	v0,2844(a0)
  b0:	a0820bb4 	sb	v0,2996(a0)
  b4:	000003a4 	0x3a4
  b8:	32056d01 	andi	a1,s0,0x6d01
  bc:	01000001 	0x1000001
  c0:	00008c25 	0x8c25
  c4:	06620100 	bltzl	s3,4c8 <SunQuan-0xa081fb38>
  c8:	006c6f63 	0x6c6f63
  cc:	008c2501 	0x8c2501
  d0:	61010000 	daddi	at,t0,0
  d4:	01007506 	0x1007506
  d8:	0000f925 	0xf925
  dc:	0c560100 	jal	1580400 <SunQuan-0x9f29fc00>
  e0:	0000030d 	break	0x0,0xc
  e4:	01002701 	0x1002701
  e8:	91020000 	lbu	v0,0(t0)
  ec:	00700d10 	0x700d10
  f0:	01172801 	0x1172801
  f4:	60010000 	daddi	at,zero,0
  f8:	00790300 	0x790300
  fc:	07040000 	0x7040000
 100:	0001100e 	0x1100e
 104:	00009900 	sll	s3,zero,0x4
 108:	01100f00 	0x1100f00
 10c:	000f0000 	sll	zero,t7,0x0
 110:	00007903 	sra	t7,zero,0x4
 114:	0a070400 	j	81c1000 <SunQuan-0x9865f000>
 118:	00009904 	0x9904
 11c:	01fa1000 	0x1fa1000
 120:	c3010000 	ll	at,0(t8)
 124:	01000002 	0x1000002
 128:	0bb4015a 	j	ed00568 <SunQuan-0x91b1fa98>
 12c:	0e00a082 	jal	8028208 <SunQuan-0x987f7df8>
 130:	03c8a082 	0x3c8a082
 134:	6d010000 	ldr	at,0(t0)
 138:	00013205 	0x13205
 13c:	92590100 	lbu	t9,256(s2)
 140:	02000000 	0x2000000
 144:	63063891 	daddi	a2,t8,14481
 148:	01006c6f 	0x1006c6f
 14c:	00009259 	0x9259
 150:	3c910200 	0x3c910200
 154:	0002fd05 	0x2fd05
 158:	17590100 	bne	k0,t9,55c <SunQuan-0xa081faa4>
 15c:	03000001 	0x3000001
 160:	0900c091 	j	4030244 <SunQuan-0x9c7efdbc>
 164:	0002f40c 	syscall	0xbd0
 168:	fa5b0100 	sdc2	$27,256(s2)
 16c:	01000001 	0x1000001
 170:	00700d63 	0x700d63
 174:	01175c01 	0x1175c01
 178:	61010000 	daddi	at,t0,0
 17c:	00019d11 	0x19d11
 180:	00020000 	sll	zero,v0,0x0
 184:	820cfc00 	lb	t4,-1024(s0)
 188:	820d10a0 	lb	t5,4256(s0)
 18c:	020d12a0 	0x20d12a0
 190:	18120000 	0x18120000
 194:	12000002 	beqz	s0,1a0 <SunQuan-0xa081fe60>
 198:	00000223 	0x223
 19c:	01d81100 	0x1d81100
 1a0:	022d0000 	0x22d0000
 1a4:	0d200000 	jal	4800000 <SunQuan-0x9c020000>
 1a8:	0d74a082 	jal	5d28208 <SunQuan-0x9aaf7df8>
 1ac:	3a13a082 	xori	s3,s0,0xa082
 1b0:	01000002 	0x1000002
 1b4:	02451264 	0x2451264
 1b8:	50120000 	beql	zero,s2,1bc <SunQuan-0xa081fe44>
 1bc:	14000002 	bnez	zero,1c8 <SunQuan-0xa081fe38>
 1c0:	a0820d28 	sb	v0,3368(a0)
 1c4:	a0820d74 	sb	v0,3444(a0)
 1c8:	00025915 	0x25915
 1cc:	15600100 	bnez	t3,5d0 <SunQuan-0xa081fa30>
 1d0:	00000262 	0x262
 1d4:	00005601 	0x5601
 1d8:	00026c16 	0x26c16
 1dc:	820d7400 	lb	t5,29696(s0)
 1e0:	820da8a0 	lb	t5,-22368(s0)
 1e4:	027513a0 	0x27513a0
 1e8:	62010000 	daddi	at,s0,0
 1ec:	00028012 	0x28012
 1f0:	028b1300 	0x28b1300
 1f4:	60010000 	daddi	at,zero,0
 1f8:	040a0000 	tlti	zero,0
 1fc:	00000025 	move	zero,zero
 200:	00022d17 	0x22d17
 204:	0002ba00 	sll	s7,v0,0x8
 208:	01360100 	0x1360100
 20c:	01321801 	0x1321801
 210:	35010000 	ori	at,t0,0x0
 214:	0000008c 	syscall	0x2
 218:	6c6f6319 	ldr	t7,25369(v1)
 21c:	8c350100 	lw	s5,256(at)
 220:	19000000 	blez	t0,224 <SunQuan-0xa081fddc>
 224:	35010064 	ori	at,t0,0x64
 228:	00000092 	0x92
 22c:	026c1700 	0x26c1700
 230:	02eb0000 	0x2eb0000
 234:	47010000 	c1	0x1010000
 238:	32180101 	andi	t8,s0,0x101
 23c:	01000001 	0x1000001
 240:	00008c46 	0x8c46
 244:	6f631900 	ldr	v1,6400(k1)
 248:	4601006c 	c1	0x1006c
 24c:	0000008c 	syscall	0x2
 250:	01007819 	0x1007819
 254:	0000f946 	0xf946
 258:	00691a00 	0x691a00
 25c:	00924801 	0x924801
 260:	631a0000 	daddi	k0,t8,0
 264:	99490100 	lwr	t1,256(t2)
 268:	00000000 	nop
 26c:	0002ca1b 	0x2ca1b
 270:	01400100 	0x1400100
 274:	01321801 	0x1321801
 278:	3f010000 	0x3f010000
 27c:	0000008c 	syscall	0x2
 280:	6c6f6319 	ldr	t7,25369(v1)
 284:	8c3f0100 	lw	ra,256(at)
 288:	19000000 	blez	t0,28c <SunQuan-0xa081fd74>
 28c:	3f010073 	0x3f010073
 290:	00000117 	0x117
	...
Disassembly of section .debug_line.12:

00000000 <.debug_line.12>:
   0:	000000c4 	0xc4
   4:	001f0002 	srl	zero,ra,0x0
   8:	01010000 	0x1010000
   c:	000d0efb 	dsra	at,t5,0x1b
  10:	01010101 	0x1010101
  14:	01000000 	0x1000000
  18:	00010000 	sll	zero,at,0x0
  1c:	6e697270 	ldr	t1,29296(s3)
  20:	632e6674 	daddi	t6,t9,26228
  24:	00000000 	nop
  28:	02050000 	0x2050000
  2c:	a0820a30 	sb	v0,2608(a0)
  30:	bb49f318 	swr	t1,-3304(k0)
  34:	08820b03 	j	2082c0c <SunQuan-0x9e79d3f4>
  38:	820d0374 	lb	t5,884(s0)
  3c:	7003bcbb 	0x7003bcbb
  40:	f3853c08 	scd	a1,15368(gp)
  44:	82bb8182 	lb	k1,-32382(s5)
  48:	03820c03 	0x3820c03
  4c:	50bd8277 	beql	a1,sp,fffe0a2c <_gp+0x5f7b7aac>
  50:	3c086603 	lui	t0,0x6603
  54:	08821d03 	j	208740c <SunQuan-0x9e798bf4>
  58:	4d814fac 	0x4d814fac
  5c:	83142802 	lb	s4,10242(t8)
  60:	2a03b9bb 	slti	v1,s0,-17989
  64:	02012402 	0x2012402
  68:	82f71228 	lb	s7,4648(s7)
  6c:	834a3d08 	lb	t2,15624(k0)
  70:	1234024b 	beq	s1,s4,9a0 <SunQuan-0xa081f660>
  74:	02824584 	0x2824584
  78:	03821534 	teq	gp,v0,0x54
  7c:	82868214 	lb	a2,-32236(s4)
  80:	4a826503 	c2	0x826503
  84:	03153402 	0x3153402
  88:	864b8254 	lh	t3,-32172(s2)
  8c:	03823503 	0x3823503
  90:	6803826f 	ldl	v1,-32145(zero)
  94:	bc4b8682 	cache	0xb,-31102(v0)
  98:	85474d49 	lh	a3,19785(t2)
  9c:	034b4f45 	0x34b4f45
  a0:	1403ba7a 	bne	zero,v1,fffeea8c <_gp+0x5f7c5b0c>
  a4:	82610382 	lb	at,898(s3)
  a8:	814a3e08 	lb	t2,15880(t2)
  ac:	821e034a 	lb	s8,842(s0)
  b0:	0809038a 	j	240e28 <SunQuan-0xa05df1d8>
  b4:	086f033c 	j	1bc0cf0 <SunQuan-0x9ec5f310>
  b8:	8259033c 	lb	t9,828(s2)
  bc:	823703f3 	lb	s7,1011(s1)
  c0:	02826f03 	0x2826f03
  c4:	01010008 	0x1010008
Disassembly of section .debug_ranges:

00000000 <.debug_ranges>:
   0:	00000048 	0x48
   4:	00000060 	0x60
   8:	0000007c 	dsll32	zero,zero,0x1
   c:	000000d0 	0xd0
	...
