
kernel:     file format elf32-tradlittlemips

Disassembly of section .text:

a0800200 <_start>:
a0800200:	27bdffc0 	addiu	sp,sp,-64
a0800204:	afbf003c 	sw	ra,60(sp)
a0800208:	afbe0038 	sw	s8,56(sp)
a080020c:	afb70034 	sw	s7,52(sp)
a0800210:	afb60030 	sw	s6,48(sp)
a0800214:	afb5002c 	sw	s5,44(sp)
a0800218:	afb40028 	sw	s4,40(sp)
a080021c:	afb30024 	sw	s3,36(sp)
a0800220:	afb20020 	sw	s2,32(sp)
a0800224:	afb1001c 	sw	s1,28(sp)
a0800228:	0c2003ce 	jal	a0800f38 <asm_start>
a080022c:	afb00018 	sw	s0,24(sp)
a0800230:	00002821 	move	a1,zero
a0800234:	24060050 	li	a2,80
a0800238:	24070028 	li	a3,40
a080023c:	0c200d2f 	jal	a08034bc <clear_screen>
a0800240:	00002021 	move	a0,zero
a0800244:	3c02a080 	lui	v0,0xa080
a0800248:	0c200d9c 	jal	a0803670 <queue_init>
a080024c:	2444439c 	addiu	a0,v0,17308
a0800250:	3c04a080 	lui	a0,0xa080
a0800254:	0c200d9c 	jal	a0803670 <queue_init>
a0800258:	248443b0 	addiu	a0,a0,17328
a080025c:	3c06a080 	lui	a2,0xa080
a0800260:	3c02a080 	lui	v0,0xa080
a0800264:	244243c8 	addiu	v0,v0,17352
a0800268:	3c03a080 	lui	v1,0xa080
a080026c:	24c54830 	addiu	a1,a2,18480
a0800270:	3c04a080 	lui	a0,0xa080
a0800274:	ac6243a4 	sw	v0,17316(v1)
a0800278:	24840758 	addiu	a0,a0,1880
a080027c:	00a01821 	move	v1,a1
a0800280:	24020008 	li	v0,8
a0800284:	2442ffff 	addiu	v0,v0,-1
a0800288:	ac640000 	sw	a0,0(v1)
a080028c:	0441fffd 	bgez	v0,a0800284 <_start+0x84>
a0800290:	24630004 	addiu	v1,v1,4
a0800294:	3c02a080 	lui	v0,0xa080
a0800298:	24422a74 	addiu	v0,v0,10868
a080029c:	acc24830 	sw	v0,18480(a2)
a08002a0:	3c03a080 	lui	v1,0xa080
a08002a4:	3c02a080 	lui	v0,0xa080
a08002a8:	24630988 	addiu	v1,v1,2440
a08002ac:	24422a98 	addiu	v0,v0,10904
a08002b0:	aca30020 	sw	v1,32(a1)
a08002b4:	aca20004 	sw	v0,4(a1)
a08002b8:	3c03a080 	lui	v1,0xa080
a08002bc:	3c02a080 	lui	v0,0xa080
a08002c0:	24632c2c 	addiu	v1,v1,11308
a08002c4:	24422c74 	addiu	v0,v0,11380
a08002c8:	aca30008 	sw	v1,8(a1)
a08002cc:	aca2000c 	sw	v0,12(a1)
a08002d0:	3c03a080 	lui	v1,0xa080
a08002d4:	3c02a080 	lui	v0,0xa080
a08002d8:	24632ca8 	addiu	v1,v1,11432
a08002dc:	244228fc 	addiu	v0,v0,10492
a08002e0:	aca30010 	sw	v1,16(a1)
a08002e4:	aca20014 	sw	v0,20(a1)
a08002e8:	3c03a080 	lui	v1,0xa080
a08002ec:	3c02a080 	lui	v0,0xa080
a08002f0:	246308d4 	addiu	v1,v1,2260
a08002f4:	24420958 	addiu	v0,v0,2392
a08002f8:	aca30018 	sw	v1,24(a1)
a08002fc:	0c200de8 	jal	a08037a0 <init_interrupts>
a0800300:	aca2001c 	sw	v0,28(a1)
a0800304:	0c2002ff 	jal	a0800bfc <init_memory>
a0800308:	00009021 	move	s2,zero
a080030c:	3c03a080 	lui	v1,0xa080
a0800310:	3c024fff 	lui	v0,0x4fff
a0800314:	24744858 	addiu	s4,v1,18520
a0800318:	3456fffb 	ori	s6,v0,0xfffb
a080031c:	24150001 	li	s5,1
a0800320:	3c17a080 	lui	s7,0xa080
a0800324:	3c1ea080 	lui	s8,0xa080
a0800328:	00121840 	sll	v1,s2,0x1
a080032c:	3c05a080 	lui	a1,0xa080
a0800330:	00721021 	addu	v0,v1,s2
a0800334:	00122100 	sll	a0,s2,0x4
a0800338:	afa30010 	sw	v1,16(sp)
a080033c:	24a34300 	addiu	v1,a1,17152
a0800340:	00838821 	addu	s1,a0,v1
a0800344:	00021100 	sll	v0,v0,0x4
a0800348:	8e230000 	lw	v1,0(s1)
a080034c:	00521023 	subu	v0,v0,s2
a0800350:	8e24000c 	lw	a0,12(s1)
a0800354:	000210c0 	sll	v0,v0,0x3
a0800358:	00548021 	addu	s0,v0,s4
a080035c:	26530001 	addiu	s3,s2,1
a0800360:	ae030144 	sw	v1,324(s0)
a0800364:	ae130148 	sw	s3,328(s0)
a0800368:	ae04014c 	sw	a0,332(s0)
a080036c:	ae150160 	sw	s5,352(s0)
a0800370:	ae000150 	sw	zero,336(s0)
a0800374:	10800054 	beqz	a0,a08004c8 <_start+0x2c8>
a0800378:	ae000154 	sw	zero,340(s0)
a080037c:	14950078 	bne	a0,s5,a0800560 <_start+0x360>
a0800380:	3c04a080 	lui	a0,0xa080
a0800384:	8c8243c0 	lw	v0,17344(a0)
a0800388:	24420001 	addiu	v0,v0,1
a080038c:	0c200178 	jal	a08005e0 <kstack_new>
a0800390:	ac8243c0 	sw	v0,17344(a0)
a0800394:	3c05a080 	lui	a1,0xa080
a0800398:	8ca34334 	lw	v1,17204(a1)
a080039c:	ae02007c 	sw	v0,124(s0)
a08003a0:	02602021 	move	a0,s3
a08003a4:	24631000 	addiu	v1,v1,4096
a08003a8:	02c3102b 	sltu	v0,s6,v1
a08003ac:	1440004f 	bnez	v0,a08004ec <_start+0x2ec>
a08003b0:	aca34334 	sw	v1,17204(a1)
a08003b4:	3c05a080 	lui	a1,0xa080
a08003b8:	8ca34334 	lw	v1,17204(a1)
a08003bc:	8e220004 	lw	v0,4(s1)
a08003c0:	8e250008 	lw	a1,8(s1)
a08003c4:	ae000140 	sw	zero,320(s0)
a08003c8:	ae020170 	sw	v0,368(s0)
a08003cc:	ae030118 	sw	v1,280(s0)
a08003d0:	0c200328 	jal	a0800ca0 <setup_page_table>
a08003d4:	ae05016c 	sw	a1,364(s0)
a08003d8:	ae020168 	sw	v0,360(s0)
a08003dc:	8fa40010 	lw	a0,16(sp)
a08003e0:	3c03a080 	lui	v1,0xa080
a08003e4:	24620690 	addiu	v0,v1,1680
a08003e8:	00922821 	addu	a1,a0,s2
a08003ec:	00052900 	sll	a1,a1,0x4
a08003f0:	00b22823 	subu	a1,a1,s2
a08003f4:	3c03a080 	lui	v1,0xa080
a08003f8:	000528c0 	sll	a1,a1,0x3
a08003fc:	ae020084 	sw	v0,132(s0)
a0800400:	2464439c 	addiu	a0,v1,17308
a0800404:	0c200dab 	jal	a08036ac <enqueue>
a0800408:	00b42821 	addu	a1,a1,s4
a080040c:	2a620003 	slti	v0,s3,3
a0800410:	1440ffc5 	bnez	v0,a0800328 <_start+0x128>
a0800414:	02609021 	move	s2,s3
a0800418:	0c200b3c 	jal	a0802cf0 <get_timer>
a080041c:	00000000 	nop
a0800420:	0c200d84 	jal	a0803610 <srand>
a0800424:	00402021 	move	a0,v0
a0800428:	3c06a080 	lui	a2,0xa080
a080042c:	24c63ff4 	addiu	a2,a2,16372
a0800430:	24040001 	li	a0,1
a0800434:	0c2006a5 	jal	a0801a94 <printf>
a0800438:	24050001 	li	a1,1
a080043c:	0c2005f2 	jal	a08017c8 <enter_critical>
a0800440:	00000000 	nop
a0800444:	0c20034c 	jal	a0800d30 <scheduler_entry>
a0800448:	00000000 	nop
a080044c:	3c06a080 	lui	a2,0xa080
a0800450:	24c63fa8 	addiu	a2,a2,16296
a0800454:	00002021 	move	a0,zero
a0800458:	0c200c41 	jal	a0803104 <print_str>
a080045c:	00002821 	move	a1,zero
a0800460:	3c06a080 	lui	a2,0xa080
a0800464:	24c63ffc 	addiu	a2,a2,16380
a0800468:	00002021 	move	a0,zero
a080046c:	0c200c41 	jal	a0803104 <print_str>
a0800470:	24050013 	li	a1,19
a0800474:	3c06a080 	lui	a2,0xa080
a0800478:	24c63fd8 	addiu	a2,a2,16344
a080047c:	24040001 	li	a0,1
a0800480:	0c200c41 	jal	a0803104 <print_str>
a0800484:	00002821 	move	a1,zero
a0800488:	3c06a080 	lui	a2,0xa080
a080048c:	24c63fe0 	addiu	a2,a2,16352
a0800490:	24040001 	li	a0,1
a0800494:	0c200c41 	jal	a0803104 <print_str>
a0800498:	24050006 	li	a1,6
a080049c:	3c06a080 	lui	a2,0xa080
a08004a0:	24c63fec 	addiu	a2,a2,16364
a08004a4:	24040002 	li	a0,2
a08004a8:	0c200c41 	jal	a0803104 <print_str>
a08004ac:	00002821 	move	a1,zero
a08004b0:	24040002 	li	a0,2
a08004b4:	24050006 	li	a1,6
a08004b8:	0c200cde 	jal	a0803378 <print_int>
a08004bc:	24060046 	li	a2,70
a08004c0:	08200130 	j	a08004c0 <_start+0x2c0>
a08004c4:	00000000 	nop
a08004c8:	3c03a080 	lui	v1,0xa080
a08004cc:	8c6243c4 	lw	v0,17348(v1)
a08004d0:	24420001 	addiu	v0,v0,1
a08004d4:	0c200178 	jal	a08005e0 <kstack_new>
a08004d8:	ac6243c4 	sw	v0,17348(v1)
a08004dc:	ae02007c 	sw	v0,124(s0)
a08004e0:	ae150140 	sw	s5,320(s0)
a08004e4:	082000f7 	j	a08003dc <_start+0x1dc>
a08004e8:	ae000168 	sw	zero,360(s0)
a08004ec:	26e63fa8 	addiu	a2,s7,16296
a08004f0:	00002021 	move	a0,zero
a08004f4:	0c200c41 	jal	a0803104 <print_str>
a08004f8:	00002821 	move	a1,zero
a08004fc:	3c06a080 	lui	a2,0xa080
a0800500:	24c64004 	addiu	a2,a2,16388
a0800504:	00002021 	move	a0,zero
a0800508:	0c200c41 	jal	a0803104 <print_str>
a080050c:	24050013 	li	a1,19
a0800510:	27c63fd8 	addiu	a2,s8,16344
a0800514:	24040001 	li	a0,1
a0800518:	0c200c41 	jal	a0803104 <print_str>
a080051c:	00002821 	move	a1,zero
a0800520:	3c02a080 	lui	v0,0xa080
a0800524:	24463fe0 	addiu	a2,v0,16352
a0800528:	24040001 	li	a0,1
a080052c:	0c200c41 	jal	a0803104 <print_str>
a0800530:	24050006 	li	a1,6
a0800534:	3c03a080 	lui	v1,0xa080
a0800538:	24663fec 	addiu	a2,v1,16364
a080053c:	24040002 	li	a0,2
a0800540:	0c200c41 	jal	a0803104 <print_str>
a0800544:	00002821 	move	a1,zero
a0800548:	24040002 	li	a0,2
a080054c:	24050006 	li	a1,6
a0800550:	0c200cde 	jal	a0803378 <print_int>
a0800554:	24060053 	li	a2,83
a0800558:	08200156 	j	a0800558 <_start+0x358>
a080055c:	00000000 	nop
a0800560:	26e63fa8 	addiu	a2,s7,16296
a0800564:	00002021 	move	a0,zero
a0800568:	0c200c41 	jal	a0803104 <print_str>
a080056c:	00002821 	move	a1,zero
a0800570:	3c06a080 	lui	a2,0xa080
a0800574:	24c63ffc 	addiu	a2,a2,16380
a0800578:	00002021 	move	a0,zero
a080057c:	0c200c41 	jal	a0803104 <print_str>
a0800580:	24050013 	li	a1,19
a0800584:	27c63fd8 	addiu	a2,s8,16344
a0800588:	24040001 	li	a0,1
a080058c:	0c200c41 	jal	a0803104 <print_str>
a0800590:	00002821 	move	a1,zero
a0800594:	3c02a080 	lui	v0,0xa080
a0800598:	24463fe0 	addiu	a2,v0,16352
a080059c:	24040001 	li	a0,1
a08005a0:	0c200c41 	jal	a0803104 <print_str>
a08005a4:	24050006 	li	a1,6
a08005a8:	3c03a080 	lui	v1,0xa080
a08005ac:	24663fec 	addiu	a2,v1,16364
a08005b0:	24040002 	li	a0,2
a08005b4:	0c200c41 	jal	a0803104 <print_str>
a08005b8:	00002821 	move	a1,zero
a08005bc:	24040002 	li	a0,2
a08005c0:	24050006 	li	a1,6
a08005c4:	0c200cde 	jal	a0803378 <print_int>
a08005c8:	24060070 	li	a2,112
a08005cc:	08200173 	j	a08005cc <_start+0x3cc>
a08005d0:	00000000 	nop
	...

a08005e0 <kstack_new>:
a08005e0:	27bdffe8 	addiu	sp,sp,-24
a08005e4:	3c04a080 	lui	a0,0xa080
a08005e8:	afbf0010 	sw	ra,16(sp)
a08005ec:	8c834330 	lw	v1,17200(a0)
a08005f0:	3c02a100 	lui	v0,0xa100
a08005f4:	24631000 	addiu	v1,v1,4096
a08005f8:	0043102b 	sltu	v0,v0,v1
a08005fc:	14400005 	bnez	v0,a0800614 <kstack_new+0x34>
a0800600:	ac834330 	sw	v1,17200(a0)
a0800604:	8c824330 	lw	v0,17200(a0)
a0800608:	8fbf0010 	lw	ra,16(sp)
a080060c:	03e00008 	jr	ra
a0800610:	27bd0018 	addiu	sp,sp,24
a0800614:	3c06a080 	lui	a2,0xa080
a0800618:	24c63fa8 	addiu	a2,a2,16296
a080061c:	00002021 	move	a0,zero
a0800620:	0c200c41 	jal	a0803104 <print_str>
a0800624:	00002821 	move	a1,zero
a0800628:	3c06a080 	lui	a2,0xa080
a080062c:	24c63fbc 	addiu	a2,a2,16316
a0800630:	00002021 	move	a0,zero
a0800634:	0c200c41 	jal	a0803104 <print_str>
a0800638:	24050013 	li	a1,19
a080063c:	3c06a080 	lui	a2,0xa080
a0800640:	24c63fd8 	addiu	a2,a2,16344
a0800644:	24040001 	li	a0,1
a0800648:	0c200c41 	jal	a0803104 <print_str>
a080064c:	00002821 	move	a1,zero
a0800650:	3c06a080 	lui	a2,0xa080
a0800654:	24c63fe0 	addiu	a2,a2,16352
a0800658:	24040001 	li	a0,1
a080065c:	0c200c41 	jal	a0803104 <print_str>
a0800660:	24050006 	li	a1,6
a0800664:	3c06a080 	lui	a2,0xa080
a0800668:	24c63fec 	addiu	a2,a2,16364
a080066c:	24040002 	li	a0,2
a0800670:	0c200c41 	jal	a0803104 <print_str>
a0800674:	00002821 	move	a1,zero
a0800678:	24040002 	li	a0,2
a080067c:	24050006 	li	a1,6
a0800680:	0c200cde 	jal	a0803378 <print_int>
a0800684:	2406004c 	li	a2,76
a0800688:	082001a2 	j	a0800688 <kstack_new+0xa8>
a080068c:	00000000 	nop

a0800690 <first_entry>:
a0800690:	27bdffe8 	addiu	sp,sp,-24
a0800694:	afbf0010 	sw	ra,16(sp)
a0800698:	0c2005f2 	jal	a08017c8 <enter_critical>
a080069c:	00000000 	nop
a08006a0:	3c05a080 	lui	a1,0xa080
a08006a4:	8ca343a4 	lw	v1,17316(a1)
a08006a8:	8c62014c 	lw	v0,332(v1)
a08006ac:	54400003 	bnezl	v0,a08006bc <first_entry+0x2c>
a08006b0:	8c640118 	lw	a0,280(v1)
a08006b4:	8c64007c 	lw	a0,124(v1)
a08006b8:	8ca343a4 	lw	v1,17316(a1)
a08006bc:	8c620144 	lw	v0,324(v1)
a08006c0:	0004e820 	add	sp,zero,a0
a08006c4:	0c200602 	jal	a0801808 <leave_critical>
a08006c8:	00000000 	nop
a08006cc:	00000000 	nop
a08006d0:	0002f820 	add	ra,zero,v0
a08006d4:	03e00008 	jr	ra
a08006d8:	00000000 	nop
a08006dc:	3c06a080 	lui	a2,0xa080
a08006e0:	24c63fa8 	addiu	a2,a2,16296
a08006e4:	00002021 	move	a0,zero
a08006e8:	0c200c41 	jal	a0803104 <print_str>
a08006ec:	00002821 	move	a1,zero
a08006f0:	3c06a080 	lui	a2,0xa080
a08006f4:	24c63ffc 	addiu	a2,a2,16380
a08006f8:	00002021 	move	a0,zero
a08006fc:	0c200c41 	jal	a0803104 <print_str>
a0800700:	24050013 	li	a1,19
a0800704:	3c06a080 	lui	a2,0xa080
a0800708:	24c63fd8 	addiu	a2,a2,16344
a080070c:	24040001 	li	a0,1
a0800710:	0c200c41 	jal	a0803104 <print_str>
a0800714:	00002821 	move	a1,zero
a0800718:	3c06a080 	lui	a2,0xa080
a080071c:	24c63fe0 	addiu	a2,a2,16352
a0800720:	24040001 	li	a0,1
a0800724:	0c200c41 	jal	a0803104 <print_str>
a0800728:	24050006 	li	a1,6
a080072c:	3c06a080 	lui	a2,0xa080
a0800730:	24c63fec 	addiu	a2,a2,16364
a0800734:	24040002 	li	a0,2
a0800738:	0c200c41 	jal	a0803104 <print_str>
a080073c:	00002821 	move	a1,zero
a0800740:	24040002 	li	a0,2
a0800744:	24050006 	li	a1,6
a0800748:	0c200cde 	jal	a0803378 <print_int>
a080074c:	2406008e 	li	a2,142
a0800750:	082001d4 	j	a0800750 <first_entry+0xc0>
a0800754:	00000000 	nop

a0800758 <invalid_syscall>:
a0800758:	3c06a080 	lui	a2,0xa080
a080075c:	27bdffe8 	addiu	sp,sp,-24
a0800760:	24c63fa8 	addiu	a2,a2,16296
a0800764:	00002021 	move	a0,zero
a0800768:	afbf0010 	sw	ra,16(sp)
a080076c:	0c200c41 	jal	a0803104 <print_str>
a0800770:	00002821 	move	a1,zero
a0800774:	3c06a080 	lui	a2,0xa080
a0800778:	24c6401c 	addiu	a2,a2,16412
a080077c:	00002021 	move	a0,zero
a0800780:	0c200c41 	jal	a0803104 <print_str>
a0800784:	24050013 	li	a1,19
a0800788:	3c06a080 	lui	a2,0xa080
a080078c:	24c63fd8 	addiu	a2,a2,16344
a0800790:	24040001 	li	a0,1
a0800794:	0c200c41 	jal	a0803104 <print_str>
a0800798:	00002821 	move	a1,zero
a080079c:	3c06a080 	lui	a2,0xa080
a08007a0:	24c63fe0 	addiu	a2,a2,16352
a08007a4:	24040001 	li	a0,1
a08007a8:	0c200c41 	jal	a0803104 <print_str>
a08007ac:	24050006 	li	a1,6
a08007b0:	3c06a080 	lui	a2,0xa080
a08007b4:	24c63fec 	addiu	a2,a2,16364
a08007b8:	24040002 	li	a0,2
a08007bc:	0c200c41 	jal	a0803104 <print_str>
a08007c0:	00002821 	move	a1,zero
a08007c4:	24040002 	li	a0,2
a08007c8:	24050006 	li	a1,6
a08007cc:	0c200cde 	jal	a0803378 <print_int>
a08007d0:	24060092 	li	a2,146
a08007d4:	082001f5 	j	a08007d4 <invalid_syscall+0x7c>
a08007d8:	00000000 	nop

a08007dc <print_status>:
a08007dc:	3c06a080 	lui	a2,0xa080
a08007e0:	27bdffc0 	addiu	sp,sp,-64
a08007e4:	24c6405c 	addiu	a2,a2,16476
a08007e8:	24040009 	li	a0,9
a08007ec:	24050006 	li	a1,6
a08007f0:	afbf0038 	sw	ra,56(sp)
a08007f4:	afb50034 	sw	s5,52(sp)
a08007f8:	afb40030 	sw	s4,48(sp)
a08007fc:	afb3002c 	sw	s3,44(sp)
a0800800:	afb20028 	sw	s2,40(sp)
a0800804:	afb10024 	sw	s1,36(sp)
a0800808:	0c2006a5 	jal	a0801a94 <printf>
a080080c:	afb00020 	sw	s0,32(sp)
a0800810:	3c06a080 	lui	a2,0xa080
a0800814:	2404000b 	li	a0,11
a0800818:	24c64078 	addiu	a2,a2,16504
a080081c:	0c2006a5 	jal	a0801a94 <printf>
a0800820:	24050001 	li	a1,1
a0800824:	3c02a080 	lui	v0,0xa080
a0800828:	3c03a080 	lui	v1,0xa080
a080082c:	24544338 	addiu	s4,v0,17208
a0800830:	24704858 	addiu	s0,v1,18520
a0800834:	00008821 	move	s1,zero
a0800838:	2404000d 	li	a0,13
a080083c:	3c13a080 	lui	s3,0xa080
a0800840:	3c12a080 	lui	s2,0xa080
a0800844:	3c15a080 	lui	s5,0xa080
a0800848:	8e02014c 	lw	v0,332(s0)
a080084c:	26310001 	addiu	s1,s1,1
a0800850:	24050001 	li	a1,1
a0800854:	26664098 	addiu	a2,s3,16536
a0800858:	8e070148 	lw	a3,328(s0)
a080085c:	10400002 	beqz	v0,a0800868 <print_status+0x8c>
a0800860:	264340a8 	addiu	v1,s2,16552
a0800864:	26a340b0 	addiu	v1,s5,16560
a0800868:	8e020150 	lw	v0,336(s0)
a080086c:	afa30010 	sw	v1,16(sp)
a0800870:	8e080160 	lw	t0,352(s0)
a0800874:	00021080 	sll	v0,v0,0x2
a0800878:	00541021 	addu	v0,v0,s4
a080087c:	8c430000 	lw	v1,0(v0)
a0800880:	8e090154 	lw	t1,340(s0)
a0800884:	afa80014 	sw	t0,20(sp)
a0800888:	afa30018 	sw	v1,24(sp)
a080088c:	0c2006a5 	jal	a0801a94 <printf>
a0800890:	afa9001c 	sw	t1,28(sp)
a0800894:	2624000d 	addiu	a0,s1,13
a0800898:	2a220003 	slti	v0,s1,3
a080089c:	26100178 	addiu	s0,s0,376
a08008a0:	10400003 	beqz	v0,a08008b0 <print_status+0xd4>
a08008a4:	28830019 	slti	v1,a0,25
a08008a8:	5460ffe8 	bnezl	v1,a080084c <print_status+0x70>
a08008ac:	8e02014c 	lw	v0,332(s0)
a08008b0:	8fbf0038 	lw	ra,56(sp)
a08008b4:	8fb50034 	lw	s5,52(sp)
a08008b8:	8fb40030 	lw	s4,48(sp)
a08008bc:	8fb3002c 	lw	s3,44(sp)
a08008c0:	8fb20028 	lw	s2,40(sp)
a08008c4:	8fb10024 	lw	s1,36(sp)
a08008c8:	8fb00020 	lw	s0,32(sp)
a08008cc:	03e00008 	jr	ra
a08008d0:	27bd0040 	addiu	sp,sp,64

a08008d4 <do_shutdown>:
a08008d4:	3c06a080 	lui	a2,0xa080
a08008d8:	27bdffe8 	addiu	sp,sp,-24
a08008dc:	24c63fa8 	addiu	a2,a2,16296
a08008e0:	00002021 	move	a0,zero
a08008e4:	afbf0010 	sw	ra,16(sp)
a08008e8:	0c200c41 	jal	a0803104 <print_str>
a08008ec:	00002821 	move	a1,zero
a08008f0:	3c06a080 	lui	a2,0xa080
a08008f4:	24c640b8 	addiu	a2,a2,16568
a08008f8:	00002021 	move	a0,zero
a08008fc:	0c200c41 	jal	a0803104 <print_str>
a0800900:	24050013 	li	a1,19
a0800904:	3c06a080 	lui	a2,0xa080
a0800908:	24c63fd8 	addiu	a2,a2,16344
a080090c:	24040001 	li	a0,1
a0800910:	0c200c41 	jal	a0803104 <print_str>
a0800914:	00002821 	move	a1,zero
a0800918:	3c06a080 	lui	a2,0xa080
a080091c:	24c63fe0 	addiu	a2,a2,16352
a0800920:	24040001 	li	a0,1
a0800924:	0c200c41 	jal	a0803104 <print_str>
a0800928:	24050006 	li	a1,6
a080092c:	3c06a080 	lui	a2,0xa080
a0800930:	24c63fec 	addiu	a2,a2,16364
a0800934:	24040002 	li	a0,2
a0800938:	0c200c41 	jal	a0803104 <print_str>
a080093c:	00002821 	move	a1,zero
a0800940:	24040002 	li	a0,2
a0800944:	24050006 	li	a1,6
a0800948:	0c200cde 	jal	a0803378 <print_int>
a080094c:	240600c7 	li	a2,199
a0800950:	08200254 	j	a0800950 <do_shutdown+0x7c>
a0800954:	00000000 	nop

a0800958 <do_write_serial>:
a0800958:	3402c350 	li	v0,0xc350
a080095c:	2403ffff 	li	v1,-1
a0800960:	2442ffeb 	addiu	v0,v0,-21
a0800964:	1443ffff 	bne	v0,v1,a0800964 <do_write_serial+0xc>
a0800968:	2442ffeb 	addiu	v0,v0,-21
a080096c:	3c02bfe4 	lui	v0,0xbfe4
a0800970:	34428000 	ori	v0,v0,0x8000
a0800974:	03e00008 	jr	ra
a0800978:	a0440000 	sb	a0,0(v0)

a080097c <printcharc>:
a080097c:	00042600 	sll	a0,a0,0x18
a0800980:	08200256 	j	a0800958 <do_write_serial>
a0800984:	00042603 	sra	a0,a0,0x18

a0800988 <print_char>:
a0800988:	27bdffe8 	addiu	sp,sp,-24
a080098c:	afbf0014 	sw	ra,20(sp)
a0800990:	afb00010 	sw	s0,16(sp)
a0800994:	0c200d10 	jal	a0803440 <print_location>
a0800998:	00068600 	sll	s0,a2,0x18
a080099c:	3c03bfe4 	lui	v1,0xbfe4
a08009a0:	00108603 	sra	s0,s0,0x18
a08009a4:	34638000 	ori	v1,v1,0x8000
a08009a8:	a0700000 	sb	s0,0(v1)
a08009ac:	8fbf0014 	lw	ra,20(sp)
a08009b0:	8fb00010 	lw	s0,16(sp)
a08009b4:	03e00008 	jr	ra
a08009b8:	27bd0018 	addiu	sp,sp,24
a08009bc:	00000000 	nop

a08009c0 <page_paddr>:
a08009c0:	00041840 	sll	v1,a0,0x1
a08009c4:	00641821 	addu	v1,v1,a0
a08009c8:	00031880 	sll	v1,v1,0x2
a08009cc:	00641823 	subu	v1,v1,a0
a08009d0:	3c02a080 	lui	v0,0xa080
a08009d4:	24424550 	addiu	v0,v0,17744
a08009d8:	00031880 	sll	v1,v1,0x2
a08009dc:	00621821 	addu	v1,v1,v0
a08009e0:	03e00008 	jr	ra
a08009e4:	8c620010 	lw	v0,16(v1)

a08009e8 <page_vaddr>:
a08009e8:	00041840 	sll	v1,a0,0x1
a08009ec:	00641821 	addu	v1,v1,a0
a08009f0:	00031880 	sll	v1,v1,0x2
a08009f4:	00641823 	subu	v1,v1,a0
a08009f8:	3c02a080 	lui	v0,0xa080
a08009fc:	24424550 	addiu	v0,v0,17744
a0800a00:	00031880 	sll	v1,v1,0x2
a0800a04:	00621821 	addu	v1,v1,v0
a0800a08:	03e00008 	jr	ra
a0800a0c:	8c620014 	lw	v0,20(v1)

a0800a10 <page_addr>:
a0800a10:	00041840 	sll	v1,a0,0x1
a0800a14:	00641821 	addu	v1,v1,a0
a0800a18:	00031880 	sll	v1,v1,0x2
a0800a1c:	00641823 	subu	v1,v1,a0
a0800a20:	3c02a080 	lui	v0,0xa080
a0800a24:	24424550 	addiu	v0,v0,17744
a0800a28:	00031880 	sll	v1,v1,0x2
a0800a2c:	00621821 	addu	v1,v1,v0
a0800a30:	03e00008 	jr	ra
a0800a34:	8c620010 	lw	v0,16(v1)

a0800a38 <va2pa>:
a0800a38:	3c026000 	lui	v0,0x6000
a0800a3c:	03e00008 	jr	ra
a0800a40:	00821021 	addu	v0,a0,v0

a0800a44 <pa2va>:
a0800a44:	3c02a000 	lui	v0,0xa000
a0800a48:	03e00008 	jr	ra
a0800a4c:	00821021 	addu	v0,a0,v0

a0800a50 <insert_page_table_entry>:
a0800a50:	00051b02 	srl	v1,a1,0xc
a0800a54:	00031880 	sll	v1,v1,0x2
a0800a58:	2402f000 	li	v0,-4096
a0800a5c:	00641821 	addu	v1,v1,a0
a0800a60:	8fa40010 	lw	a0,16(sp)
a0800a64:	00c23024 	and	a2,a2,v0
a0800a68:	00063182 	srl	a2,a2,0x6
a0800a6c:	2402e000 	li	v0,-8192
a0800a70:	00c73025 	or	a2,a2,a3
a0800a74:	00a22824 	and	a1,a1,v0
a0800a78:	308400ff 	andi	a0,a0,0xff
a0800a7c:	ac660000 	sw	a2,0(v1)
a0800a80:	0820054f 	j	a080153c <tlb_flush>
a0800a84:	00a42025 	or	a0,a1,a0

a0800a88 <page_alloc>:
a0800a88:	27bdffd0 	addiu	sp,sp,-48
a0800a8c:	afb50024 	sw	s5,36(sp)
a0800a90:	3c15a080 	lui	s5,0xa080
a0800a94:	26a24550 	addiu	v0,s5,17744
a0800a98:	afb60028 	sw	s6,40(sp)
a0800a9c:	afb00010 	sw	s0,16(sp)
a0800aa0:	afbf002c 	sw	ra,44(sp)
a0800aa4:	afb40020 	sw	s4,32(sp)
a0800aa8:	afb3001c 	sw	s3,28(sp)
a0800aac:	afb20018 	sw	s2,24(sp)
a0800ab0:	afb10014 	sw	s1,20(sp)
a0800ab4:	0080b021 	move	s6,a0
a0800ab8:	2443001c 	addiu	v1,v0,28
a0800abc:	00008021 	move	s0,zero
a0800ac0:	8c620000 	lw	v0,0(v1)
a0800ac4:	00109040 	sll	s2,s0,0x1
a0800ac8:	1440002f 	bnez	v0,a0800b88 <page_alloc+0x100>
a0800acc:	2463002c 	addiu	v1,v1,44
a0800ad0:	26100001 	addiu	s0,s0,1
a0800ad4:	2a020010 	slti	v0,s0,16
a0800ad8:	5440fffa 	bnezl	v0,a0800ac4 <page_alloc+0x3c>
a0800adc:	8c620000 	lw	v0,0(v1)
a0800ae0:	3c02a080 	lui	v0,0xa080
a0800ae4:	24544550 	addiu	s4,v0,17744
a0800ae8:	00008021 	move	s0,zero
a0800aec:	3c13a080 	lui	s3,0xa080
a0800af0:	26910024 	addiu	s1,s4,36
a0800af4:	24040004 	li	a0,4
a0800af8:	24050001 	li	a1,1
a0800afc:	0c2006a5 	jal	a0801a94 <printf>
a0800b00:	266640c4 	addiu	a2,s3,16580
a0800b04:	8e220000 	lw	v0,0(s1)
a0800b08:	00109040 	sll	s2,s0,0x1
a0800b0c:	10400006 	beqz	v0,a0800b28 <page_alloc+0xa0>
a0800b10:	2631002c 	addiu	s1,s1,44
a0800b14:	26100001 	addiu	s0,s0,1
a0800b18:	2a020010 	slti	v0,s0,16
a0800b1c:	5440fff6 	bnezl	v0,a0800af8 <page_alloc+0x70>
a0800b20:	24040004 	li	a0,4
a0800b24:	00109040 	sll	s2,s0,0x1
a0800b28:	02501021 	addu	v0,s2,s0
a0800b2c:	00021080 	sll	v0,v0,0x2
a0800b30:	00501023 	subu	v0,v0,s0
a0800b34:	00021080 	sll	v0,v0,0x2
a0800b38:	00541021 	addu	v0,v0,s4
a0800b3c:	8c460018 	lw	a2,24(v0)
a0800b40:	8c440014 	lw	a0,20(v0)
a0800b44:	3c02a080 	lui	v0,0xa080
a0800b48:	00061840 	sll	v1,a2,0x1
a0800b4c:	00661821 	addu	v1,v1,a2
a0800b50:	00031900 	sll	v1,v1,0x4
a0800b54:	00661823 	subu	v1,v1,a2
a0800b58:	24424858 	addiu	v0,v0,18520
a0800b5c:	000318c0 	sll	v1,v1,0x3
a0800b60:	00621821 	addu	v1,v1,v0
a0800b64:	8c65fff0 	lw	a1,-16(v1)
a0800b68:	00041302 	srl	v0,a0,0xc
a0800b6c:	00021080 	sll	v0,v0,0x2
a0800b70:	2403e000 	li	v1,-8192
a0800b74:	00451021 	addu	v0,v0,a1
a0800b78:	00832024 	and	a0,a0,v1
a0800b7c:	ac400000 	sw	zero,0(v0)
a0800b80:	0c20054f 	jal	a080153c <tlb_flush>
a0800b84:	00862025 	or	a0,a0,a2
a0800b88:	3c03a080 	lui	v1,0xa080
a0800b8c:	8c6543a4 	lw	a1,17316(v1)
a0800b90:	02501021 	addu	v0,s2,s0
a0800b94:	00021080 	sll	v0,v0,0x2
a0800b98:	8ca40130 	lw	a0,304(a1)
a0800b9c:	00501023 	subu	v0,v0,s0
a0800ba0:	26a34550 	addiu	v1,s5,17744
a0800ba4:	00021080 	sll	v0,v0,0x2
a0800ba8:	00431021 	addu	v0,v0,v1
a0800bac:	00042302 	srl	a0,a0,0xc
a0800bb0:	ac440008 	sw	a0,8(v0)
a0800bb4:	8ca30130 	lw	v1,304(a1)
a0800bb8:	8ca40148 	lw	a0,328(a1)
a0800bbc:	ac560024 	sw	s6,36(v0)
a0800bc0:	ac430014 	sw	v1,20(v0)
a0800bc4:	ac440018 	sw	a0,24(v0)
a0800bc8:	ac400020 	sw	zero,32(v0)
a0800bcc:	ac40001c 	sw	zero,28(v0)
a0800bd0:	8fbf002c 	lw	ra,44(sp)
a0800bd4:	02001021 	move	v0,s0
a0800bd8:	8fb60028 	lw	s6,40(sp)
a0800bdc:	8fb50024 	lw	s5,36(sp)
a0800be0:	8fb40020 	lw	s4,32(sp)
a0800be4:	8fb3001c 	lw	s3,28(sp)
a0800be8:	8fb20018 	lw	s2,24(sp)
a0800bec:	8fb10014 	lw	s1,20(sp)
a0800bf0:	8fb00010 	lw	s0,16(sp)
a0800bf4:	03e00008 	jr	ra
a0800bf8:	27bd0030 	addiu	sp,sp,48

a0800bfc <init_memory>:
a0800bfc:	3c06a080 	lui	a2,0xa080
a0800c00:	27bdffd8 	addiu	sp,sp,-40
a0800c04:	24c640d0 	addiu	a2,a2,16592
a0800c08:	24040001 	li	a0,1
a0800c0c:	24050001 	li	a1,1
a0800c10:	afb3001c 	sw	s3,28(sp)
a0800c14:	afb20018 	sw	s2,24(sp)
a0800c18:	afb10014 	sw	s1,20(sp)
a0800c1c:	afb00010 	sw	s0,16(sp)
a0800c20:	afbf0020 	sw	ra,32(sp)
a0800c24:	0c2006a5 	jal	a0801a94 <printf>
a0800c28:	24070010 	li	a3,16
a0800c2c:	3c02a090 	lui	v0,0xa090
a0800c30:	3c03a080 	lui	v1,0xa080
a0800c34:	34528000 	ori	s2,v0,0x8000
a0800c38:	24704550 	addiu	s0,v1,17744
a0800c3c:	24130001 	li	s3,1
a0800c40:	2411000f 	li	s1,15
a0800c44:	02402021 	move	a0,s2
a0800c48:	ae000018 	sw	zero,24(s0)
a0800c4c:	0c20028e 	jal	a0800a38 <va2pa>
a0800c50:	ae000014 	sw	zero,20(s0)
a0800c54:	00021b02 	srl	v1,v0,0xc
a0800c58:	2631ffff 	addiu	s1,s1,-1
a0800c5c:	ae03000c 	sw	v1,12(s0)
a0800c60:	ae020010 	sw	v0,16(s0)
a0800c64:	ae000008 	sw	zero,8(s0)
a0800c68:	ae13001c 	sw	s3,28(s0)
a0800c6c:	ae000024 	sw	zero,36(s0)
a0800c70:	ae000020 	sw	zero,32(s0)
a0800c74:	26521000 	addiu	s2,s2,4096
a0800c78:	0621fff2 	bgez	s1,a0800c44 <init_memory+0x48>
a0800c7c:	2610002c 	addiu	s0,s0,44
a0800c80:	8fbf0020 	lw	ra,32(sp)
a0800c84:	8fb3001c 	lw	s3,28(sp)
a0800c88:	8fb20018 	lw	s2,24(sp)
a0800c8c:	8fb10014 	lw	s1,20(sp)
a0800c90:	8fb00010 	lw	s0,16(sp)
a0800c94:	00001021 	move	v0,zero
a0800c98:	03e00008 	jr	ra
a0800c9c:	27bd0028 	addiu	sp,sp,40

a0800ca0 <setup_page_table>:
a0800ca0:	27bdffe0 	addiu	sp,sp,-32
a0800ca4:	afb20018 	sw	s2,24(sp)
a0800ca8:	00809021 	move	s2,a0
a0800cac:	24040001 	li	a0,1
a0800cb0:	afbf001c 	sw	ra,28(sp)
a0800cb4:	afb10014 	sw	s1,20(sp)
a0800cb8:	0c2002a2 	jal	a0800a88 <page_alloc>
a0800cbc:	afb00010 	sw	s0,16(sp)
a0800cc0:	00028040 	sll	s0,v0,0x1
a0800cc4:	02028021 	addu	s0,s0,v0
a0800cc8:	00108080 	sll	s0,s0,0x2
a0800ccc:	02028023 	subu	s0,s0,v0
a0800cd0:	3c02a080 	lui	v0,0xa080
a0800cd4:	24424550 	addiu	v0,v0,17744
a0800cd8:	00108080 	sll	s0,s0,0x2
a0800cdc:	02028021 	addu	s0,s0,v0
a0800ce0:	0c200291 	jal	a0800a44 <pa2va>
a0800ce4:	8e040010 	lw	a0,16(s0)
a0800ce8:	00408821 	move	s1,v0
a0800cec:	ae120018 	sw	s2,24(s0)
a0800cf0:	ae020014 	sw	v0,20(s0)
a0800cf4:	00402021 	move	a0,v0
a0800cf8:	0c200d7b 	jal	a08035ec <bzero>
a0800cfc:	24051000 	li	a1,4096
a0800d00:	02201021 	move	v0,s1
a0800d04:	8fbf001c 	lw	ra,28(sp)
a0800d08:	8fb20018 	lw	s2,24(sp)
a0800d0c:	8fb10014 	lw	s1,20(sp)
a0800d10:	8fb00010 	lw	s0,16(sp)
a0800d14:	03e00008 	jr	ra
a0800d18:	27bd0020 	addiu	sp,sp,32

a0800d1c <do_tlb_miss>:
a0800d1c:	03e00008 	jr	ra
a0800d20:	00001021 	move	v0,zero

a0800d24 <create_pte>:
a0800d24:	03e00008 	jr	ra
a0800d28:	00000000 	nop
a0800d2c:	00000000 	nop

a0800d30 <scheduler_entry>:
a0800d30:	03a0d820 	add	k1,sp,zero
a0800d34:	3c1aa080 	lui	k0,0xa080
a0800d38:	275a43a4 	addiu	k0,k0,17316
a0800d3c:	8f5d0000 	lw	sp,0(k0)
a0800d40:	23bd0008 	addi	sp,sp,8
a0800d44:	401a6000 	mfc0	k0,$12
a0800d48:	00000000 	nop
a0800d4c:	001ad0c0 	sll	k0,k0,0x3
a0800d50:	07400002 	bltz	k0,a0800d5c <scheduler_entry+0x2c>
a0800d54:	00000000 	nop
a0800d58:	00000000 	nop
a0800d5c:	afbb0074 	sw	k1,116(sp)
a0800d60:	afa20008 	sw	v0,8(sp)
a0800d64:	401a6000 	mfc0	k0,$12
a0800d68:	00000000 	nop
a0800d6c:	afba0080 	sw	k0,128(sp)
a0800d70:	401a6800 	mfc0	k0,$13
a0800d74:	00000000 	nop
a0800d78:	afba0090 	sw	k0,144(sp)
a0800d7c:	401a7000 	mfc0	k0,$14
a0800d80:	00000000 	nop
a0800d84:	afba0094 	sw	k0,148(sp)
a0800d88:	401a4000 	mfc0	k0,$8
a0800d8c:	00000000 	nop
a0800d90:	afba008c 	sw	k0,140(sp)
a0800d94:	0000d010 	mfhi	k0
a0800d98:	afba0084 	sw	k0,132(sp)
a0800d9c:	0000d012 	mflo	k0
a0800da0:	afba0088 	sw	k0,136(sp)
a0800da4:	afa00000 	sw	zero,0(sp)
a0800da8:	afa10004 	sw	at,4(sp)
a0800dac:	afa3000c 	sw	v1,12(sp)
a0800db0:	afa40010 	sw	a0,16(sp)
a0800db4:	afa50014 	sw	a1,20(sp)
a0800db8:	afa60018 	sw	a2,24(sp)
a0800dbc:	afa7001c 	sw	a3,28(sp)
a0800dc0:	afa80020 	sw	t0,32(sp)
a0800dc4:	afa90024 	sw	t1,36(sp)
a0800dc8:	afaa0028 	sw	t2,40(sp)
a0800dcc:	afab002c 	sw	t3,44(sp)
a0800dd0:	afac0030 	sw	t4,48(sp)
a0800dd4:	afad0034 	sw	t5,52(sp)
a0800dd8:	afae0038 	sw	t6,56(sp)
a0800ddc:	afaf003c 	sw	t7,60(sp)
a0800de0:	afb00040 	sw	s0,64(sp)
a0800de4:	afb10044 	sw	s1,68(sp)
a0800de8:	afb20048 	sw	s2,72(sp)
a0800dec:	afb3004c 	sw	s3,76(sp)
a0800df0:	afb40050 	sw	s4,80(sp)
a0800df4:	afb50054 	sw	s5,84(sp)
a0800df8:	afb60058 	sw	s6,88(sp)
a0800dfc:	afb7005c 	sw	s7,92(sp)
a0800e00:	afb80060 	sw	t8,96(sp)
a0800e04:	afb90064 	sw	t9,100(sp)
a0800e08:	afba0068 	sw	k0,104(sp)
a0800e0c:	afbb006c 	sw	k1,108(sp)
a0800e10:	afbc0070 	sw	gp,112(sp)
a0800e14:	afbe0078 	sw	s8,120(sp)
a0800e18:	afbf007c 	sw	ra,124(sp)
a0800e1c:	0360e820 	add	sp,k1,zero
a0800e20:	0c2009d0 	jal	a0802740 <scheduler>
a0800e24:	00000000 	nop
a0800e28:	00000000 	nop
a0800e2c:	3c1aa080 	lui	k0,0xa080
a0800e30:	275a435c 	addiu	k0,k0,17244
a0800e34:	8f5b0000 	lw	k1,0(k0)
a0800e38:	237bffff 	addi	k1,k1,-1
a0800e3c:	176002a1 	bnez	k1,a08018c4 <panicl>
a0800e40:	00000000 	nop
a0800e44:	00000000 	nop
a0800e48:	af5b0000 	sw	k1,0(k0)
a0800e4c:	3c1da080 	lui	sp,0xa080
a0800e50:	27bd43a4 	addiu	sp,sp,17316
a0800e54:	8fbd0000 	lw	sp,0(sp)
a0800e58:	23bd0008 	addi	sp,sp,8
a0800e5c:	40086000 	mfc0	t0,$12
a0800e60:	00000000 	nop
a0800e64:	35080003 	ori	t0,t0,0x3
a0800e68:	39080003 	xori	t0,t0,0x3
a0800e6c:	40886000 	mtc0	t0,$12
a0800e70:	8fa20080 	lw	v0,128(sp)
a0800e74:	3403ff00 	li	v1,0xff00
a0800e78:	01034024 	and	t0,t0,v1
a0800e7c:	00031827 	nor	v1,zero,v1
a0800e80:	00431024 	and	v0,v0,v1
a0800e84:	00481025 	or	v0,v0,t0
a0800e88:	40826000 	mtc0	v0,$12
a0800e8c:	8fa30088 	lw	v1,136(sp)
a0800e90:	00600013 	mtlo	v1
a0800e94:	8fa20084 	lw	v0,132(sp)
a0800e98:	8fa30094 	lw	v1,148(sp)
a0800e9c:	00400011 	mthi	v0
a0800ea0:	40837000 	mtc0	v1,$14
a0800ea4:	8fbf007c 	lw	ra,124(sp)
a0800ea8:	8fbe0078 	lw	s8,120(sp)
a0800eac:	8fbc0070 	lw	gp,112(sp)
a0800eb0:	8fb90064 	lw	t9,100(sp)
a0800eb4:	8fb80060 	lw	t8,96(sp)
a0800eb8:	8fb7005c 	lw	s7,92(sp)
a0800ebc:	8fb60058 	lw	s6,88(sp)
a0800ec0:	8fb50054 	lw	s5,84(sp)
a0800ec4:	8fb40050 	lw	s4,80(sp)
a0800ec8:	8fb3004c 	lw	s3,76(sp)
a0800ecc:	8fb20048 	lw	s2,72(sp)
a0800ed0:	8fb10044 	lw	s1,68(sp)
a0800ed4:	8fb00040 	lw	s0,64(sp)
a0800ed8:	8faf003c 	lw	t7,60(sp)
a0800edc:	8fae0038 	lw	t6,56(sp)
a0800ee0:	8fad0034 	lw	t5,52(sp)
a0800ee4:	8fac0030 	lw	t4,48(sp)
a0800ee8:	8fab002c 	lw	t3,44(sp)
a0800eec:	8faa0028 	lw	t2,40(sp)
a0800ef0:	8fa90024 	lw	t1,36(sp)
a0800ef4:	8fa80020 	lw	t0,32(sp)
a0800ef8:	8fa7001c 	lw	a3,28(sp)
a0800efc:	8fa60018 	lw	a2,24(sp)
a0800f00:	8fa50014 	lw	a1,20(sp)
a0800f04:	8fa40010 	lw	a0,16(sp)
a0800f08:	8fa3000c 	lw	v1,12(sp)
a0800f0c:	8fa20008 	lw	v0,8(sp)
a0800f10:	8fa10004 	lw	at,4(sp)
a0800f14:	8fbd0074 	lw	sp,116(sp)
a0800f18:	401a6000 	mfc0	k0,$12
a0800f1c:	3c1b1000 	lui	k1,0x1000
a0800f20:	377b0001 	ori	k1,k1,0x1
a0800f24:	035bd025 	or	k0,k0,k1
a0800f28:	409a6000 	mtc0	k0,$12
a0800f2c:	03e00008 	jr	ra
a0800f30:	00000000 	nop
a0800f34:	00000000 	nop

a0800f38 <asm_start>:
a0800f38:	40806000 	mtc0	zero,$12
a0800f3c:	00000000 	nop
a0800f40:	40809000 	mtc0	zero,$18
a0800f44:	00000000 	nop
a0800f48:	40809800 	mtc0	zero,$19
a0800f4c:	00000000 	nop
a0800f50:	40088000 	mfc0	t0,$16
a0800f54:	2401fff8 	li	at,-8
a0800f58:	01014024 	and	t0,t0,at
a0800f5c:	35080002 	ori	t0,t0,0x2
a0800f60:	40888000 	mtc0	t0,$16
a0800f64:	03e00008 	jr	ra
a0800f68:	00000000 	nop

a0800f6c <reset_timer>:
a0800f6c:	40804800 	mtc0	zero,$9
a0800f70:	00000000 	nop
a0800f74:	40845800 	mtc0	a0,$11
a0800f78:	03e00008 	jr	ra
a0800f7c:	00000000 	nop

a0800f80 <general_exception_handler>:
a0800f80:	03a0d820 	add	k1,sp,zero
a0800f84:	3c1aa080 	lui	k0,0xa080
a0800f88:	275a43a4 	addiu	k0,k0,17316
a0800f8c:	8f5d0000 	lw	sp,0(k0)
a0800f90:	23bd00a4 	addi	sp,sp,164
a0800f94:	401a6000 	mfc0	k0,$12
a0800f98:	001ad0c0 	sll	k0,k0,0x3
a0800f9c:	07400002 	bltz	k0,a0800fa8 <general_exception_handler+0x28>
a0800fa0:	00000000 	nop
a0800fa4:	00000000 	nop
a0800fa8:	afbb0074 	sw	k1,116(sp)
a0800fac:	afa20008 	sw	v0,8(sp)
a0800fb0:	401a6000 	mfc0	k0,$12
a0800fb4:	afba0080 	sw	k0,128(sp)
a0800fb8:	401a6800 	mfc0	k0,$13
a0800fbc:	afba0090 	sw	k0,144(sp)
a0800fc0:	401a7000 	mfc0	k0,$14
a0800fc4:	afba0094 	sw	k0,148(sp)
a0800fc8:	401a4000 	mfc0	k0,$8
a0800fcc:	afba008c 	sw	k0,140(sp)
a0800fd0:	0000d010 	mfhi	k0
a0800fd4:	afba0084 	sw	k0,132(sp)
a0800fd8:	0000d012 	mflo	k0
a0800fdc:	afba0088 	sw	k0,136(sp)
a0800fe0:	afa00000 	sw	zero,0(sp)
a0800fe4:	afa10004 	sw	at,4(sp)
a0800fe8:	afa3000c 	sw	v1,12(sp)
a0800fec:	afa40010 	sw	a0,16(sp)
a0800ff0:	afa50014 	sw	a1,20(sp)
a0800ff4:	afa60018 	sw	a2,24(sp)
a0800ff8:	afa7001c 	sw	a3,28(sp)
a0800ffc:	afa80020 	sw	t0,32(sp)
a0801000:	afa90024 	sw	t1,36(sp)
a0801004:	afaa0028 	sw	t2,40(sp)
a0801008:	afab002c 	sw	t3,44(sp)
a080100c:	afac0030 	sw	t4,48(sp)
a0801010:	afad0034 	sw	t5,52(sp)
a0801014:	afae0038 	sw	t6,56(sp)
a0801018:	afaf003c 	sw	t7,60(sp)
a080101c:	afb00040 	sw	s0,64(sp)
a0801020:	afb10044 	sw	s1,68(sp)
a0801024:	afb20048 	sw	s2,72(sp)
a0801028:	afb3004c 	sw	s3,76(sp)
a080102c:	afb40050 	sw	s4,80(sp)
a0801030:	afb50054 	sw	s5,84(sp)
a0801034:	afb60058 	sw	s6,88(sp)
a0801038:	afb7005c 	sw	s7,92(sp)
a080103c:	afb80060 	sw	t8,96(sp)
a0801040:	afb90064 	sw	t9,100(sp)
a0801044:	afba0068 	sw	k0,104(sp)
a0801048:	afbb006c 	sw	k1,108(sp)
a080104c:	afbc0070 	sw	gp,112(sp)
a0801050:	afbe0078 	sw	s8,120(sp)
a0801054:	afbf007c 	sw	ra,124(sp)
a0801058:	0360e820 	add	sp,k1,zero
a080105c:	3c1aa080 	lui	k0,0xa080
a0801060:	275a43a4 	addiu	k0,k0,17316
a0801064:	8f5a0000 	lw	k0,0(k0)
a0801068:	8f5d007c 	lw	sp,124(k0)
a080106c:	401a6000 	mfc0	k0,$12
a0801070:	3c1b1000 	lui	k1,0x1000
a0801074:	377b0001 	ori	k1,k1,0x1
a0801078:	035bd025 	or	k0,k0,k1
a080107c:	3b5a0001 	xori	k0,k0,0x1
a0801080:	409a6000 	mtc0	k0,$12
a0801084:	401a6800 	mfc0	k0,$13
a0801088:	335a007c 	andi	k0,k0,0x7c
a080108c:	3c1ba080 	lui	k1,0xa080
a0801090:	277b4cc0 	addiu	k1,k1,19648
a0801094:	035bd020 	add	k0,k0,k1
a0801098:	8f5a0000 	lw	k0,0(k0)
a080109c:	03400008 	jr	k0
a08010a0:	00000000 	nop

a08010a4 <return_from_exception>:
a08010a4:	401a6000 	mfc0	k0,$12
a08010a8:	3c1b1000 	lui	k1,0x1000
a08010ac:	377b0001 	ori	k1,k1,0x1
a08010b0:	035bd025 	or	k0,k0,k1
a08010b4:	409a6000 	mtc0	k0,$12
a08010b8:	42000018 	eret

a08010bc <simple_handler>:
a08010bc:	03a0d820 	add	k1,sp,zero
a08010c0:	3c1aa080 	lui	k0,0xa080
a08010c4:	275a43a4 	addiu	k0,k0,17316
a08010c8:	8f5d0000 	lw	sp,0(k0)
a08010cc:	23bd0008 	addi	sp,sp,8
a08010d0:	401a6000 	mfc0	k0,$12
a08010d4:	001ad0c0 	sll	k0,k0,0x3
a08010d8:	07400002 	bltz	k0,a08010e4 <simple_handler+0x28>
a08010dc:	00000000 	nop
a08010e0:	00000000 	nop
a08010e4:	afbb0074 	sw	k1,116(sp)
a08010e8:	afa20008 	sw	v0,8(sp)
a08010ec:	401a6000 	mfc0	k0,$12
a08010f0:	afba0080 	sw	k0,128(sp)
a08010f4:	401a6800 	mfc0	k0,$13
a08010f8:	afba0090 	sw	k0,144(sp)
a08010fc:	401a7000 	mfc0	k0,$14
a0801100:	afba0094 	sw	k0,148(sp)
a0801104:	401a4000 	mfc0	k0,$8
a0801108:	afba008c 	sw	k0,140(sp)
a080110c:	0000d010 	mfhi	k0
a0801110:	afba0084 	sw	k0,132(sp)
a0801114:	0000d012 	mflo	k0
a0801118:	afba0088 	sw	k0,136(sp)
a080111c:	afa00000 	sw	zero,0(sp)
a0801120:	afa10004 	sw	at,4(sp)
a0801124:	afa3000c 	sw	v1,12(sp)
a0801128:	afa40010 	sw	a0,16(sp)
a080112c:	afa50014 	sw	a1,20(sp)
a0801130:	afa60018 	sw	a2,24(sp)
a0801134:	afa7001c 	sw	a3,28(sp)
a0801138:	afa80020 	sw	t0,32(sp)
a080113c:	afa90024 	sw	t1,36(sp)
a0801140:	afaa0028 	sw	t2,40(sp)
a0801144:	afab002c 	sw	t3,44(sp)
a0801148:	afac0030 	sw	t4,48(sp)
a080114c:	afad0034 	sw	t5,52(sp)
a0801150:	afae0038 	sw	t6,56(sp)
a0801154:	afaf003c 	sw	t7,60(sp)
a0801158:	afb00040 	sw	s0,64(sp)
a080115c:	afb10044 	sw	s1,68(sp)
a0801160:	afb20048 	sw	s2,72(sp)
a0801164:	afb3004c 	sw	s3,76(sp)
a0801168:	afb40050 	sw	s4,80(sp)
a080116c:	afb50054 	sw	s5,84(sp)
a0801170:	afb60058 	sw	s6,88(sp)
a0801174:	afb7005c 	sw	s7,92(sp)
a0801178:	afb80060 	sw	t8,96(sp)
a080117c:	afb90064 	sw	t9,100(sp)
a0801180:	afba0068 	sw	k0,104(sp)
a0801184:	afbb006c 	sw	k1,108(sp)
a0801188:	afbc0070 	sw	gp,112(sp)
a080118c:	afbe0078 	sw	s8,120(sp)
a0801190:	afbf007c 	sw	ra,124(sp)
a0801194:	0360e820 	add	sp,k1,zero
a0801198:	401a6800 	mfc0	k0,$13
a080119c:	335aff00 	andi	k0,k0,0xff00
a08011a0:	735ad020 	0x735ad020
a08011a4:	3b5a0017 	xori	k0,k0,0x17
a08011a8:	03402020 	add	a0,k0,zero
a08011ac:	401a6800 	mfc0	k0,$13
a08011b0:	335a007c 	andi	k0,k0,0x7c
a08011b4:	001ad082 	srl	k0,k0,0x2
a08011b8:	03402820 	add	a1,k0,zero
a08011bc:	0c200e36 	jal	a08038d8 <c_simple_handler>
a08011c0:	00000000 	nop
a08011c4:	00000000 	nop
a08011c8:	401a6800 	mfc0	k0,$13
a08011cc:	335bff00 	andi	k1,k0,0xff00
a08011d0:	035bd026 	xor	k0,k0,k1
a08011d4:	409a6800 	mtc0	k0,$13
a08011d8:	3c1aa080 	lui	k0,0xa080
a08011dc:	275a435c 	addiu	k0,k0,17244
a08011e0:	8f5b0000 	lw	k1,0(k0)
a08011e4:	237bffff 	addi	k1,k1,-1
a08011e8:	176001b6 	bnez	k1,a08018c4 <panicl>
a08011ec:	00000000 	nop
a08011f0:	00000000 	nop
a08011f4:	af5b0000 	sw	k1,0(k0)
a08011f8:	3c1da080 	lui	sp,0xa080
a08011fc:	27bd43a4 	addiu	sp,sp,17316
a0801200:	8fbd0000 	lw	sp,0(sp)
a0801204:	23bd0008 	addi	sp,sp,8
a0801208:	40086000 	mfc0	t0,$12
a080120c:	35080003 	ori	t0,t0,0x3
a0801210:	39080003 	xori	t0,t0,0x3
a0801214:	40886000 	mtc0	t0,$12
a0801218:	8fa20080 	lw	v0,128(sp)
a080121c:	3403ff00 	li	v1,0xff00
a0801220:	01034024 	and	t0,t0,v1
a0801224:	00031827 	nor	v1,zero,v1
a0801228:	00431024 	and	v0,v0,v1
a080122c:	00481025 	or	v0,v0,t0
a0801230:	40826000 	mtc0	v0,$12
a0801234:	8fa30088 	lw	v1,136(sp)
a0801238:	00600013 	mtlo	v1
a080123c:	8fa20084 	lw	v0,132(sp)
a0801240:	8fa30094 	lw	v1,148(sp)
a0801244:	00400011 	mthi	v0
a0801248:	40837000 	mtc0	v1,$14
a080124c:	8fbf007c 	lw	ra,124(sp)
a0801250:	8fbe0078 	lw	s8,120(sp)
a0801254:	8fbc0070 	lw	gp,112(sp)
a0801258:	8fb90064 	lw	t9,100(sp)
a080125c:	8fb80060 	lw	t8,96(sp)
a0801260:	8fb7005c 	lw	s7,92(sp)
a0801264:	8fb60058 	lw	s6,88(sp)
a0801268:	8fb50054 	lw	s5,84(sp)
a080126c:	8fb40050 	lw	s4,80(sp)
a0801270:	8fb3004c 	lw	s3,76(sp)
a0801274:	8fb20048 	lw	s2,72(sp)
a0801278:	8fb10044 	lw	s1,68(sp)
a080127c:	8fb00040 	lw	s0,64(sp)
a0801280:	8faf003c 	lw	t7,60(sp)
a0801284:	8fae0038 	lw	t6,56(sp)
a0801288:	8fad0034 	lw	t5,52(sp)
a080128c:	8fac0030 	lw	t4,48(sp)
a0801290:	8fab002c 	lw	t3,44(sp)
a0801294:	8faa0028 	lw	t2,40(sp)
a0801298:	8fa90024 	lw	t1,36(sp)
a080129c:	8fa80020 	lw	t0,32(sp)
a08012a0:	8fa7001c 	lw	a3,28(sp)
a08012a4:	8fa60018 	lw	a2,24(sp)
a08012a8:	8fa50014 	lw	a1,20(sp)
a08012ac:	8fa40010 	lw	a0,16(sp)
a08012b0:	8fa3000c 	lw	v1,12(sp)
a08012b4:	8fa20008 	lw	v0,8(sp)
a08012b8:	8fa10004 	lw	at,4(sp)
a08012bc:	8fbd0074 	lw	sp,116(sp)
a08012c0:	08200429 	j	a08010a4 <return_from_exception>
a08012c4:	00000000 	nop
a08012c8:	00000000 	nop

a08012cc <handle_syscall>:
a08012cc:	00c03820 	add	a3,a2,zero
a08012d0:	00a03020 	add	a2,a1,zero
a08012d4:	00802820 	add	a1,a0,zero
a08012d8:	00402020 	add	a0,v0,zero
a08012dc:	0c200e64 	jal	a0803990 <system_call_helper>
a08012e0:	00000000 	nop
a08012e4:	3c1aa080 	lui	k0,0xa080
a08012e8:	275a435c 	addiu	k0,k0,17244
a08012ec:	8f5b0000 	lw	k1,0(k0)
a08012f0:	237bffff 	addi	k1,k1,-1
a08012f4:	17600173 	bnez	k1,a08018c4 <panicl>
a08012f8:	00000000 	nop
a08012fc:	00000000 	nop
a0801300:	af5b0000 	sw	k1,0(k0)
a0801304:	3c1da080 	lui	sp,0xa080
a0801308:	27bd43a4 	addiu	sp,sp,17316
a080130c:	8fbd0000 	lw	sp,0(sp)
a0801310:	23bd00a4 	addi	sp,sp,164
a0801314:	40086000 	mfc0	t0,$12
a0801318:	35080003 	ori	t0,t0,0x3
a080131c:	39080003 	xori	t0,t0,0x3
a0801320:	40886000 	mtc0	t0,$12
a0801324:	8fa20080 	lw	v0,128(sp)
a0801328:	3403ff00 	li	v1,0xff00
a080132c:	01034024 	and	t0,t0,v1
a0801330:	00031827 	nor	v1,zero,v1
a0801334:	00431024 	and	v0,v0,v1
a0801338:	00481025 	or	v0,v0,t0
a080133c:	40826000 	mtc0	v0,$12
a0801340:	8fa30088 	lw	v1,136(sp)
a0801344:	00600013 	mtlo	v1
a0801348:	8fa20084 	lw	v0,132(sp)
a080134c:	8fa30094 	lw	v1,148(sp)
a0801350:	00400011 	mthi	v0
a0801354:	40837000 	mtc0	v1,$14
a0801358:	8fbf007c 	lw	ra,124(sp)
a080135c:	8fbe0078 	lw	s8,120(sp)
a0801360:	8fbc0070 	lw	gp,112(sp)
a0801364:	8fb90064 	lw	t9,100(sp)
a0801368:	8fb80060 	lw	t8,96(sp)
a080136c:	8fb7005c 	lw	s7,92(sp)
a0801370:	8fb60058 	lw	s6,88(sp)
a0801374:	8fb50054 	lw	s5,84(sp)
a0801378:	8fb40050 	lw	s4,80(sp)
a080137c:	8fb3004c 	lw	s3,76(sp)
a0801380:	8fb20048 	lw	s2,72(sp)
a0801384:	8fb10044 	lw	s1,68(sp)
a0801388:	8fb00040 	lw	s0,64(sp)
a080138c:	8faf003c 	lw	t7,60(sp)
a0801390:	8fae0038 	lw	t6,56(sp)
a0801394:	8fad0034 	lw	t5,52(sp)
a0801398:	8fac0030 	lw	t4,48(sp)
a080139c:	8fab002c 	lw	t3,44(sp)
a08013a0:	8faa0028 	lw	t2,40(sp)
a08013a4:	8fa90024 	lw	t1,36(sp)
a08013a8:	8fa80020 	lw	t0,32(sp)
a08013ac:	8fa7001c 	lw	a3,28(sp)
a08013b0:	8fa60018 	lw	a2,24(sp)
a08013b4:	8fa50014 	lw	a1,20(sp)
a08013b8:	8fa40010 	lw	a0,16(sp)
a08013bc:	8fa3000c 	lw	v1,12(sp)
a08013c0:	8fa20008 	lw	v0,8(sp)
a08013c4:	8fa10004 	lw	at,4(sp)
a08013c8:	8fbd0074 	lw	sp,116(sp)
a08013cc:	08200429 	j	a08010a4 <return_from_exception>
a08013d0:	00000000 	nop
a08013d4:	00000000 	nop

a08013d8 <handle_int>:
a08013d8:	201a2710 	addi	k0,zero,10000

a08013dc <LetterI>:
a08013dc:	235affff 	addi	k0,k0,-1
a08013e0:	1740fffe 	bnez	k0,a08013dc <LetterI>
a08013e4:	00000000 	nop
a08013e8:	201a0049 	addi	k0,zero,73
a08013ec:	3c1bbfe4 	lui	k1,0xbfe4
a08013f0:	377b8000 	ori	k1,k1,0x8000
a08013f4:	a37a0000 	sb	k0,0(k1)
a08013f8:	401a6800 	mfc0	k0,$13
a08013fc:	335aff00 	andi	k0,k0,0xff00
a0801400:	735ad020 	0x735ad020
a0801404:	3b5a0017 	xori	k0,k0,0x17
a0801408:	241b0007 	li	k1,7
a080140c:	175b0004 	bne	k0,k1,a0801420 <do_nothing>
a0801410:	00000000 	nop
a0801414:	0c200e46 	jal	a0803918 <timer_irq>
a0801418:	00000000 	nop
a080141c:	00000000 	nop

a0801420 <do_nothing>:
a0801420:	401a6800 	mfc0	k0,$13
a0801424:	335aff00 	andi	k0,k0,0xff00
a0801428:	0340d820 	add	k1,k0,zero
a080142c:	735ad020 	0x735ad020
a0801430:	3b5a0017 	xori	k0,k0,0x17
a0801434:	235a0008 	addi	k0,k0,8
a0801438:	24080001 	li	t0,1
a080143c:	0348d004 	sllv	k0,t0,k0
a0801440:	035bd026 	xor	k0,k0,k1
a0801444:	409a6800 	mtc0	k0,$13
a0801448:	3c1aa080 	lui	k0,0xa080
a080144c:	275a435c 	addiu	k0,k0,17244
a0801450:	8f5b0000 	lw	k1,0(k0)
a0801454:	237bffff 	addi	k1,k1,-1
a0801458:	1760011a 	bnez	k1,a08018c4 <panicl>
a080145c:	00000000 	nop
a0801460:	00000000 	nop
a0801464:	af5b0000 	sw	k1,0(k0)
a0801468:	3c1da080 	lui	sp,0xa080
a080146c:	27bd43a4 	addiu	sp,sp,17316
a0801470:	8fbd0000 	lw	sp,0(sp)
a0801474:	23bd00a4 	addi	sp,sp,164
a0801478:	40086000 	mfc0	t0,$12
a080147c:	35080003 	ori	t0,t0,0x3
a0801480:	39080003 	xori	t0,t0,0x3
a0801484:	40886000 	mtc0	t0,$12
a0801488:	8fa20080 	lw	v0,128(sp)
a080148c:	3403ff00 	li	v1,0xff00
a0801490:	01034024 	and	t0,t0,v1
a0801494:	00031827 	nor	v1,zero,v1
a0801498:	00431024 	and	v0,v0,v1
a080149c:	00481025 	or	v0,v0,t0
a08014a0:	40826000 	mtc0	v0,$12
a08014a4:	8fa30088 	lw	v1,136(sp)
a08014a8:	00600013 	mtlo	v1
a08014ac:	8fa20084 	lw	v0,132(sp)
a08014b0:	8fa30094 	lw	v1,148(sp)
a08014b4:	00400011 	mthi	v0
a08014b8:	40837000 	mtc0	v1,$14
a08014bc:	8fbf007c 	lw	ra,124(sp)
a08014c0:	8fbe0078 	lw	s8,120(sp)
a08014c4:	8fbc0070 	lw	gp,112(sp)
a08014c8:	8fb90064 	lw	t9,100(sp)
a08014cc:	8fb80060 	lw	t8,96(sp)
a08014d0:	8fb7005c 	lw	s7,92(sp)
a08014d4:	8fb60058 	lw	s6,88(sp)
a08014d8:	8fb50054 	lw	s5,84(sp)
a08014dc:	8fb40050 	lw	s4,80(sp)
a08014e0:	8fb3004c 	lw	s3,76(sp)
a08014e4:	8fb20048 	lw	s2,72(sp)
a08014e8:	8fb10044 	lw	s1,68(sp)
a08014ec:	8fb00040 	lw	s0,64(sp)
a08014f0:	8faf003c 	lw	t7,60(sp)
a08014f4:	8fae0038 	lw	t6,56(sp)
a08014f8:	8fad0034 	lw	t5,52(sp)
a08014fc:	8fac0030 	lw	t4,48(sp)
a0801500:	8fab002c 	lw	t3,44(sp)
a0801504:	8faa0028 	lw	t2,40(sp)
a0801508:	8fa90024 	lw	t1,36(sp)
a080150c:	8fa80020 	lw	t0,32(sp)
a0801510:	8fa7001c 	lw	a3,28(sp)
a0801514:	8fa60018 	lw	a2,24(sp)
a0801518:	8fa50014 	lw	a1,20(sp)
a080151c:	8fa40010 	lw	a0,16(sp)
a0801520:	8fa3000c 	lw	v1,12(sp)
a0801524:	8fa20008 	lw	v0,8(sp)
a0801528:	8fa10004 	lw	at,4(sp)
a080152c:	8fbd0074 	lw	sp,116(sp)
a0801530:	08200429 	j	a08010a4 <return_from_exception>
a0801534:	00000000 	nop
a0801538:	00000000 	nop

a080153c <tlb_flush>:
a080153c:	401b5000 	mfc0	k1,$10
a0801540:	40845000 	mtc0	a0,$10
a0801544:	00000000 	nop
a0801548:	42000008 	tlbp
	...
a080155c:	401a0000 	mfc0	k0,$0
a0801560:	07400007 	bltz	k0,a0801580 <NOFOUND>
a0801564:	00000000 	nop
a0801568:	00000000 	nop
a080156c:	40805000 	mtc0	zero,$10
a0801570:	40801000 	mtc0	zero,$2
a0801574:	40801800 	mtc0	zero,$3
a0801578:	00000000 	nop
a080157c:	42000002 	tlbwi

a0801580 <NOFOUND>:
a0801580:	409b5000 	mtc0	k1,$10
a0801584:	03e00008 	jr	ra
a0801588:	00000000 	nop
a080158c:	00000000 	nop

a0801590 <set_pt>:
a0801590:	241affc0 	li	k0,-64
a0801594:	401b5000 	mfc0	k1,$10
a0801598:	00000000 	nop
a080159c:	037ad824 	and	k1,k1,k0
a08015a0:	3c1aa080 	lui	k0,0xa080
a08015a4:	275a43a4 	addiu	k0,k0,17316
a08015a8:	8f5a0000 	lw	k0,0(k0)
a08015ac:	8f5a0148 	lw	k0,328(k0)
a08015b0:	037ad825 	or	k1,k1,k0
a08015b4:	409b5000 	mtc0	k1,$10
a08015b8:	00000000 	nop
a08015bc:	03e00008 	jr	ra
a08015c0:	00000000 	nop
a08015c4:	00000000 	nop

a08015c8 <handle_tlb>:
a08015c8:	3c1aa080 	lui	k0,0xa080
a08015cc:	275a435c 	addiu	k0,k0,17244
a08015d0:	8f5b0000 	lw	k1,0(k0)
a08015d4:	176000ab 	bnez	k1,a0801884 <panice>
a08015d8:	00000000 	nop
a08015dc:	00000000 	nop
a08015e0:	237b0001 	addi	k1,k1,1
a08015e4:	af5b0000 	sw	k1,0(k0)
a08015e8:	201a2710 	addi	k0,zero,10000

a08015ec <LetterK>:
a08015ec:	235affff 	addi	k0,k0,-1
a08015f0:	1740fffe 	bnez	k0,a08015ec <LetterK>
a08015f4:	00000000 	nop
a08015f8:	201a004b 	addi	k0,zero,75
a08015fc:	3c1bbfe4 	lui	k1,0xbfe4
a0801600:	377b8000 	ori	k1,k1,0x8000
a0801604:	a37a0000 	sb	k0,0(k1)
a0801608:	0c200ede 	jal	a0803b78 <handle_tlb_c>
a080160c:	00000000 	nop
a0801610:	00000000 	nop
a0801614:	201a2710 	addi	k0,zero,10000

a0801618 <LetterT>:
a0801618:	235affff 	addi	k0,k0,-1
a080161c:	1740fffe 	bnez	k0,a0801618 <LetterT>
a0801620:	00000000 	nop
a0801624:	201a0054 	addi	k0,zero,84
a0801628:	3c1bbfe4 	lui	k1,0xbfe4
a080162c:	377b8000 	ori	k1,k1,0x8000
a0801630:	a37a0000 	sb	k0,0(k1)
a0801634:	3c08a080 	lui	t0,0xa080
a0801638:	250843a4 	addiu	t0,t0,17316
a080163c:	8d080000 	lw	t0,0(t0)
a0801640:	8d080168 	lw	t0,360(t0)
a0801644:	3c09a080 	lui	t1,0xa080
a0801648:	252943a4 	addiu	t1,t1,17316
a080164c:	8d290000 	lw	t1,0(t1)
a0801650:	8d2f0148 	lw	t7,328(t1)
a0801654:	40094000 	mfc0	t1,$8
a0801658:	00094b42 	srl	t1,t1,0xd
a080165c:	00094b40 	sll	t1,t1,0xd
a0801660:	012f5825 	or	t3,t1,t7
a0801664:	408b5000 	mtc0	t3,$10
a0801668:	00094a82 	srl	t1,t1,0xa
a080166c:	01094020 	add	t0,t0,t1
a0801670:	8d0e0000 	lw	t6,0(t0)
a0801674:	8d0d0004 	lw	t5,4(t0)
a0801678:	408e1000 	mtc0	t6,$2
a080167c:	408d1800 	mtc0	t5,$3
a0801680:	40802800 	mtc0	zero,$5
a0801684:	42000006 	tlbwr
a0801688:	3c1aa080 	lui	k0,0xa080
a080168c:	275a435c 	addiu	k0,k0,17244
a0801690:	8f5b0000 	lw	k1,0(k0)
a0801694:	237bffff 	addi	k1,k1,-1
a0801698:	1760008a 	bnez	k1,a08018c4 <panicl>
a080169c:	00000000 	nop
a08016a0:	00000000 	nop
a08016a4:	af5b0000 	sw	k1,0(k0)
a08016a8:	3c1da080 	lui	sp,0xa080
a08016ac:	27bd43a4 	addiu	sp,sp,17316
a08016b0:	8fbd0000 	lw	sp,0(sp)
a08016b4:	23bd00a4 	addi	sp,sp,164
a08016b8:	40086000 	mfc0	t0,$12
a08016bc:	35080003 	ori	t0,t0,0x3
a08016c0:	39080003 	xori	t0,t0,0x3
a08016c4:	40886000 	mtc0	t0,$12
a08016c8:	8fa20080 	lw	v0,128(sp)
a08016cc:	3403ff00 	li	v1,0xff00
a08016d0:	01034024 	and	t0,t0,v1
a08016d4:	00031827 	nor	v1,zero,v1
a08016d8:	00431024 	and	v0,v0,v1
a08016dc:	00481025 	or	v0,v0,t0
a08016e0:	40826000 	mtc0	v0,$12
a08016e4:	8fa30088 	lw	v1,136(sp)
a08016e8:	00600013 	mtlo	v1
a08016ec:	8fa20084 	lw	v0,132(sp)
a08016f0:	8fa30094 	lw	v1,148(sp)
a08016f4:	00400011 	mthi	v0
a08016f8:	40837000 	mtc0	v1,$14
a08016fc:	8fbf007c 	lw	ra,124(sp)
a0801700:	8fbe0078 	lw	s8,120(sp)
a0801704:	8fbc0070 	lw	gp,112(sp)
a0801708:	8fb90064 	lw	t9,100(sp)
a080170c:	8fb80060 	lw	t8,96(sp)
a0801710:	8fb7005c 	lw	s7,92(sp)
a0801714:	8fb60058 	lw	s6,88(sp)
a0801718:	8fb50054 	lw	s5,84(sp)
a080171c:	8fb40050 	lw	s4,80(sp)
a0801720:	8fb3004c 	lw	s3,76(sp)
a0801724:	8fb20048 	lw	s2,72(sp)
a0801728:	8fb10044 	lw	s1,68(sp)
a080172c:	8fb00040 	lw	s0,64(sp)
a0801730:	8faf003c 	lw	t7,60(sp)
a0801734:	8fae0038 	lw	t6,56(sp)
a0801738:	8fad0034 	lw	t5,52(sp)
a080173c:	8fac0030 	lw	t4,48(sp)
a0801740:	8fab002c 	lw	t3,44(sp)
a0801744:	8faa0028 	lw	t2,40(sp)
a0801748:	8fa90024 	lw	t1,36(sp)
a080174c:	8fa80020 	lw	t0,32(sp)
a0801750:	8fa7001c 	lw	a3,28(sp)
a0801754:	8fa60018 	lw	a2,24(sp)
a0801758:	8fa50014 	lw	a1,20(sp)
a080175c:	8fa40010 	lw	a0,16(sp)
a0801760:	8fa3000c 	lw	v1,12(sp)
a0801764:	8fa20008 	lw	v0,8(sp)
a0801768:	8fa10004 	lw	at,4(sp)
a080176c:	8fbd0074 	lw	sp,116(sp)
a0801770:	08200429 	j	a08010a4 <return_from_exception>
a0801774:	00000000 	nop
a0801778:	00000000 	nop

a080177c <ret>:
a080177c:	3c1aa080 	lui	k0,0xa080
a0801780:	275a435c 	addiu	k0,k0,17244
a0801784:	8f5b0000 	lw	k1,0(k0)
a0801788:	237bffff 	addi	k1,k1,-1
a080178c:	1760004d 	bnez	k1,a08018c4 <panicl>
a0801790:	00000000 	nop
a0801794:	00000000 	nop
a0801798:	af5b0000 	sw	k1,0(k0)
a080179c:	42000018 	eret

a08017a0 <get_cp0_status>:
a08017a0:	40026000 	mfc0	v0,$12
a08017a4:	03e00008 	jr	ra
a08017a8:	00000000 	nop

a08017ac <set_cp0_status>:
a08017ac:	40846000 	mtc0	a0,$12
a08017b0:	03e00008 	jr	ra
a08017b4:	00000000 	nop

a08017b8 <get_asid>:
a08017b8:	40025000 	mfc0	v0,$10
a08017bc:	30420007 	andi	v0,v0,0x7
a08017c0:	03e00008 	jr	ra
a08017c4:	00000000 	nop

a08017c8 <enter_critical>:
a08017c8:	401a6000 	mfc0	k0,$12
a08017cc:	3c1b1000 	lui	k1,0x1000
a08017d0:	377b0001 	ori	k1,k1,0x1
a08017d4:	035bd025 	or	k0,k0,k1
a08017d8:	3b5a0001 	xori	k0,k0,0x1
a08017dc:	409a6000 	mtc0	k0,$12
a08017e0:	3c1aa080 	lui	k0,0xa080
a08017e4:	275a435c 	addiu	k0,k0,17244
a08017e8:	8f5b0000 	lw	k1,0(k0)
a08017ec:	17600025 	bnez	k1,a0801884 <panice>
a08017f0:	00000000 	nop
a08017f4:	00000000 	nop
a08017f8:	237b0001 	addi	k1,k1,1
a08017fc:	af5b0000 	sw	k1,0(k0)
a0801800:	03e00008 	jr	ra
a0801804:	00000000 	nop

a0801808 <leave_critical>:
a0801808:	3c1aa080 	lui	k0,0xa080
a080180c:	275a435c 	addiu	k0,k0,17244
a0801810:	8f5b0000 	lw	k1,0(k0)
a0801814:	237bffff 	addi	k1,k1,-1
a0801818:	1760002a 	bnez	k1,a08018c4 <panicl>
a080181c:	00000000 	nop
a0801820:	00000000 	nop
a0801824:	af5b0000 	sw	k1,0(k0)
a0801828:	401a6000 	mfc0	k0,$12
a080182c:	3c1b1000 	lui	k1,0x1000
a0801830:	377b0001 	ori	k1,k1,0x1
a0801834:	035bd025 	or	k0,k0,k1
a0801838:	409a6000 	mtc0	k0,$12
a080183c:	03e00008 	jr	ra
a0801840:	00000000 	nop

a0801844 <panic>:
a0801844:	401a6000 	mfc0	k0,$12
a0801848:	3c1b1000 	lui	k1,0x1000
a080184c:	377b0001 	ori	k1,k1,0x1
a0801850:	035bd025 	or	k0,k0,k1
a0801854:	3b5a0001 	xori	k0,k0,0x1
a0801858:	409a6000 	mtc0	k0,$12
a080185c:	201a2710 	addi	k0,zero,10000

a0801860 <P1>:
a0801860:	235affff 	addi	k0,k0,-1
a0801864:	1740fffe 	bnez	k0,a0801860 <P1>
a0801868:	00000000 	nop
a080186c:	201a0050 	addi	k0,zero,80
a0801870:	3c1bbfe4 	lui	k1,0xbfe4
a0801874:	377b8000 	ori	k1,k1,0x8000
a0801878:	a37a0000 	sb	k0,0(k1)
a080187c:	08200611 	j	a0801844 <panic>
a0801880:	00000000 	nop

a0801884 <panice>:
a0801884:	401a6000 	mfc0	k0,$12
a0801888:	3c1b1000 	lui	k1,0x1000
a080188c:	377b0001 	ori	k1,k1,0x1
a0801890:	035bd025 	or	k0,k0,k1
a0801894:	3b5a0001 	xori	k0,k0,0x1
a0801898:	409a6000 	mtc0	k0,$12
a080189c:	201a2710 	addi	k0,zero,10000

a08018a0 <P2>:
a08018a0:	235affff 	addi	k0,k0,-1
a08018a4:	1740fffe 	bnez	k0,a08018a0 <P2>
a08018a8:	00000000 	nop
a08018ac:	201a0045 	addi	k0,zero,69
a08018b0:	3c1bbfe4 	lui	k1,0xbfe4
a08018b4:	377b8000 	ori	k1,k1,0x8000
a08018b8:	a37a0000 	sb	k0,0(k1)
a08018bc:	08200611 	j	a0801844 <panic>
a08018c0:	00000000 	nop

a08018c4 <panicl>:
a08018c4:	401a6000 	mfc0	k0,$12
a08018c8:	3c1b1000 	lui	k1,0x1000
a08018cc:	377b0001 	ori	k1,k1,0x1
a08018d0:	035bd025 	or	k0,k0,k1
a08018d4:	3b5a0001 	xori	k0,k0,0x1
a08018d8:	409a6000 	mtc0	k0,$12
a08018dc:	201a2710 	addi	k0,zero,10000

a08018e0 <P3>:
a08018e0:	235affff 	addi	k0,k0,-1
a08018e4:	1740fffe 	bnez	k0,a08018e0 <P3>
a08018e8:	00000000 	nop
a08018ec:	201a004c 	addi	k0,zero,76
a08018f0:	3c1bbfe4 	lui	k1,0xbfe4
a08018f4:	377b8000 	ori	k1,k1,0x8000
a08018f8:	a37a0000 	sb	k0,0(k1)
a08018fc:	08200611 	j	a0801844 <panic>
a0801900:	00000000 	nop

a0801904 <infinite_loop>:
a0801904:	08200641 	j	a0801904 <infinite_loop>
a0801908:	00000000 	nop
a080190c:	00000000 	nop

a0801910 <printf_c>:
a0801910:	27bdffe0 	addiu	sp,sp,-32
a0801914:	afb10014 	sw	s1,20(sp)
a0801918:	afb00010 	sw	s0,16(sp)
a080191c:	afbf0018 	sw	ra,24(sp)
a0801920:	8ca20000 	lw	v0,0(a1)
a0801924:	00063600 	sll	a2,a2,0x18
a0801928:	00a08021 	move	s0,a1
a080192c:	00808821 	move	s1,a0
a0801930:	04400030 	bltz	v0,a08019f4 <printf_c+0xe4>
a0801934:	00063603 	sra	a2,a2,0x18
a0801938:	2402000a 	li	v0,10
a080193c:	10c20024 	beq	a2,v0,a08019d0 <printf_c+0xc0>
a0801940:	28c2000b 	slti	v0,a2,11
a0801944:	1440000f 	bnez	v0,a0801984 <printf_c+0x74>
a0801948:	24020009 	li	v0,9
a080194c:	2402000d 	li	v0,13
a0801950:	50c20023 	beql	a2,v0,a08019e0 <printf_c+0xd0>
a0801954:	ae000000 	sw	zero,0(s0)
a0801958:	8e240000 	lw	a0,0(s1)
a080195c:	0c200262 	jal	a0800988 <print_char>
a0801960:	8e050000 	lw	a1,0(s0)
a0801964:	8e030000 	lw	v1,0(s0)
a0801968:	24630001 	addiu	v1,v1,1
a080196c:	ae030000 	sw	v1,0(s0)
a0801970:	8fbf0018 	lw	ra,24(sp)
a0801974:	8fb10014 	lw	s1,20(sp)
a0801978:	8fb00010 	lw	s0,16(sp)
a080197c:	03e00008 	jr	ra
a0801980:	27bd0020 	addiu	sp,sp,32
a0801984:	54c2fff5 	bnel	a2,v0,a080195c <printf_c+0x4c>
a0801988:	8e240000 	lw	a0,0(s1)
a080198c:	02202021 	move	a0,s1
a0801990:	02002821 	move	a1,s0
a0801994:	0c200644 	jal	a0801910 <printf_c>
a0801998:	24060020 	li	a2,32
a080199c:	8e020000 	lw	v0,0(s0)
a08019a0:	30420007 	andi	v0,v0,0x7
a08019a4:	1040fff2 	beqz	v0,a0801970 <printf_c+0x60>
a08019a8:	02202021 	move	a0,s1
a08019ac:	02002821 	move	a1,s0
a08019b0:	0c200644 	jal	a0801910 <printf_c>
a08019b4:	24060020 	li	a2,32
a08019b8:	8e020000 	lw	v0,0(s0)
a08019bc:	30420007 	andi	v0,v0,0x7
a08019c0:	1440fff3 	bnez	v0,a0801990 <printf_c+0x80>
a08019c4:	02202021 	move	a0,s1
a08019c8:	0820065d 	j	a0801974 <printf_c+0x64>
a08019cc:	8fbf0018 	lw	ra,24(sp)
a08019d0:	8e220000 	lw	v0,0(s1)
a08019d4:	24420001 	addiu	v0,v0,1
a08019d8:	ae220000 	sw	v0,0(s1)
a08019dc:	ae000000 	sw	zero,0(s0)
a08019e0:	8fbf0018 	lw	ra,24(sp)
a08019e4:	8fb10014 	lw	s1,20(sp)
a08019e8:	8fb00010 	lw	s0,16(sp)
a08019ec:	03e00008 	jr	ra
a08019f0:	27bd0020 	addiu	sp,sp,32
a08019f4:	0820064e 	j	a0801938 <printf_c+0x28>
a08019f8:	aca00000 	sw	zero,0(a1)

a08019fc <printf_u>:
a08019fc:	27bdffd0 	addiu	sp,sp,-48
a0801a00:	3c02cccc 	lui	v0,0xcccc
a0801a04:	afb20028 	sw	s2,40(sp)
a0801a08:	afb10024 	sw	s1,36(sp)
a0801a0c:	afb00020 	sw	s0,32(sp)
a0801a10:	00809021 	move	s2,a0
a0801a14:	afbf002c 	sw	ra,44(sp)
a0801a18:	00a08821 	move	s1,a1
a0801a1c:	a3a00010 	sb	zero,16(sp)
a0801a20:	3444cccd 	ori	a0,v0,0xcccd
a0801a24:	27b00010 	addiu	s0,sp,16
a0801a28:	00c40019 	multu	a2,a0
a0801a2c:	26100001 	addiu	s0,s0,1
a0801a30:	00001810 	mfhi	v1
a0801a34:	000318c2 	srl	v1,v1,0x3
a0801a38:	00031080 	sll	v0,v1,0x2
a0801a3c:	00431021 	addu	v0,v0,v1
a0801a40:	00021040 	sll	v0,v0,0x1
a0801a44:	00c21023 	subu	v0,a2,v0
a0801a48:	24420030 	addiu	v0,v0,48
a0801a4c:	a2020000 	sb	v0,0(s0)
a0801a50:	1460fff5 	bnez	v1,a0801a28 <printf_u+0x2c>
a0801a54:	00603021 	move	a2,v1
a0801a58:	00023600 	sll	a2,v0,0x18
a0801a5c:	0820069d 	j	a0801a74 <printf_u+0x78>
a0801a60:	00063603 	sra	a2,a2,0x18
a0801a64:	02402021 	move	a0,s2
a0801a68:	0c200644 	jal	a0801910 <printf_c>
a0801a6c:	02202821 	move	a1,s1
a0801a70:	82060000 	lb	a2,0(s0)
a0801a74:	14c0fffb 	bnez	a2,a0801a64 <printf_u+0x68>
a0801a78:	2610ffff 	addiu	s0,s0,-1
a0801a7c:	8fbf002c 	lw	ra,44(sp)
a0801a80:	8fb20028 	lw	s2,40(sp)
a0801a84:	8fb10024 	lw	s1,36(sp)
a0801a88:	8fb00020 	lw	s0,32(sp)
a0801a8c:	03e00008 	jr	ra
a0801a90:	27bd0030 	addiu	sp,sp,48

a0801a94 <printf>:
a0801a94:	27bdffc8 	addiu	sp,sp,-56
a0801a98:	afb3001c 	sw	s3,28(sp)
a0801a9c:	afb10014 	sw	s1,20(sp)
a0801aa0:	afbf0030 	sw	ra,48(sp)
a0801aa4:	afb7002c 	sw	s7,44(sp)
a0801aa8:	afb60028 	sw	s6,40(sp)
a0801aac:	afb50024 	sw	s5,36(sp)
a0801ab0:	afb40020 	sw	s4,32(sp)
a0801ab4:	afb20018 	sw	s2,24(sp)
a0801ab8:	afb00010 	sw	s0,16(sp)
a0801abc:	afa40038 	sw	a0,56(sp)
a0801ac0:	afa5003c 	sw	a1,60(sp)
a0801ac4:	afa70044 	sw	a3,68(sp)
a0801ac8:	afa60040 	sw	a2,64(sp)
a0801acc:	00c08821 	move	s1,a2
a0801ad0:	80c60000 	lb	a2,0(a2)
a0801ad4:	10c0001c 	beqz	a2,a0801b48 <printf+0xb4>
a0801ad8:	27b30044 	addiu	s3,sp,68
a0801adc:	27b5003c 	addiu	s5,sp,60
a0801ae0:	02a0b821 	move	s7,s5
a0801ae4:	02a0b021 	move	s6,s5
a0801ae8:	24020025 	li	v0,37
a0801aec:	14c20028 	bne	a2,v0,a0801b90 <printf+0xfc>
a0801af0:	27a40038 	addiu	a0,sp,56
a0801af4:	26310001 	addiu	s1,s1,1
a0801af8:	92260000 	lbu	a2,0(s1)
a0801afc:	24020073 	li	v0,115
a0801b00:	00061e00 	sll	v1,a2,0x18
a0801b04:	00031e03 	sra	v1,v1,0x18
a0801b08:	10620052 	beq	v1,v0,a0801c54 <printf+0x1c0>
a0801b0c:	28620074 	slti	v0,v1,116
a0801b10:	10400018 	beqz	v0,a0801b74 <printf+0xe0>
a0801b14:	24020075 	li	v0,117
a0801b18:	24020063 	li	v0,99
a0801b1c:	1062005a 	beq	v1,v0,a0801c88 <printf+0x1f4>
a0801b20:	28620064 	slti	v0,v1,100
a0801b24:	5040002b 	beqzl	v0,a0801bd4 <printf+0x140>
a0801b28:	24020064 	li	v0,100
a0801b2c:	14600016 	bnez	v1,a0801b88 <printf+0xf4>
a0801b30:	00063600 	sll	a2,a2,0x18
a0801b34:	2631ffff 	addiu	s1,s1,-1
a0801b38:	26310001 	addiu	s1,s1,1
a0801b3c:	82260000 	lb	a2,0(s1)
a0801b40:	14c0ffea 	bnez	a2,a0801aec <printf+0x58>
a0801b44:	24020025 	li	v0,37
a0801b48:	8fbf0030 	lw	ra,48(sp)
a0801b4c:	8fb7002c 	lw	s7,44(sp)
a0801b50:	8fb60028 	lw	s6,40(sp)
a0801b54:	8fb50024 	lw	s5,36(sp)
a0801b58:	8fb40020 	lw	s4,32(sp)
a0801b5c:	8fb3001c 	lw	s3,28(sp)
a0801b60:	8fb20018 	lw	s2,24(sp)
a0801b64:	8fb10014 	lw	s1,20(sp)
a0801b68:	8fb00010 	lw	s0,16(sp)
a0801b6c:	03e00008 	jr	ra
a0801b70:	27bd0038 	addiu	sp,sp,56
a0801b74:	10620049 	beq	v1,v0,a0801c9c <printf+0x208>
a0801b78:	24020078 	li	v0,120
a0801b7c:	50620020 	beql	v1,v0,a0801c00 <printf+0x16c>
a0801b80:	8e720000 	lw	s2,0(s3)
a0801b84:	00063600 	sll	a2,a2,0x18
a0801b88:	00063603 	sra	a2,a2,0x18
a0801b8c:	27a40038 	addiu	a0,sp,56
a0801b90:	27a5003c 	addiu	a1,sp,60
a0801b94:	0c200644 	jal	a0801910 <printf_c>
a0801b98:	26310001 	addiu	s1,s1,1
a0801b9c:	82260000 	lb	a2,0(s1)
a0801ba0:	14c0ffd2 	bnez	a2,a0801aec <printf+0x58>
a0801ba4:	24020025 	li	v0,37
a0801ba8:	8fbf0030 	lw	ra,48(sp)
a0801bac:	8fb7002c 	lw	s7,44(sp)
a0801bb0:	8fb60028 	lw	s6,40(sp)
a0801bb4:	8fb50024 	lw	s5,36(sp)
a0801bb8:	8fb40020 	lw	s4,32(sp)
a0801bbc:	8fb3001c 	lw	s3,28(sp)
a0801bc0:	8fb20018 	lw	s2,24(sp)
a0801bc4:	8fb10014 	lw	s1,20(sp)
a0801bc8:	8fb00010 	lw	s0,16(sp)
a0801bcc:	03e00008 	jr	ra
a0801bd0:	27bd0038 	addiu	sp,sp,56
a0801bd4:	1462ffec 	bne	v1,v0,a0801b88 <printf+0xf4>
a0801bd8:	00063600 	sll	a2,a2,0x18
a0801bdc:	8e700000 	lw	s0,0(s3)
a0801be0:	06000035 	bltz	s0,a0801cb8 <printf+0x224>
a0801be4:	26730004 	addiu	s3,s3,4
a0801be8:	02003021 	move	a2,s0
a0801bec:	27a40038 	addiu	a0,sp,56
a0801bf0:	0c20067f 	jal	a08019fc <printf_u>
a0801bf4:	02e02821 	move	a1,s7
a0801bf8:	082006e7 	j	a0801b9c <printf+0x108>
a0801bfc:	26310001 	addiu	s1,s1,1
a0801c00:	27b40038 	addiu	s4,sp,56
a0801c04:	26730004 	addiu	s3,s3,4
a0801c08:	24100007 	li	s0,7
a0801c0c:	00101080 	sll	v0,s0,0x2
a0801c10:	00521006 	srlv	v0,s2,v0
a0801c14:	3046000f 	andi	a2,v0,0xf
a0801c18:	24c40057 	addiu	a0,a2,87
a0801c1c:	28c2000a 	slti	v0,a2,10
a0801c20:	24c30030 	addiu	v1,a2,48
a0801c24:	10400002 	beqz	v0,a0801c30 <printf+0x19c>
a0801c28:	00043600 	sll	a2,a0,0x18
a0801c2c:	00033600 	sll	a2,v1,0x18
a0801c30:	2610ffff 	addiu	s0,s0,-1
a0801c34:	00063603 	sra	a2,a2,0x18
a0801c38:	02802021 	move	a0,s4
a0801c3c:	0c200644 	jal	a0801910 <printf_c>
a0801c40:	02c02821 	move	a1,s6
a0801c44:	0601fff2 	bgez	s0,a0801c10 <printf+0x17c>
a0801c48:	00101080 	sll	v0,s0,0x2
a0801c4c:	082006e7 	j	a0801b9c <printf+0x108>
a0801c50:	26310001 	addiu	s1,s1,1
a0801c54:	8e620000 	lw	v0,0(s3)
a0801c58:	27b20038 	addiu	s2,sp,56
a0801c5c:	26730004 	addiu	s3,s3,4
a0801c60:	0820071d 	j	a0801c74 <printf+0x1e0>
a0801c64:	00408021 	move	s0,v0
a0801c68:	02a02821 	move	a1,s5
a0801c6c:	0c200644 	jal	a0801910 <printf_c>
a0801c70:	26100001 	addiu	s0,s0,1
a0801c74:	82060000 	lb	a2,0(s0)
a0801c78:	14c0fffb 	bnez	a2,a0801c68 <printf+0x1d4>
a0801c7c:	02402021 	move	a0,s2
a0801c80:	082006e7 	j	a0801b9c <printf+0x108>
a0801c84:	26310001 	addiu	s1,s1,1
a0801c88:	82660000 	lb	a2,0(s3)
a0801c8c:	27a40038 	addiu	a0,sp,56
a0801c90:	27a5003c 	addiu	a1,sp,60
a0801c94:	082006e5 	j	a0801b94 <printf+0x100>
a0801c98:	26730004 	addiu	s3,s3,4
a0801c9c:	8e660000 	lw	a2,0(s3)
a0801ca0:	27a40038 	addiu	a0,sp,56
a0801ca4:	27a5003c 	addiu	a1,sp,60
a0801ca8:	0c20067f 	jal	a08019fc <printf_u>
a0801cac:	26730004 	addiu	s3,s3,4
a0801cb0:	082006e7 	j	a0801b9c <printf+0x108>
a0801cb4:	26310001 	addiu	s1,s1,1
a0801cb8:	27a40038 	addiu	a0,sp,56
a0801cbc:	02e02821 	move	a1,s7
a0801cc0:	0c200644 	jal	a0801910 <printf_c>
a0801cc4:	2406002d 	li	a2,45
a0801cc8:	27a40038 	addiu	a0,sp,56
a0801ccc:	02e02821 	move	a1,s7
a0801cd0:	0c20067f 	jal	a08019fc <printf_u>
a0801cd4:	00103023 	negu	a2,s0
a0801cd8:	082006e7 	j	a0801b9c <printf+0x108>
a0801cdc:	26310001 	addiu	s1,s1,1

a0801ce0 <myoutput>:
a0801ce0:	27bdffd8 	addiu	sp,sp,-40
a0801ce4:	24020001 	li	v0,1
a0801ce8:	afb40020 	sw	s4,32(sp)
a0801cec:	afb20018 	sw	s2,24(sp)
a0801cf0:	afbf0024 	sw	ra,36(sp)
a0801cf4:	afb3001c 	sw	s3,28(sp)
a0801cf8:	afb10014 	sw	s1,20(sp)
a0801cfc:	afb00010 	sw	s0,16(sp)
a0801d00:	00c09021 	move	s2,a2
a0801d04:	10c20023 	beq	a2,v0,a0801d94 <myoutput+0xb4>
a0801d08:	00a0a021 	move	s4,a1
a0801d0c:	1a400019 	blez	s2,a0801d74 <myoutput+0x94>
a0801d10:	00008821 	move	s1,zero
a0801d14:	0820074d 	j	a0801d34 <myoutput+0x54>
a0801d18:	2413000a 	li	s3,10
a0801d1c:	00032600 	sll	a0,v1,0x18
a0801d20:	0c20025f 	jal	a080097c <printcharc>
a0801d24:	00042603 	sra	a0,a0,0x18
a0801d28:	0232182a 	slt	v1,s1,s2
a0801d2c:	10600012 	beqz	v1,a0801d78 <myoutput+0x98>
a0801d30:	8fbf0024 	lw	ra,36(sp)
a0801d34:	02918021 	addu	s0,s4,s1
a0801d38:	92030000 	lbu	v1,0(s0)
a0801d3c:	26310001 	addiu	s1,s1,1
a0801d40:	00031600 	sll	v0,v1,0x18
a0801d44:	00021603 	sra	v0,v0,0x18
a0801d48:	1453fff4 	bne	v0,s3,a0801d1c <myoutput+0x3c>
a0801d4c:	2404000d 	li	a0,13
a0801d50:	0c20025f 	jal	a080097c <printcharc>
a0801d54:	00000000 	nop
a0801d58:	92030000 	lbu	v1,0(s0)
a0801d5c:	00032600 	sll	a0,v1,0x18
a0801d60:	0c20025f 	jal	a080097c <printcharc>
a0801d64:	00042603 	sra	a0,a0,0x18
a0801d68:	0232182a 	slt	v1,s1,s2
a0801d6c:	1460fff2 	bnez	v1,a0801d38 <myoutput+0x58>
a0801d70:	02918021 	addu	s0,s4,s1
a0801d74:	8fbf0024 	lw	ra,36(sp)
a0801d78:	8fb40020 	lw	s4,32(sp)
a0801d7c:	8fb3001c 	lw	s3,28(sp)
a0801d80:	8fb20018 	lw	s2,24(sp)
a0801d84:	8fb10014 	lw	s1,20(sp)
a0801d88:	8fb00010 	lw	s0,16(sp)
a0801d8c:	03e00008 	jr	ra
a0801d90:	27bd0028 	addiu	sp,sp,40
a0801d94:	80a20000 	lb	v0,0(a1)
a0801d98:	1440ffdc 	bnez	v0,a0801d0c <myoutput+0x2c>
a0801d9c:	8fbf0024 	lw	ra,36(sp)
a0801da0:	8fb40020 	lw	s4,32(sp)
a0801da4:	8fb3001c 	lw	s3,28(sp)
a0801da8:	8fb20018 	lw	s2,24(sp)
a0801dac:	8fb10014 	lw	s1,20(sp)
a0801db0:	8fb00010 	lw	s0,16(sp)
a0801db4:	03e00008 	jr	ra
a0801db8:	27bd0028 	addiu	sp,sp,40

a0801dbc <printk>:
a0801dbc:	27bdffe8 	addiu	sp,sp,-24
a0801dc0:	00801021 	move	v0,a0
a0801dc4:	3c04a080 	lui	a0,0xa080
a0801dc8:	afa5001c 	sw	a1,28(sp)
a0801dcc:	afa60020 	sw	a2,32(sp)
a0801dd0:	afa70024 	sw	a3,36(sp)
a0801dd4:	24841ce0 	addiu	a0,a0,7392
a0801dd8:	27a7001c 	addiu	a3,sp,28
a0801ddc:	00403021 	move	a2,v0
a0801de0:	afbf0010 	sw	ra,16(sp)
a0801de4:	0c20085a 	jal	a0802168 <lp_Print>
a0801de8:	00002821 	move	a1,zero
a0801dec:	8fbf0010 	lw	ra,16(sp)
a0801df0:	03e00008 	jr	ra
a0801df4:	27bd0018 	addiu	sp,sp,24

a0801df8 <printk_clear>:
a0801df8:	27bdffe8 	addiu	sp,sp,-24
a0801dfc:	afb00010 	sw	s0,16(sp)
a0801e00:	afa5001c 	sw	a1,28(sp)
a0801e04:	afa60020 	sw	a2,32(sp)
a0801e08:	afa70024 	sw	a3,36(sp)
a0801e0c:	00808021 	move	s0,a0
a0801e10:	00002821 	move	a1,zero
a0801e14:	00002021 	move	a0,zero
a0801e18:	24060050 	li	a2,80
a0801e1c:	afbf0014 	sw	ra,20(sp)
a0801e20:	0c200d2f 	jal	a08034bc <clear_screen>
a0801e24:	2407001e 	li	a3,30
a0801e28:	3c04a080 	lui	a0,0xa080
a0801e2c:	02003021 	move	a2,s0
a0801e30:	27a7001c 	addiu	a3,sp,28
a0801e34:	24841ce0 	addiu	a0,a0,7392
a0801e38:	0c20085a 	jal	a0802168 <lp_Print>
a0801e3c:	00002821 	move	a1,zero
a0801e40:	8fbf0014 	lw	ra,20(sp)
a0801e44:	8fb00010 	lw	s0,16(sp)
a0801e48:	03e00008 	jr	ra
a0801e4c:	27bd0018 	addiu	sp,sp,24

a0801e50 <_panic>:
a0801e50:	27bdffe8 	addiu	sp,sp,-24
a0801e54:	00801021 	move	v0,a0
a0801e58:	00a01821 	move	v1,a1
a0801e5c:	3c04a080 	lui	a0,0xa080
a0801e60:	00402821 	move	a1,v0
a0801e64:	afb00010 	sw	s0,16(sp)
a0801e68:	248440e8 	addiu	a0,a0,16616
a0801e6c:	00c08021 	move	s0,a2
a0801e70:	00603021 	move	a2,v1
a0801e74:	afbf0014 	sw	ra,20(sp)
a0801e78:	0c20076f 	jal	a0801dbc <printk>
a0801e7c:	afa70024 	sw	a3,36(sp)
a0801e80:	3c04a080 	lui	a0,0xa080
a0801e84:	24841ce0 	addiu	a0,a0,7392
a0801e88:	02003021 	move	a2,s0
a0801e8c:	27a70024 	addiu	a3,sp,36
a0801e90:	0c20085a 	jal	a0802168 <lp_Print>
a0801e94:	00002821 	move	a1,zero
a0801e98:	3c04a080 	lui	a0,0xa080
a0801e9c:	0c20076f 	jal	a0801dbc <printk>
a0801ea0:	2484424c 	addiu	a0,a0,16972
a0801ea4:	082007a9 	j	a0801ea4 <_panic+0x54>
a0801ea8:	00000000 	nop
a0801eac:	00000000 	nop

a0801eb0 <PrintNum>:
a0801eb0:	8faa0010 	lw	t2,16(sp)
a0801eb4:	8fad0014 	lw	t5,20(sp)
a0801eb8:	8fac001c 	lw	t4,28(sp)
a0801ebc:	83ab0018 	lb	t3,24(sp)
a0801ec0:	00804821 	move	t1,a0
a0801ec4:	00804021 	move	t0,a0
a0801ec8:	00a6001b 	divu	zero,a1,a2
a0801ecc:	14c00002 	bnez	a2,a0801ed8 <PrintNum+0x28>
a0801ed0:	00000000 	nop
a0801ed4:	0007000d 	break	0x7
a0801ed8:	00001810 	mfhi	v1
a0801edc:	2862000a 	slti	v0,v1,10
a0801ee0:	14400004 	bnez	v0,a0801ef4 <PrintNum+0x44>
a0801ee4:	24640030 	addiu	a0,v1,48
a0801ee8:	24640037 	addiu	a0,v1,55
a0801eec:	11800037 	beqz	t4,a0801fcc <PrintNum+0x11c>
a0801ef0:	24620057 	addiu	v0,v1,87
a0801ef4:	a1040000 	sb	a0,0(t0)
a0801ef8:	00a6001b 	divu	zero,a1,a2
a0801efc:	14c00002 	bnez	a2,a0801f08 <PrintNum+0x58>
a0801f00:	00000000 	nop
a0801f04:	0007000d 	break	0x7
a0801f08:	00001012 	mflo	v0
a0801f0c:	00002812 	mflo	a1
a0801f10:	1440ffed 	bnez	v0,a0801ec8 <PrintNum+0x18>
a0801f14:	25080001 	addiu	t0,t0,1
a0801f18:	10e00005 	beqz	a3,a0801f30 <PrintNum+0x80>
a0801f1c:	01092823 	subu	a1,t0,t1
a0801f20:	2402002d 	li	v0,45
a0801f24:	a1020000 	sb	v0,0(t0)
a0801f28:	25080001 	addiu	t0,t0,1
a0801f2c:	01092823 	subu	a1,t0,t1
a0801f30:	0145102a 	slt	v0,t2,a1
a0801f34:	54400001 	bnezl	v0,a0801f3c <PrintNum+0x8c>
a0801f38:	00a05021 	move	t2,a1
a0801f3c:	55a00001 	bnezl	t5,a0801f44 <PrintNum+0x94>
a0801f40:	240b0020 	li	t3,32
a0801f44:	0007102b 	sltu	v0,zero,a3
a0801f48:	2da30001 	sltiu	v1,t5,1
a0801f4c:	00431024 	and	v0,v0,v1
a0801f50:	10400005 	beqz	v0,a0801f68 <PrintNum+0xb8>
a0801f54:	00aa102a 	slt	v0,a1,t2
a0801f58:	24020030 	li	v0,48
a0801f5c:	5162001d 	beql	t3,v0,a0801fd4 <PrintNum+0x124>
a0801f60:	24a4ffff 	addiu	a0,a1,-1
a0801f64:	00aa102a 	slt	v0,a1,t2
a0801f68:	082007df 	j	a0801f7c <PrintNum+0xcc>
a0801f6c:	00a02021 	move	a0,a1
a0801f70:	24840001 	addiu	a0,a0,1
a0801f74:	008a102a 	slt	v0,a0,t2
a0801f78:	a06b0000 	sb	t3,0(v1)
a0801f7c:	1440fffc 	bnez	v0,a0801f70 <PrintNum+0xc0>
a0801f80:	01241821 	addu	v1,t1,a0
a0801f84:	24a7ffff 	addiu	a3,a1,-1
a0801f88:	15a00002 	bnez	t5,a0801f94 <PrintNum+0xe4>
a0801f8c:	00004021 	move	t0,zero
a0801f90:	2547ffff 	addiu	a3,t2,-1
a0801f94:	18e0000b 	blez	a3,a0801fc4 <PrintNum+0x114>
a0801f98:	00000000 	nop
a0801f9c:	01282021 	addu	a0,t1,t0
a0801fa0:	01272821 	addu	a1,t1,a3
a0801fa4:	80860000 	lb	a2,0(a0)
a0801fa8:	90a30000 	lbu	v1,0(a1)
a0801fac:	25080001 	addiu	t0,t0,1
a0801fb0:	24e7ffff 	addiu	a3,a3,-1
a0801fb4:	0107102a 	slt	v0,t0,a3
a0801fb8:	a0830000 	sb	v1,0(a0)
a0801fbc:	1440fff7 	bnez	v0,a0801f9c <PrintNum+0xec>
a0801fc0:	a0a60000 	sb	a2,0(a1)
a0801fc4:	03e00008 	jr	ra
a0801fc8:	01401021 	move	v0,t2
a0801fcc:	082007be 	j	a0801ef8 <PrintNum+0x48>
a0801fd0:	a1020000 	sb	v0,0(t0)
a0801fd4:	2546ffff 	addiu	a2,t2,-1
a0801fd8:	082007fb 	j	a0801fec <PrintNum+0x13c>
a0801fdc:	0086102a 	slt	v0,a0,a2
a0801fe0:	24840001 	addiu	a0,a0,1
a0801fe4:	0086102a 	slt	v0,a0,a2
a0801fe8:	a06b0000 	sb	t3,0(v1)
a0801fec:	1440fffc 	bnez	v0,a0801fe0 <PrintNum+0x130>
a0801ff0:	01241821 	addu	v1,t1,a0
a0801ff4:	012a1821 	addu	v1,t1,t2
a0801ff8:	2402002d 	li	v0,45
a0801ffc:	082007e1 	j	a0801f84 <PrintNum+0xd4>
a0802000:	a062ffff 	sb	v0,-1(v1)

a0802004 <PrintChar>:
a0802004:	00052e00 	sll	a1,a1,0x18
a0802008:	18c0001b 	blez	a2,a0802078 <PrintChar+0x74>
a080200c:	00052e03 	sra	a1,a1,0x18
a0802010:	10e0000d 	beqz	a3,a0802048 <PrintChar+0x44>
a0802014:	24c8ffff 	addiu	t0,a2,-1
a0802018:	24070001 	li	a3,1
a080201c:	00e6102a 	slt	v0,a3,a2
a0802020:	10400007 	beqz	v0,a0802040 <PrintChar+0x3c>
a0802024:	a0850000 	sb	a1,0(a0)
a0802028:	24050020 	li	a1,32
a080202c:	00871821 	addu	v1,a0,a3
a0802030:	24e70001 	addiu	a3,a3,1
a0802034:	00e6102a 	slt	v0,a3,a2
a0802038:	1440fffc 	bnez	v0,a080202c <PrintChar+0x28>
a080203c:	a0650000 	sb	a1,0(v1)
a0802040:	03e00008 	jr	ra
a0802044:	00c01021 	move	v0,a2
a0802048:	19000007 	blez	t0,a0802068 <PrintChar+0x64>
a080204c:	00003821 	move	a3,zero
a0802050:	24090020 	li	t1,32
a0802054:	00871821 	addu	v1,a0,a3
a0802058:	24e70001 	addiu	a3,a3,1
a080205c:	00e8102a 	slt	v0,a3,t0
a0802060:	1440fffc 	bnez	v0,a0802054 <PrintChar+0x50>
a0802064:	a0690000 	sb	t1,0(v1)
a0802068:	00861021 	addu	v0,a0,a2
a080206c:	a045ffff 	sb	a1,-1(v0)
a0802070:	03e00008 	jr	ra
a0802074:	00c01021 	move	v0,a2
a0802078:	08200804 	j	a0802010 <PrintChar+0xc>
a080207c:	24060001 	li	a2,1

a0802080 <PrintString>:
a0802080:	80a20000 	lb	v0,0(a1)
a0802084:	00a05021 	move	t2,a1
a0802088:	00804821 	move	t1,a0
a080208c:	00002821 	move	a1,zero
a0802090:	08200828 	j	a08020a0 <PrintString+0x20>
a0802094:	25430001 	addiu	v1,t2,1
a0802098:	24a50001 	addiu	a1,a1,1
a080209c:	24630001 	addiu	v1,v1,1
a08020a0:	5440fffd 	bnezl	v0,a0802098 <PrintString+0x18>
a08020a4:	90620000 	lbu	v0,0(v1)
a08020a8:	00c5102a 	slt	v0,a2,a1
a08020ac:	54400001 	bnezl	v0,a08020b4 <PrintString+0x34>
a08020b0:	00a03021 	move	a2,a1
a08020b4:	10e00015 	beqz	a3,a080210c <PrintString+0x8c>
a08020b8:	00c52023 	subu	a0,a2,a1
a08020bc:	18a00008 	blez	a1,a08020e0 <PrintString+0x60>
a08020c0:	00003821 	move	a3,zero
a08020c4:	01471021 	addu	v0,t2,a3
a08020c8:	90440000 	lbu	a0,0(v0)
a08020cc:	01271821 	addu	v1,t1,a3
a08020d0:	24e70001 	addiu	a3,a3,1
a08020d4:	00e5102a 	slt	v0,a3,a1
a08020d8:	1440fffa 	bnez	v0,a08020c4 <PrintString+0x44>
a08020dc:	a0640000 	sb	a0,0(v1)
a08020e0:	00a6102a 	slt	v0,a1,a2
a08020e4:	10400007 	beqz	v0,a0802104 <PrintString+0x84>
a08020e8:	00a03821 	move	a3,a1
a08020ec:	24040020 	li	a0,32
a08020f0:	01271821 	addu	v1,t1,a3
a08020f4:	24e70001 	addiu	a3,a3,1
a08020f8:	00e6102a 	slt	v0,a3,a2
a08020fc:	1440fffc 	bnez	v0,a08020f0 <PrintString+0x70>
a0802100:	a0640000 	sb	a0,0(v1)
a0802104:	03e00008 	jr	ra
a0802108:	00c01021 	move	v0,a2
a080210c:	18800007 	blez	a0,a080212c <PrintString+0xac>
a0802110:	00003821 	move	a3,zero
a0802114:	24080020 	li	t0,32
a0802118:	01271821 	addu	v1,t1,a3
a080211c:	24e70001 	addiu	a3,a3,1
a0802120:	00e4102a 	slt	v0,a3,a0
a0802124:	1440fffc 	bnez	v0,a0802118 <PrintString+0x98>
a0802128:	a0680000 	sb	t0,0(v1)
a080212c:	0086102a 	slt	v0,a0,a2
a0802130:	1040fff4 	beqz	v0,a0802104 <PrintString+0x84>
a0802134:	00803821 	move	a3,a0
a0802138:	01461023 	subu	v0,t2,a2
a080213c:	00451021 	addu	v0,v0,a1
a0802140:	00822821 	addu	a1,a0,v0
a0802144:	90a20000 	lbu	v0,0(a1)
a0802148:	01271821 	addu	v1,t1,a3
a080214c:	24e70001 	addiu	a3,a3,1
a0802150:	00e6202a 	slt	a0,a3,a2
a0802154:	a0620000 	sb	v0,0(v1)
a0802158:	1480fffa 	bnez	a0,a0802144 <PrintString+0xc4>
a080215c:	24a50001 	addiu	a1,a1,1
a0802160:	03e00008 	jr	ra
a0802164:	00c01021 	move	v0,a2

a0802168 <lp_Print>:
a0802168:	27bdfbe0 	addiu	sp,sp,-1056
a080216c:	afb30414 	sw	s3,1044(sp)
a0802170:	afb20410 	sw	s2,1040(sp)
a0802174:	afb1040c 	sw	s1,1036(sp)
a0802178:	afb00408 	sw	s0,1032(sp)
a080217c:	afbf0418 	sw	ra,1048(sp)
a0802180:	00809021 	move	s2,a0
a0802184:	00a09821 	move	s3,a1
a0802188:	00c08021 	move	s0,a2
a080218c:	00e08821 	move	s1,a3
a0802190:	82030000 	lb	v1,0(s0)
a0802194:	38620025 	xori	v0,v1,0x25
a0802198:	0002102b 	sltu	v0,zero,v0
a080219c:	0003182b 	sltu	v1,zero,v1
a08021a0:	00621824 	and	v1,v1,v0
a08021a4:	10600009 	beqz	v1,a08021cc <lp_Print+0x64>
a08021a8:	02002821 	move	a1,s0
a08021ac:	26100001 	addiu	s0,s0,1
a08021b0:	82020000 	lb	v0,0(s0)
a08021b4:	38430025 	xori	v1,v0,0x25
a08021b8:	0003182b 	sltu	v1,zero,v1
a08021bc:	0002102b 	sltu	v0,zero,v0
a08021c0:	00431024 	and	v0,v0,v1
a08021c4:	5440fffa 	bnezl	v0,a08021b0 <lp_Print+0x48>
a08021c8:	26100001 	addiu	s0,s0,1
a08021cc:	02053023 	subu	a2,s0,a1
a08021d0:	2cc203e9 	sltiu	v0,a2,1001
a08021d4:	5040011c 	beqzl	v0,a0802648 <lp_Print+0x4e0>
a08021d8:	3c05a080 	lui	a1,0xa080
a08021dc:	0240f809 	jalr	s2
a08021e0:	02602021 	move	a0,s3
a08021e4:	82020000 	lb	v0,0(s0)
a08021e8:	1040010b 	beqz	v0,a0802618 <lp_Print+0x4b0>
a08021ec:	26100001 	addiu	s0,s0,1
a08021f0:	92050000 	lbu	a1,0(s0)
a08021f4:	2402006c 	li	v0,108
a08021f8:	00051e00 	sll	v1,a1,0x18
a08021fc:	00031e03 	sra	v1,v1,0x18
a0802200:	1062004c 	beq	v1,v0,a0802334 <lp_Print+0x1cc>
a0802204:	00003021 	move	a2,zero
a0802208:	00051e00 	sll	v1,a1,0x18
a080220c:	00031e03 	sra	v1,v1,0x18
a0802210:	2402002d 	li	v0,45
a0802214:	00004021 	move	t0,zero
a0802218:	00004821 	move	t1,zero
a080221c:	10620041 	beq	v1,v0,a0802324 <lp_Print+0x1bc>
a0802220:	240a0020 	li	t2,32
a0802224:	00051e00 	sll	v1,a1,0x18
a0802228:	00031e03 	sra	v1,v1,0x18
a080222c:	24020030 	li	v0,48
a0802230:	50620039 	beql	v1,v0,a0802318 <lp_Print+0x1b0>
a0802234:	26100001 	addiu	s0,s0,1
a0802238:	24a2ffd0 	addiu	v0,a1,-48
a080223c:	304200ff 	andi	v0,v0,0xff
a0802240:	2c42000a 	sltiu	v0,v0,10
a0802244:	1040000f 	beqz	v0,a0802284 <lp_Print+0x11c>
a0802248:	00051e00 	sll	v1,a1,0x18
a080224c:	26100001 	addiu	s0,s0,1
a0802250:	00051600 	sll	v0,a1,0x18
a0802254:	92050000 	lbu	a1,0(s0)
a0802258:	00081880 	sll	v1,t0,0x2
a080225c:	00681821 	addu	v1,v1,t0
a0802260:	24a4ffd0 	addiu	a0,a1,-48
a0802264:	00021603 	sra	v0,v0,0x18
a0802268:	00031840 	sll	v1,v1,0x1
a080226c:	308400ff 	andi	a0,a0,0xff
a0802270:	00621821 	addu	v1,v1,v0
a0802274:	2c84000a 	sltiu	a0,a0,10
a0802278:	1480fff4 	bnez	a0,a080224c <lp_Print+0xe4>
a080227c:	2468ffd0 	addiu	t0,v1,-48
a0802280:	00051e00 	sll	v1,a1,0x18
a0802284:	00031e03 	sra	v1,v1,0x18
a0802288:	2402002e 	li	v0,46
a080228c:	5062000d 	beql	v1,v0,a08022c4 <lp_Print+0x15c>
a0802290:	26100001 	addiu	s0,s0,1
a0802294:	00051e00 	sll	v1,a1,0x18
a0802298:	00031e03 	sra	v1,v1,0x18
a080229c:	2c620079 	sltiu	v0,v1,121
a08022a0:	10400017 	beqz	v0,a0802300 <lp_Print+0x198>
a08022a4:	00003821 	move	a3,zero
a08022a8:	00031080 	sll	v0,v1,0x2
a08022ac:	3c03a080 	lui	v1,0xa080
a08022b0:	24633da0 	addiu	v1,v1,15776
a08022b4:	00431021 	addu	v0,v0,v1
a08022b8:	8c440000 	lw	a0,0(v0)
a08022bc:	00800008 	jr	a0
a08022c0:	00000000 	nop
a08022c4:	92050000 	lbu	a1,0(s0)
a08022c8:	24a2ffd0 	addiu	v0,a1,-48
a08022cc:	304200ff 	andi	v0,v0,0xff
a08022d0:	2c42000a 	sltiu	v0,v0,10
a08022d4:	1040fff0 	beqz	v0,a0802298 <lp_Print+0x130>
a08022d8:	00051e00 	sll	v1,a1,0x18
a08022dc:	26100001 	addiu	s0,s0,1
a08022e0:	92050000 	lbu	a1,0(s0)
a08022e4:	24a2ffd0 	addiu	v0,a1,-48
a08022e8:	304200ff 	andi	v0,v0,0xff
a08022ec:	2c42000a 	sltiu	v0,v0,10
a08022f0:	5440fff4 	bnezl	v0,a08022c4 <lp_Print+0x15c>
a08022f4:	26100001 	addiu	s0,s0,1
a08022f8:	082008a6 	j	a0802298 <lp_Print+0x130>
a08022fc:	00051e00 	sll	v1,a1,0x18
a0802300:	02602021 	move	a0,s3
a0802304:	02002821 	move	a1,s0
a0802308:	0240f809 	jalr	s2
a080230c:	24060001 	li	a2,1
a0802310:	08200864 	j	a0802190 <lp_Print+0x28>
a0802314:	26100001 	addiu	s0,s0,1
a0802318:	92050000 	lbu	a1,0(s0)
a080231c:	0820088e 	j	a0802238 <lp_Print+0xd0>
a0802320:	240a0030 	li	t2,48
a0802324:	26100001 	addiu	s0,s0,1
a0802328:	92050000 	lbu	a1,0(s0)
a080232c:	08200889 	j	a0802224 <lp_Print+0xbc>
a0802330:	24090001 	li	t1,1
a0802334:	26100001 	addiu	s0,s0,1
a0802338:	92050000 	lbu	a1,0(s0)
a080233c:	08200882 	j	a0802208 <lp_Print+0xa0>
a0802340:	24060001 	li	a2,1
a0802344:	26220003 	addiu	v0,s1,3
a0802348:	2403fffc 	li	v1,-4
a080234c:	00438824 	and	s1,v0,v1
a0802350:	8e250000 	lw	a1,0(s1)
a0802354:	24060010 	li	a2,16
a0802358:	27a40020 	addiu	a0,sp,32
a080235c:	00003821 	move	a3,zero
a0802360:	afa80010 	sw	t0,16(sp)
a0802364:	afa90014 	sw	t1,20(sp)
a0802368:	afaa0018 	sw	t2,24(sp)
a080236c:	0c2007ac 	jal	a0801eb0 <PrintNum>
a0802370:	afa0001c 	sw	zero,28(sp)
a0802374:	00403021 	move	a2,v0
a0802378:	2c4203e9 	sltiu	v0,v0,1001
a080237c:	104000b8 	beqz	v0,a0802660 <lp_Print+0x4f8>
a0802380:	26310004 	addiu	s1,s1,4
a0802384:	02602021 	move	a0,s3
a0802388:	0240f809 	jalr	s2
a080238c:	27a50020 	addiu	a1,sp,32
a0802390:	08200864 	j	a0802190 <lp_Print+0x28>
a0802394:	26100001 	addiu	s0,s0,1
a0802398:	26220003 	addiu	v0,s1,3
a080239c:	2403fffc 	li	v1,-4
a08023a0:	00438824 	and	s1,v0,v1
a08023a4:	8e250000 	lw	a1,0(s1)
a08023a8:	2406000a 	li	a2,10
a08023ac:	27a40020 	addiu	a0,sp,32
a08023b0:	00003821 	move	a3,zero
a08023b4:	afa80010 	sw	t0,16(sp)
a08023b8:	afa90014 	sw	t1,20(sp)
a08023bc:	afaa0018 	sw	t2,24(sp)
a08023c0:	0c2007ac 	jal	a0801eb0 <PrintNum>
a08023c4:	afa0001c 	sw	zero,28(sp)
a08023c8:	00403021 	move	a2,v0
a08023cc:	2c4203e9 	sltiu	v0,v0,1001
a08023d0:	1440ffec 	bnez	v0,a0802384 <lp_Print+0x21c>
a08023d4:	26310004 	addiu	s1,s1,4
a08023d8:	3c05a080 	lui	a1,0xa080
a08023dc:	02602021 	move	a0,s3
a08023e0:	24a53d80 	addiu	a1,a1,15744
a08023e4:	0240f809 	jalr	s2
a08023e8:	24060018 	li	a2,24
a08023ec:	082008fb 	j	a08023ec <lp_Print+0x284>
a08023f0:	00000000 	nop
a08023f4:	26240003 	addiu	a0,s1,3
a08023f8:	2402fffc 	li	v0,-4
a08023fc:	00828824 	and	s1,a0,v0
a0802400:	8e250000 	lw	a1,0(s1)
a0802404:	01003021 	move	a2,t0
a0802408:	01203821 	move	a3,t1
a080240c:	0c200820 	jal	a0802080 <PrintString>
a0802410:	27a40020 	addiu	a0,sp,32
a0802414:	00403021 	move	a2,v0
a0802418:	2c4203e9 	sltiu	v0,v0,1001
a080241c:	1440ffd9 	bnez	v0,a0802384 <lp_Print+0x21c>
a0802420:	26310004 	addiu	s1,s1,4
a0802424:	3c05a080 	lui	a1,0xa080
a0802428:	02602021 	move	a0,s3
a080242c:	24a53d80 	addiu	a1,a1,15744
a0802430:	0240f809 	jalr	s2
a0802434:	24060018 	li	a2,24
a0802438:	0820090e 	j	a0802438 <lp_Print+0x2d0>
a080243c:	00000000 	nop
a0802440:	26220003 	addiu	v0,s1,3
a0802444:	2403fffc 	li	v1,-4
a0802448:	00438824 	and	s1,v0,v1
a080244c:	8e250000 	lw	a1,0(s1)
a0802450:	24060008 	li	a2,8
a0802454:	27a40020 	addiu	a0,sp,32
a0802458:	00003821 	move	a3,zero
a080245c:	afa80010 	sw	t0,16(sp)
a0802460:	afa90014 	sw	t1,20(sp)
a0802464:	afaa0018 	sw	t2,24(sp)
a0802468:	0c2007ac 	jal	a0801eb0 <PrintNum>
a080246c:	afa0001c 	sw	zero,28(sp)
a0802470:	00403021 	move	a2,v0
a0802474:	2c4203e9 	sltiu	v0,v0,1001
a0802478:	1440ffc2 	bnez	v0,a0802384 <lp_Print+0x21c>
a080247c:	26310004 	addiu	s1,s1,4
a0802480:	3c05a080 	lui	a1,0xa080
a0802484:	02602021 	move	a0,s3
a0802488:	24a53d80 	addiu	a1,a1,15744
a080248c:	0240f809 	jalr	s2
a0802490:	24060018 	li	a2,24
a0802494:	08200925 	j	a0802494 <lp_Print+0x32c>
a0802498:	00000000 	nop
a080249c:	26220003 	addiu	v0,s1,3
a08024a0:	2403fffc 	li	v1,-4
a08024a4:	00438824 	and	s1,v0,v1
a08024a8:	8e250000 	lw	a1,0(s1)
a08024ac:	04a00057 	bltz	a1,a080260c <lp_Print+0x4a4>
a08024b0:	26310004 	addiu	s1,s1,4
a08024b4:	2406000a 	li	a2,10
a08024b8:	27a40020 	addiu	a0,sp,32
a08024bc:	afa80010 	sw	t0,16(sp)
a08024c0:	afa90014 	sw	t1,20(sp)
a08024c4:	afaa0018 	sw	t2,24(sp)
a08024c8:	0c2007ac 	jal	a0801eb0 <PrintNum>
a08024cc:	afa0001c 	sw	zero,28(sp)
a08024d0:	00403021 	move	a2,v0
a08024d4:	2c4203e9 	sltiu	v0,v0,1001
a08024d8:	1440ffab 	bnez	v0,a0802388 <lp_Print+0x220>
a08024dc:	02602021 	move	a0,s3
a08024e0:	3c05a080 	lui	a1,0xa080
a08024e4:	24a53d80 	addiu	a1,a1,15744
a08024e8:	0240f809 	jalr	s2
a08024ec:	24060018 	li	a2,24
a08024f0:	0820093c 	j	a08024f0 <lp_Print+0x388>
a08024f4:	00000000 	nop
a08024f8:	26240003 	addiu	a0,s1,3
a08024fc:	2402fffc 	li	v0,-4
a0802500:	00828824 	and	s1,a0,v0
a0802504:	82250000 	lb	a1,0(s1)
a0802508:	01003021 	move	a2,t0
a080250c:	01203821 	move	a3,t1
a0802510:	0c200801 	jal	a0802004 <PrintChar>
a0802514:	27a40020 	addiu	a0,sp,32
a0802518:	00403021 	move	a2,v0
a080251c:	2c4203e9 	sltiu	v0,v0,1001
a0802520:	1440ff98 	bnez	v0,a0802384 <lp_Print+0x21c>
a0802524:	26310004 	addiu	s1,s1,4
a0802528:	3c05a080 	lui	a1,0xa080
a080252c:	02602021 	move	a0,s3
a0802530:	24a53d80 	addiu	a1,a1,15744
a0802534:	0240f809 	jalr	s2
a0802538:	24060018 	li	a2,24
a080253c:	0820094f 	j	a080253c <lp_Print+0x3d4>
a0802540:	00000000 	nop
a0802544:	26220003 	addiu	v0,s1,3
a0802548:	2403fffc 	li	v1,-4
a080254c:	00438824 	and	s1,v0,v1
a0802550:	8e250000 	lw	a1,0(s1)
a0802554:	24060002 	li	a2,2
a0802558:	27a40020 	addiu	a0,sp,32
a080255c:	00003821 	move	a3,zero
a0802560:	afa80010 	sw	t0,16(sp)
a0802564:	afa90014 	sw	t1,20(sp)
a0802568:	afaa0018 	sw	t2,24(sp)
a080256c:	0c2007ac 	jal	a0801eb0 <PrintNum>
a0802570:	afa0001c 	sw	zero,28(sp)
a0802574:	00403021 	move	a2,v0
a0802578:	2c4203e9 	sltiu	v0,v0,1001
a080257c:	1440ff81 	bnez	v0,a0802384 <lp_Print+0x21c>
a0802580:	26310004 	addiu	s1,s1,4
a0802584:	3c05a080 	lui	a1,0xa080
a0802588:	02602021 	move	a0,s3
a080258c:	24a53d80 	addiu	a1,a1,15744
a0802590:	0240f809 	jalr	s2
a0802594:	24060018 	li	a2,24
a0802598:	08200966 	j	a0802598 <lp_Print+0x430>
a080259c:	00000000 	nop
a08025a0:	26220003 	addiu	v0,s1,3
a08025a4:	2403fffc 	li	v1,-4
a08025a8:	00438824 	and	s1,v0,v1
a08025ac:	8e250000 	lw	a1,0(s1)
a08025b0:	24060010 	li	a2,16
a08025b4:	24020001 	li	v0,1
a08025b8:	27a40020 	addiu	a0,sp,32
a08025bc:	00003821 	move	a3,zero
a08025c0:	afa80010 	sw	t0,16(sp)
a08025c4:	afa90014 	sw	t1,20(sp)
a08025c8:	afaa0018 	sw	t2,24(sp)
a08025cc:	0c2007ac 	jal	a0801eb0 <PrintNum>
a08025d0:	afa2001c 	sw	v0,28(sp)
a08025d4:	00403021 	move	a2,v0
a08025d8:	2c4203e9 	sltiu	v0,v0,1001
a08025dc:	1440ff69 	bnez	v0,a0802384 <lp_Print+0x21c>
a08025e0:	26310004 	addiu	s1,s1,4
a08025e4:	3c05a080 	lui	a1,0xa080
a08025e8:	02602021 	move	a0,s3
a08025ec:	24a53d80 	addiu	a1,a1,15744
a08025f0:	0240f809 	jalr	s2
a08025f4:	24060018 	li	a2,24
a08025f8:	0820097e 	j	a08025f8 <lp_Print+0x490>
a08025fc:	00000000 	nop
a0802600:	2610ffff 	addiu	s0,s0,-1
a0802604:	08200864 	j	a0802190 <lp_Print+0x28>
a0802608:	26100001 	addiu	s0,s0,1
a080260c:	00052823 	negu	a1,a1
a0802610:	0820092d 	j	a08024b4 <lp_Print+0x34c>
a0802614:	24070001 	li	a3,1
a0802618:	3c05a080 	lui	a1,0xa080
a080261c:	02602021 	move	a0,s3
a0802620:	24a53d9c 	addiu	a1,a1,15772
a0802624:	0240f809 	jalr	s2
a0802628:	24060001 	li	a2,1
a080262c:	8fbf0418 	lw	ra,1048(sp)
a0802630:	8fb30414 	lw	s3,1044(sp)
a0802634:	8fb20410 	lw	s2,1040(sp)
a0802638:	8fb1040c 	lw	s1,1036(sp)
a080263c:	8fb00408 	lw	s0,1032(sp)
a0802640:	03e00008 	jr	ra
a0802644:	27bd0420 	addiu	sp,sp,1056
a0802648:	02602021 	move	a0,s3
a080264c:	24a53d80 	addiu	a1,a1,15744
a0802650:	0240f809 	jalr	s2
a0802654:	24060018 	li	a2,24
a0802658:	08200996 	j	a0802658 <lp_Print+0x4f0>
a080265c:	00000000 	nop
a0802660:	3c05a080 	lui	a1,0xa080
a0802664:	02602021 	move	a0,s3
a0802668:	24a53d80 	addiu	a1,a1,15744
a080266c:	0240f809 	jalr	s2
a0802670:	24060018 	li	a2,24
a0802674:	0820099d 	j	a0802674 <lp_Print+0x50c>
a0802678:	00000000 	nop
a080267c:	00000000 	nop

a0802680 <check_sleeping>:
a0802680:	27bdffe0 	addiu	sp,sp,-32
a0802684:	afb10014 	sw	s1,20(sp)
a0802688:	3c11a080 	lui	s1,0xa080
a080268c:	afbf0018 	sw	ra,24(sp)
a0802690:	082009bf 	j	a08026fc <check_sleeping+0x7c>
a0802694:	afb00010 	sw	s0,16(sp)
a0802698:	0c200db6 	jal	a08036d8 <peek>
a080269c:	00000000 	nop
a08026a0:	00402821 	move	a1,v0
a08026a4:	3c06a080 	lui	a2,0xa080
a08026a8:	8cc24394 	lw	v0,17300(a2)
a08026ac:	8ca3015c 	lw	v1,348(a1)
a08026b0:	0043102b 	sltu	v0,v0,v1
a08026b4:	14400016 	bnez	v0,a0802710 <check_sleeping+0x90>
a08026b8:	260443b0 	addiu	a0,s0,17328
a08026bc:	8cc24394 	lw	v0,17300(a2)
a08026c0:	14620008 	bne	v1,v0,a08026e4 <check_sleeping+0x64>
a08026c4:	24020001 	li	v0,1
a08026c8:	8cc24390 	lw	v0,17296(a2)
a08026cc:	8ca30158 	lw	v1,344(a1)
a08026d0:	0043102b 	sltu	v0,v0,v1
a08026d4:	1440000f 	bnez	v0,a0802714 <check_sleeping+0x94>
a08026d8:	8fbf0018 	lw	ra,24(sp)
a08026dc:	8cc24390 	lw	v0,17296(a2)
a08026e0:	24020001 	li	v0,1
a08026e4:	0c200d9f 	jal	a080367c <dequeue>
a08026e8:	aca20150 	sw	v0,336(a1)
a08026ec:	3c04a080 	lui	a0,0xa080
a08026f0:	2484439c 	addiu	a0,a0,17308
a08026f4:	0c200dab 	jal	a08036ac <enqueue>
a08026f8:	00402821 	move	a1,v0
a08026fc:	262443b0 	addiu	a0,s1,17328
a0802700:	0c200db2 	jal	a08036c8 <is_empty>
a0802704:	3c10a080 	lui	s0,0xa080
a0802708:	1040ffe3 	beqz	v0,a0802698 <check_sleeping+0x18>
a080270c:	260443b0 	addiu	a0,s0,17328
a0802710:	8fbf0018 	lw	ra,24(sp)
a0802714:	8fb10014 	lw	s1,20(sp)
a0802718:	8fb00010 	lw	s0,16(sp)
a080271c:	03e00008 	jr	ra
a0802720:	27bd0020 	addiu	sp,sp,32

a0802724 <put_current_running>:
a0802724:	3c02a080 	lui	v0,0xa080
a0802728:	8c4543a4 	lw	a1,17316(v0)
a080272c:	24030001 	li	v1,1
a0802730:	3c04a080 	lui	a0,0xa080
a0802734:	aca30150 	sw	v1,336(a1)
a0802738:	08200dab 	j	a08036ac <enqueue>
a080273c:	2484439c 	addiu	a0,a0,17308

a0802740 <scheduler>:
a0802740:	27bdffe8 	addiu	sp,sp,-24
a0802744:	afbf0014 	sw	ra,20(sp)
a0802748:	afb00010 	sw	s0,16(sp)
a080274c:	3c02a080 	lui	v0,0xa080
a0802750:	8c43435c 	lw	v1,17244(v0)
a0802754:	1460001f 	bnez	v1,a08027d4 <scheduler+0x94>
a0802758:	3c06a080 	lui	a2,0xa080
a080275c:	24c63fa8 	addiu	a2,a2,16296
a0802760:	00002021 	move	a0,zero
a0802764:	0c200c41 	jal	a0803104 <print_str>
a0802768:	00002821 	move	a1,zero
a080276c:	3c06a080 	lui	a2,0xa080
a0802770:	24c640fc 	addiu	a2,a2,16636
a0802774:	00002021 	move	a0,zero
a0802778:	0c200c41 	jal	a0803104 <print_str>
a080277c:	24050013 	li	a1,19
a0802780:	3c06a080 	lui	a2,0xa080
a0802784:	24c63fd8 	addiu	a2,a2,16344
a0802788:	24040001 	li	a0,1
a080278c:	0c200c41 	jal	a0803104 <print_str>
a0802790:	00002821 	move	a1,zero
a0802794:	3c06a080 	lui	a2,0xa080
a0802798:	24c6410c 	addiu	a2,a2,16652
a080279c:	24040001 	li	a0,1
a08027a0:	0c200c41 	jal	a0803104 <print_str>
a08027a4:	24050006 	li	a1,6
a08027a8:	3c06a080 	lui	a2,0xa080
a08027ac:	24c63fec 	addiu	a2,a2,16364
a08027b0:	24040002 	li	a0,2
a08027b4:	0c200c41 	jal	a0803104 <print_str>
a08027b8:	00002821 	move	a1,zero
a08027bc:	24040002 	li	a0,2
a08027c0:	24050006 	li	a1,6
a08027c4:	0c200cde 	jal	a0803378 <print_int>
a08027c8:	24060031 	li	a2,49
a08027cc:	082009f3 	j	a08027cc <scheduler+0x8c>
a08027d0:	00000000 	nop
a08027d4:	0c2009a0 	jal	a0802680 <check_sleeping>
a08027d8:	3c10a080 	lui	s0,0xa080
a08027dc:	082009ff 	j	a08027fc <scheduler+0xbc>
a08027e0:	00000000 	nop
a08027e4:	0c200602 	jal	a0801808 <leave_critical>
a08027e8:	00000000 	nop
a08027ec:	0c2005f2 	jal	a08017c8 <enter_critical>
a08027f0:	00000000 	nop
a08027f4:	0c2009a0 	jal	a0802680 <check_sleeping>
a08027f8:	00000000 	nop
a08027fc:	0c200db2 	jal	a08036c8 <is_empty>
a0802800:	2604439c 	addiu	a0,s0,17308
a0802804:	1440fff7 	bnez	v0,a08027e4 <scheduler+0xa4>
a0802808:	00000000 	nop
a080280c:	0c200d9f 	jal	a080367c <dequeue>
a0802810:	2604439c 	addiu	a0,s0,17308
a0802814:	3c03a080 	lui	v1,0xa080
a0802818:	14400020 	bnez	v0,a080289c <scheduler+0x15c>
a080281c:	ac6243a4 	sw	v0,17316(v1)
a0802820:	3c06a080 	lui	a2,0xa080
a0802824:	24c63fa8 	addiu	a2,a2,16296
a0802828:	00002021 	move	a0,zero
a080282c:	0c200c41 	jal	a0803104 <print_str>
a0802830:	00002821 	move	a1,zero
a0802834:	3c06a080 	lui	a2,0xa080
a0802838:	24c64118 	addiu	a2,a2,16664
a080283c:	00002021 	move	a0,zero
a0802840:	0c200c41 	jal	a0803104 <print_str>
a0802844:	24050013 	li	a1,19
a0802848:	3c06a080 	lui	a2,0xa080
a080284c:	24c63fd8 	addiu	a2,a2,16344
a0802850:	24040001 	li	a0,1
a0802854:	0c200c41 	jal	a0803104 <print_str>
a0802858:	00002821 	move	a1,zero
a080285c:	3c06a080 	lui	a2,0xa080
a0802860:	24c6410c 	addiu	a2,a2,16652
a0802864:	24040001 	li	a0,1
a0802868:	0c200c41 	jal	a0803104 <print_str>
a080286c:	24050006 	li	a1,6
a0802870:	3c06a080 	lui	a2,0xa080
a0802874:	24c63fec 	addiu	a2,a2,16364
a0802878:	24040002 	li	a0,2
a080287c:	0c200c41 	jal	a0803104 <print_str>
a0802880:	00002821 	move	a1,zero
a0802884:	24040002 	li	a0,2
a0802888:	24050006 	li	a1,6
a080288c:	0c200cde 	jal	a0803378 <print_int>
a0802890:	2406003b 	li	a2,59
a0802894:	08200a25 	j	a0802894 <scheduler+0x154>
a0802898:	00000000 	nop
a080289c:	8c6343a4 	lw	v1,17316(v1)
a08028a0:	8fbf0014 	lw	ra,20(sp)
a08028a4:	8fb00010 	lw	s0,16(sp)
a08028a8:	8c620154 	lw	v0,340(v1)
a08028ac:	27bd0018 	addiu	sp,sp,24
a08028b0:	24420001 	addiu	v0,v0,1
a08028b4:	08200564 	j	a0801590 <set_pt>
a08028b8:	ac620154 	sw	v0,340(v1)

a08028bc <lte_deadline>:
a08028bc:	8c86015c 	lw	a2,348(a0)
a08028c0:	8ca3015c 	lw	v1,348(a1)
a08028c4:	0066102b 	sltu	v0,v1,a2
a08028c8:	14400004 	bnez	v0,a08028dc <lte_deadline+0x20>
a08028cc:	00003821 	move	a3,zero
a08028d0:	50c30004 	beql	a2,v1,a08028e4 <lte_deadline+0x28>
a08028d4:	8c830158 	lw	v1,344(a0)
a08028d8:	24070001 	li	a3,1
a08028dc:	03e00008 	jr	ra
a08028e0:	00e01021 	move	v0,a3
a08028e4:	8ca20158 	lw	v0,344(a1)
a08028e8:	0043102b 	sltu	v0,v0,v1
a08028ec:	5040fffb 	beqzl	v0,a08028dc <lte_deadline+0x20>
a08028f0:	24070001 	li	a3,1
a08028f4:	08200a37 	j	a08028dc <lte_deadline+0x20>
a08028f8:	00000000 	nop

a08028fc <do_sleep>:
a08028fc:	27bdffe8 	addiu	sp,sp,-24
a0802900:	afb00010 	sw	s0,16(sp)
a0802904:	afbf0014 	sw	ra,20(sp)
a0802908:	3c02a080 	lui	v0,0xa080
a080290c:	8c43435c 	lw	v1,17244(v0)
a0802910:	10600020 	beqz	v1,a0802994 <do_sleep+0x98>
a0802914:	00808021 	move	s0,a0
a0802918:	3c06a080 	lui	a2,0xa080
a080291c:	24c63fa8 	addiu	a2,a2,16296
a0802920:	00002021 	move	a0,zero
a0802924:	0c200c41 	jal	a0803104 <print_str>
a0802928:	00002821 	move	a1,zero
a080292c:	3c06a080 	lui	a2,0xa080
a0802930:	24c64130 	addiu	a2,a2,16688
a0802934:	00002021 	move	a0,zero
a0802938:	0c200c41 	jal	a0803104 <print_str>
a080293c:	24050013 	li	a1,19
a0802940:	3c06a080 	lui	a2,0xa080
a0802944:	24c63fd8 	addiu	a2,a2,16344
a0802948:	24040001 	li	a0,1
a080294c:	0c200c41 	jal	a0803104 <print_str>
a0802950:	00002821 	move	a1,zero
a0802954:	3c06a080 	lui	a2,0xa080
a0802958:	24c6410c 	addiu	a2,a2,16652
a080295c:	24040001 	li	a0,1
a0802960:	0c200c41 	jal	a0803104 <print_str>
a0802964:	24050006 	li	a1,6
a0802968:	3c06a080 	lui	a2,0xa080
a080296c:	24c63fec 	addiu	a2,a2,16364
a0802970:	24040002 	li	a0,2
a0802974:	0c200c41 	jal	a0803104 <print_str>
a0802978:	00002821 	move	a1,zero
a080297c:	24040002 	li	a0,2
a0802980:	24050006 	li	a1,6
a0802984:	0c200cde 	jal	a0803378 <print_int>
a0802988:	2406004c 	li	a2,76
a080298c:	08200a63 	j	a080298c <do_sleep+0x90>
a0802990:	00000000 	nop
a0802994:	0c2005f2 	jal	a08017c8 <enter_critical>
a0802998:	00000000 	nop
a080299c:	3c041062 	lui	a0,0x1062
a08029a0:	34844dd3 	ori	a0,a0,0x4dd3
a08029a4:	02040018 	mult	s0,a0
a08029a8:	3c0aa080 	lui	t2,0xa080
a08029ac:	8d464390 	lw	a2,17296(t2)
a08029b0:	001047c3 	sra	t0,s0,0x1f
a08029b4:	8d474394 	lw	a3,17300(t2)
a08029b8:	3c0ba080 	lui	t3,0xa080
a08029bc:	8d6943a4 	lw	t1,17316(t3)
a08029c0:	8d454394 	lw	a1,17300(t2)
a08029c4:	00002010 	mfhi	a0
a08029c8:	00042183 	sra	a0,a0,0x6
a08029cc:	00882023 	subu	a0,a0,t0
a08029d0:	00041fc3 	sra	v1,a0,0x1f
a08029d4:	00861021 	addu	v0,a0,a2
a08029d8:	0046202b 	sltu	a0,v0,a2
a08029dc:	00671821 	addu	v1,v1,a3
a08029e0:	00641821 	addu	v1,v1,a0
a08029e4:	ad23015c 	sw	v1,348(t1)
a08029e8:	8d23015c 	lw	v1,348(t1)
a08029ec:	00a3282b 	sltu	a1,a1,v1
a08029f0:	14a00007 	bnez	a1,a0802a10 <do_sleep+0x114>
a08029f4:	ad220158 	sw	v0,344(t1)
a08029f8:	8d424394 	lw	v0,17300(t2)
a08029fc:	10620012 	beq	v1,v0,a0802a48 <do_sleep+0x14c>
a0802a00:	8fbf0014 	lw	ra,20(sp)
a0802a04:	8fb00010 	lw	s0,16(sp)
a0802a08:	08200602 	j	a0801808 <leave_critical>
a0802a0c:	27bd0018 	addiu	sp,sp,24
a0802a10:	8d6543a4 	lw	a1,17316(t3)
a0802a14:	24020004 	li	v0,4
a0802a18:	3c04a080 	lui	a0,0xa080
a0802a1c:	aca20150 	sw	v0,336(a1)
a0802a20:	0c200dab 	jal	a08036ac <enqueue>
a0802a24:	248443b0 	addiu	a0,a0,17328
a0802a28:	0c20034c 	jal	a0800d30 <scheduler_entry>
a0802a2c:	00000000 	nop
a0802a30:	0c2005f2 	jal	a08017c8 <enter_critical>
a0802a34:	00000000 	nop
a0802a38:	8fbf0014 	lw	ra,20(sp)
a0802a3c:	8fb00010 	lw	s0,16(sp)
a0802a40:	08200602 	j	a0801808 <leave_critical>
a0802a44:	27bd0018 	addiu	sp,sp,24
a0802a48:	8d230158 	lw	v1,344(t1)
a0802a4c:	8d424390 	lw	v0,17296(t2)
a0802a50:	0043102b 	sltu	v0,v0,v1
a0802a54:	1440ffef 	bnez	v0,a0802a14 <do_sleep+0x118>
a0802a58:	8d6543a4 	lw	a1,17316(t3)
a0802a5c:	8fbf0014 	lw	ra,20(sp)
a0802a60:	8fb00010 	lw	s0,16(sp)
a0802a64:	27bd0018 	addiu	sp,sp,24
a0802a68:	8d424390 	lw	v0,17296(t2)
a0802a6c:	08200602 	j	a0801808 <leave_critical>
a0802a70:	00000000 	nop

a0802a74 <do_yield>:
a0802a74:	27bdffe8 	addiu	sp,sp,-24
a0802a78:	afbf0010 	sw	ra,16(sp)
a0802a7c:	0c2005f2 	jal	a08017c8 <enter_critical>
a0802a80:	00000000 	nop
a0802a84:	0c2009c9 	jal	a0802724 <put_current_running>
a0802a88:	00000000 	nop
a0802a8c:	8fbf0010 	lw	ra,16(sp)
a0802a90:	0820034c 	j	a0800d30 <scheduler_entry>
a0802a94:	27bd0018 	addiu	sp,sp,24

a0802a98 <do_exit>:
a0802a98:	27bdffe8 	addiu	sp,sp,-24
a0802a9c:	afbf0010 	sw	ra,16(sp)
a0802aa0:	0c2005f2 	jal	a08017c8 <enter_critical>
a0802aa4:	00000000 	nop
a0802aa8:	3c02a080 	lui	v0,0xa080
a0802aac:	8c4443a4 	lw	a0,17316(v0)
a0802ab0:	24030003 	li	v1,3
a0802ab4:	8fbf0010 	lw	ra,16(sp)
a0802ab8:	ac830150 	sw	v1,336(a0)
a0802abc:	0820034c 	j	a0800d30 <scheduler_entry>
a0802ac0:	27bd0018 	addiu	sp,sp,24

a0802ac4 <block>:
a0802ac4:	27bdffe8 	addiu	sp,sp,-24
a0802ac8:	afbf0010 	sw	ra,16(sp)
a0802acc:	3c02a080 	lui	v0,0xa080
a0802ad0:	8c43435c 	lw	v1,17244(v0)
a0802ad4:	14600020 	bnez	v1,a0802b58 <block+0x94>
a0802ad8:	3c02a080 	lui	v0,0xa080
a0802adc:	3c06a080 	lui	a2,0xa080
a0802ae0:	24c63fa8 	addiu	a2,a2,16296
a0802ae4:	00002021 	move	a0,zero
a0802ae8:	0c200c41 	jal	a0803104 <print_str>
a0802aec:	00002821 	move	a1,zero
a0802af0:	3c06a080 	lui	a2,0xa080
a0802af4:	24c640fc 	addiu	a2,a2,16636
a0802af8:	00002021 	move	a0,zero
a0802afc:	0c200c41 	jal	a0803104 <print_str>
a0802b00:	24050013 	li	a1,19
a0802b04:	3c06a080 	lui	a2,0xa080
a0802b08:	24c63fd8 	addiu	a2,a2,16344
a0802b0c:	24040001 	li	a0,1
a0802b10:	0c200c41 	jal	a0803104 <print_str>
a0802b14:	00002821 	move	a1,zero
a0802b18:	3c06a080 	lui	a2,0xa080
a0802b1c:	24c6410c 	addiu	a2,a2,16652
a0802b20:	24040001 	li	a0,1
a0802b24:	0c200c41 	jal	a0803104 <print_str>
a0802b28:	24050006 	li	a1,6
a0802b2c:	3c06a080 	lui	a2,0xa080
a0802b30:	24c63fec 	addiu	a2,a2,16364
a0802b34:	24040002 	li	a0,2
a0802b38:	0c200c41 	jal	a0803104 <print_str>
a0802b3c:	00002821 	move	a1,zero
a0802b40:	24040002 	li	a0,2
a0802b44:	24050006 	li	a1,6
a0802b48:	0c200cde 	jal	a0803378 <print_int>
a0802b4c:	24060069 	li	a2,105
a0802b50:	08200ad4 	j	a0802b50 <block+0x8c>
a0802b54:	00000000 	nop
a0802b58:	8c4543a4 	lw	a1,17316(v0)
a0802b5c:	24020002 	li	v0,2
a0802b60:	0c200dab 	jal	a08036ac <enqueue>
a0802b64:	aca20150 	sw	v0,336(a1)
a0802b68:	0c20034c 	jal	a0800d30 <scheduler_entry>
a0802b6c:	00000000 	nop
a0802b70:	8fbf0010 	lw	ra,16(sp)
a0802b74:	082005f2 	j	a08017c8 <enter_critical>
a0802b78:	27bd0018 	addiu	sp,sp,24

a0802b7c <unblock>:
a0802b7c:	27bdffe8 	addiu	sp,sp,-24
a0802b80:	afbf0010 	sw	ra,16(sp)
a0802b84:	3c02a080 	lui	v0,0xa080
a0802b88:	8c43435c 	lw	v1,17244(v0)
a0802b8c:	14600020 	bnez	v1,a0802c10 <unblock+0x94>
a0802b90:	00802821 	move	a1,a0
a0802b94:	3c06a080 	lui	a2,0xa080
a0802b98:	24c63fa8 	addiu	a2,a2,16296
a0802b9c:	00002021 	move	a0,zero
a0802ba0:	0c200c41 	jal	a0803104 <print_str>
a0802ba4:	00002821 	move	a1,zero
a0802ba8:	3c06a080 	lui	a2,0xa080
a0802bac:	24c640fc 	addiu	a2,a2,16636
a0802bb0:	00002021 	move	a0,zero
a0802bb4:	0c200c41 	jal	a0803104 <print_str>
a0802bb8:	24050013 	li	a1,19
a0802bbc:	3c06a080 	lui	a2,0xa080
a0802bc0:	24c63fd8 	addiu	a2,a2,16344
a0802bc4:	24040001 	li	a0,1
a0802bc8:	0c200c41 	jal	a0803104 <print_str>
a0802bcc:	00002821 	move	a1,zero
a0802bd0:	3c06a080 	lui	a2,0xa080
a0802bd4:	24c6410c 	addiu	a2,a2,16652
a0802bd8:	24040001 	li	a0,1
a0802bdc:	0c200c41 	jal	a0803104 <print_str>
a0802be0:	24050006 	li	a1,6
a0802be4:	3c06a080 	lui	a2,0xa080
a0802be8:	24c63fec 	addiu	a2,a2,16364
a0802bec:	24040002 	li	a0,2
a0802bf0:	0c200c41 	jal	a0803104 <print_str>
a0802bf4:	00002821 	move	a1,zero
a0802bf8:	24040002 	li	a0,2
a0802bfc:	24050006 	li	a1,6
a0802c00:	0c200cde 	jal	a0803378 <print_int>
a0802c04:	24060071 	li	a2,113
a0802c08:	08200b02 	j	a0802c08 <unblock+0x8c>
a0802c0c:	00000000 	nop
a0802c10:	24020001 	li	v0,1
a0802c14:	ac820150 	sw	v0,336(a0)
a0802c18:	3c04a080 	lui	a0,0xa080
a0802c1c:	8fbf0010 	lw	ra,16(sp)
a0802c20:	2484439c 	addiu	a0,a0,17308
a0802c24:	08200dab 	j	a08036ac <enqueue>
a0802c28:	27bd0018 	addiu	sp,sp,24

a0802c2c <do_getpid>:
a0802c2c:	27bdffe8 	addiu	sp,sp,-24
a0802c30:	afbf0014 	sw	ra,20(sp)
a0802c34:	0c2005f2 	jal	a08017c8 <enter_critical>
a0802c38:	afb00010 	sw	s0,16(sp)
a0802c3c:	3c02a080 	lui	v0,0xa080
a0802c40:	8c4343a4 	lw	v1,17316(v0)
a0802c44:	0c200602 	jal	a0801808 <leave_critical>
a0802c48:	8c700148 	lw	s0,328(v1)
a0802c4c:	8fbf0014 	lw	ra,20(sp)
a0802c50:	02001021 	move	v0,s0
a0802c54:	8fb00010 	lw	s0,16(sp)
a0802c58:	03e00008 	jr	ra
a0802c5c:	27bd0018 	addiu	sp,sp,24

a0802c60 <do_gettimeofday>:
a0802c60:	3c04a080 	lui	a0,0xa080
a0802c64:	8c824390 	lw	v0,17296(a0)
a0802c68:	8c834394 	lw	v1,17300(a0)
a0802c6c:	03e00008 	jr	ra
a0802c70:	00000000 	nop

a0802c74 <do_getpriority>:
a0802c74:	27bdffe8 	addiu	sp,sp,-24
a0802c78:	afbf0014 	sw	ra,20(sp)
a0802c7c:	0c2005f2 	jal	a08017c8 <enter_critical>
a0802c80:	afb00010 	sw	s0,16(sp)
a0802c84:	3c02a080 	lui	v0,0xa080
a0802c88:	8c4343a4 	lw	v1,17316(v0)
a0802c8c:	0c200602 	jal	a0801808 <leave_critical>
a0802c90:	8c700160 	lw	s0,352(v1)
a0802c94:	8fbf0014 	lw	ra,20(sp)
a0802c98:	02001021 	move	v0,s0
a0802c9c:	8fb00010 	lw	s0,16(sp)
a0802ca0:	03e00008 	jr	ra
a0802ca4:	27bd0018 	addiu	sp,sp,24

a0802ca8 <do_setpriority>:
a0802ca8:	27bdffe8 	addiu	sp,sp,-24
a0802cac:	afb00010 	sw	s0,16(sp)
a0802cb0:	afbf0014 	sw	ra,20(sp)
a0802cb4:	1880000a 	blez	a0,a0802ce0 <do_setpriority+0x38>
a0802cb8:	00808021 	move	s0,a0
a0802cbc:	0c2005f2 	jal	a08017c8 <enter_critical>
a0802cc0:	00000000 	nop
a0802cc4:	3c02a080 	lui	v0,0xa080
a0802cc8:	8c4343a4 	lw	v1,17316(v0)
a0802ccc:	8fbf0014 	lw	ra,20(sp)
a0802cd0:	ac700160 	sw	s0,352(v1)
a0802cd4:	8fb00010 	lw	s0,16(sp)
a0802cd8:	08200602 	j	a0801808 <leave_critical>
a0802cdc:	27bd0018 	addiu	sp,sp,24
a0802ce0:	8fbf0014 	lw	ra,20(sp)
a0802ce4:	8fb00010 	lw	s0,16(sp)
a0802ce8:	03e00008 	jr	ra
a0802cec:	27bd0018 	addiu	sp,sp,24

a0802cf0 <get_timer>:
a0802cf0:	08200b18 	j	a0802c60 <do_gettimeofday>
a0802cf4:	00000000 	nop
	...

a0802d00 <lock_init>:
a0802d00:	27bdffe8 	addiu	sp,sp,-24
a0802d04:	afb00010 	sw	s0,16(sp)
a0802d08:	ac800000 	sw	zero,0(a0)
a0802d0c:	00808021 	move	s0,a0
a0802d10:	afbf0014 	sw	ra,20(sp)
a0802d14:	0c200d9c 	jal	a0803670 <queue_init>
a0802d18:	24840004 	addiu	a0,a0,4
a0802d1c:	ae00000c 	sw	zero,12(s0)
a0802d20:	8fbf0014 	lw	ra,20(sp)
a0802d24:	8fb00010 	lw	s0,16(sp)
a0802d28:	03e00008 	jr	ra
a0802d2c:	27bd0018 	addiu	sp,sp,24

a0802d30 <lock_acquire>:
a0802d30:	27bdffe0 	addiu	sp,sp,-32
a0802d34:	afb00010 	sw	s0,16(sp)
a0802d38:	afbf0018 	sw	ra,24(sp)
a0802d3c:	afb10014 	sw	s1,20(sp)
a0802d40:	0c2005f2 	jal	a08017c8 <enter_critical>
a0802d44:	00808021 	move	s0,a0
a0802d48:	3c02a080 	lui	v0,0xa080
a0802d4c:	8c43435c 	lw	v1,17244(v0)
a0802d50:	1060000e 	beqz	v1,a0802d8c <lock_acquire+0x5c>
a0802d54:	24030001 	li	v1,1
a0802d58:	8e020000 	lw	v0,0(s0)
a0802d5c:	1043002a 	beq	v0,v1,a0802e08 <lock_acquire+0xd8>
a0802d60:	3c11a080 	lui	s1,0xa080
a0802d64:	ae030000 	sw	v1,0(s0)
a0802d68:	00008021 	move	s0,zero
a0802d6c:	0c200602 	jal	a0801808 <leave_critical>
a0802d70:	00000000 	nop
a0802d74:	02001021 	move	v0,s0
a0802d78:	8fbf0018 	lw	ra,24(sp)
a0802d7c:	8fb10014 	lw	s1,20(sp)
a0802d80:	8fb00010 	lw	s0,16(sp)
a0802d84:	03e00008 	jr	ra
a0802d88:	27bd0020 	addiu	sp,sp,32
a0802d8c:	3c06a080 	lui	a2,0xa080
a0802d90:	24c63fa8 	addiu	a2,a2,16296
a0802d94:	00002021 	move	a0,zero
a0802d98:	0c200c41 	jal	a0803104 <print_str>
a0802d9c:	00002821 	move	a1,zero
a0802da0:	3c06a080 	lui	a2,0xa080
a0802da4:	24c640fc 	addiu	a2,a2,16636
a0802da8:	00002021 	move	a0,zero
a0802dac:	0c200c41 	jal	a0803104 <print_str>
a0802db0:	24050013 	li	a1,19
a0802db4:	3c06a080 	lui	a2,0xa080
a0802db8:	24c63fd8 	addiu	a2,a2,16344
a0802dbc:	24040001 	li	a0,1
a0802dc0:	0c200c41 	jal	a0803104 <print_str>
a0802dc4:	00002821 	move	a1,zero
a0802dc8:	3c06a080 	lui	a2,0xa080
a0802dcc:	24c64140 	addiu	a2,a2,16704
a0802dd0:	24040001 	li	a0,1
a0802dd4:	0c200c41 	jal	a0803104 <print_str>
a0802dd8:	24050006 	li	a1,6
a0802ddc:	3c06a080 	lui	a2,0xa080
a0802de0:	24c63fec 	addiu	a2,a2,16364
a0802de4:	24040002 	li	a0,2
a0802de8:	0c200c41 	jal	a0803104 <print_str>
a0802dec:	00002821 	move	a1,zero
a0802df0:	24040002 	li	a0,2
a0802df4:	24050006 	li	a1,6
a0802df8:	0c200cde 	jal	a0803378 <print_int>
a0802dfc:	2406002d 	li	a2,45
a0802e00:	08200b80 	j	a0802e00 <lock_acquire+0xd0>
a0802e04:	00000000 	nop
a0802e08:	8e2243a4 	lw	v0,17316(s1)
a0802e0c:	00401821 	move	v1,v0
a0802e10:	1040000a 	beqz	v0,a0802e3c <lock_acquire+0x10c>
a0802e14:	ac500164 	sw	s0,356(v0)
a0802e18:	08200b8c 	j	a0802e30 <lock_acquire+0x100>
a0802e1c:	00402021 	move	a0,v0
a0802e20:	1044000b 	beq	v0,a0,a0802e50 <lock_acquire+0x120>
a0802e24:	00401821 	move	v1,v0
a0802e28:	10400004 	beqz	v0,a0802e3c <lock_acquire+0x10c>
a0802e2c:	00000000 	nop
a0802e30:	8c620164 	lw	v0,356(v1)
a0802e34:	5440fffa 	bnezl	v0,a0802e20 <lock_acquire+0xf0>
a0802e38:	8c42000c 	lw	v0,12(v0)
a0802e3c:	0c200ab1 	jal	a0802ac4 <block>
a0802e40:	26040004 	addiu	a0,s0,4
a0802e44:	8e2243a4 	lw	v0,17316(s1)
a0802e48:	08200b5a 	j	a0802d68 <lock_acquire+0x38>
a0802e4c:	ac400164 	sw	zero,356(v0)
a0802e50:	24100001 	li	s0,1
a0802e54:	08200b5b 	j	a0802d6c <lock_acquire+0x3c>
a0802e58:	ac400164 	sw	zero,356(v0)

a0802e5c <lock_release>:
a0802e5c:	27bdffe8 	addiu	sp,sp,-24
a0802e60:	afb00010 	sw	s0,16(sp)
a0802e64:	afbf0014 	sw	ra,20(sp)
a0802e68:	0c2005f2 	jal	a08017c8 <enter_critical>
a0802e6c:	00808021 	move	s0,a0
a0802e70:	3c02a080 	lui	v0,0xa080
a0802e74:	8c43435c 	lw	v1,17244(v0)
a0802e78:	1060002f 	beqz	v1,a0802f38 <lock_release+0xdc>
a0802e7c:	3c02a080 	lui	v0,0xa080
a0802e80:	8c4343a4 	lw	v1,17316(v0)
a0802e84:	8c620140 	lw	v0,320(v1)
a0802e88:	14400020 	bnez	v0,a0802f0c <lock_release+0xb0>
a0802e8c:	26040004 	addiu	a0,s0,4
a0802e90:	3c06a080 	lui	a2,0xa080
a0802e94:	24c63fa8 	addiu	a2,a2,16296
a0802e98:	00002021 	move	a0,zero
a0802e9c:	0c200c41 	jal	a0803104 <print_str>
a0802ea0:	00002821 	move	a1,zero
a0802ea4:	3c06a080 	lui	a2,0xa080
a0802ea8:	24c64148 	addiu	a2,a2,16712
a0802eac:	00002021 	move	a0,zero
a0802eb0:	0c200c41 	jal	a0803104 <print_str>
a0802eb4:	24050013 	li	a1,19
a0802eb8:	3c06a080 	lui	a2,0xa080
a0802ebc:	24c63fd8 	addiu	a2,a2,16344
a0802ec0:	24040001 	li	a0,1
a0802ec4:	0c200c41 	jal	a0803104 <print_str>
a0802ec8:	00002821 	move	a1,zero
a0802ecc:	3c06a080 	lui	a2,0xa080
a0802ed0:	24c64140 	addiu	a2,a2,16704
a0802ed4:	24040001 	li	a0,1
a0802ed8:	0c200c41 	jal	a0803104 <print_str>
a0802edc:	24050006 	li	a1,6
a0802ee0:	3c06a080 	lui	a2,0xa080
a0802ee4:	24c63fec 	addiu	a2,a2,16364
a0802ee8:	24040002 	li	a0,2
a0802eec:	0c200c41 	jal	a0803104 <print_str>
a0802ef0:	00002821 	move	a1,zero
a0802ef4:	24040002 	li	a0,2
a0802ef8:	24050006 	li	a1,6
a0802efc:	0c200cde 	jal	a0803378 <print_int>
a0802f00:	24060011 	li	a2,17
a0802f04:	08200bc1 	j	a0802f04 <lock_release+0xa8>
a0802f08:	00000000 	nop
a0802f0c:	0c200d9f 	jal	a080367c <dequeue>
a0802f10:	00000000 	nop
a0802f14:	50400003 	beqzl	v0,a0802f24 <lock_release+0xc8>
a0802f18:	ae000000 	sw	zero,0(s0)
a0802f1c:	0c200adf 	jal	a0802b7c <unblock>
a0802f20:	00402021 	move	a0,v0
a0802f24:	ae00000c 	sw	zero,12(s0)
a0802f28:	8fbf0014 	lw	ra,20(sp)
a0802f2c:	8fb00010 	lw	s0,16(sp)
a0802f30:	08200602 	j	a0801808 <leave_critical>
a0802f34:	27bd0018 	addiu	sp,sp,24
a0802f38:	3c06a080 	lui	a2,0xa080
a0802f3c:	24c63fa8 	addiu	a2,a2,16296
a0802f40:	00002021 	move	a0,zero
a0802f44:	0c200c41 	jal	a0803104 <print_str>
a0802f48:	00002821 	move	a1,zero
a0802f4c:	3c06a080 	lui	a2,0xa080
a0802f50:	24c640fc 	addiu	a2,a2,16636
a0802f54:	00002021 	move	a0,zero
a0802f58:	0c200c41 	jal	a0803104 <print_str>
a0802f5c:	24050013 	li	a1,19
a0802f60:	3c06a080 	lui	a2,0xa080
a0802f64:	24c63fd8 	addiu	a2,a2,16344
a0802f68:	24040001 	li	a0,1
a0802f6c:	0c200c41 	jal	a0803104 <print_str>
a0802f70:	00002821 	move	a1,zero
a0802f74:	3c06a080 	lui	a2,0xa080
a0802f78:	24c64140 	addiu	a2,a2,16704
a0802f7c:	24040001 	li	a0,1
a0802f80:	0c200c41 	jal	a0803104 <print_str>
a0802f84:	24050006 	li	a1,6
a0802f88:	3c06a080 	lui	a2,0xa080
a0802f8c:	24c63fec 	addiu	a2,a2,16364
a0802f90:	24040002 	li	a0,2
a0802f94:	0c200c41 	jal	a0803104 <print_str>
a0802f98:	00002821 	move	a1,zero
a0802f9c:	24040002 	li	a0,2
a0802fa0:	24050006 	li	a1,6
a0802fa4:	0c200cde 	jal	a0803378 <print_int>
a0802fa8:	24060056 	li	a2,86
a0802fac:	08200beb 	j	a0802fac <lock_release+0x150>
a0802fb0:	00000000 	nop
	...

a0802fc0 <clock_thread>:
a0802fc0:	27bdffe8 	addiu	sp,sp,-24
a0802fc4:	afb00010 	sw	s0,16(sp)
a0802fc8:	afbf0014 	sw	ra,20(sp)
a0802fcc:	3c10a080 	lui	s0,0xa080
a0802fd0:	0c200b18 	jal	a0802c60 <do_gettimeofday>
a0802fd4:	00000000 	nop
a0802fd8:	00403821 	move	a3,v0
a0802fdc:	24040018 	li	a0,24
a0802fe0:	24050032 	li	a1,50
a0802fe4:	0c2006a5 	jal	a0801a94 <printf>
a0802fe8:	26064168 	addiu	a2,s0,16744
a0802fec:	0c2001f7 	jal	a08007dc <print_status>
a0802ff0:	00000000 	nop
a0802ff4:	0c200a9d 	jal	a0802a74 <do_yield>
a0802ff8:	00000000 	nop
a0802ffc:	08200bf4 	j	a0802fd0 <clock_thread+0x10>
a0803000:	00000000 	nop
	...

a0803010 <printstr>:
a0803010:	90850000 	lbu	a1,0(a0)
a0803014:	3c02bfe4 	lui	v0,0xbfe4
a0803018:	10a0000b 	beqz	a1,a0803048 <printstr+0x38>
a080301c:	34428000 	ori	v0,v0,0x8000
a0803020:	2406ffff 	li	a2,-1
a0803024:	2403270f 	li	v1,9999
a0803028:	2463fffc 	addiu	v1,v1,-4
a080302c:	5466ffff 	bnel	v1,a2,a080302c <printstr+0x1c>
a0803030:	2463fffc 	addiu	v1,v1,-4
a0803034:	a0450000 	sb	a1,0(v0)
a0803038:	24840001 	addiu	a0,a0,1
a080303c:	90850000 	lbu	a1,0(a0)
a0803040:	54a0fff9 	bnezl	a1,a0803028 <printstr+0x18>
a0803044:	2403270f 	li	v1,9999
a0803048:	03e00008 	jr	ra
a080304c:	00000000 	nop

a0803050 <print_color>:
a0803050:	27bdffe8 	addiu	sp,sp,-24
a0803054:	afb00010 	sw	s0,16(sp)
a0803058:	00808021 	move	s0,a0
a080305c:	afbf0014 	sw	ra,20(sp)
a0803060:	0c200c04 	jal	a0803010 <printstr>
a0803064:	00a02021 	move	a0,a1
a0803068:	0c200c04 	jal	a0803010 <printstr>
a080306c:	02002021 	move	a0,s0
a0803070:	3c04a080 	lui	a0,0xa080
a0803074:	8fbf0014 	lw	ra,20(sp)
a0803078:	8fb00010 	lw	s0,16(sp)
a080307c:	24844180 	addiu	a0,a0,16768
a0803080:	08200c04 	j	a0803010 <printstr>
a0803084:	27bd0018 	addiu	sp,sp,24

a0803088 <delays>:
a0803088:	24050005 	li	a1,5
a080308c:	24040004 	li	a0,4
a0803090:	24030074 	li	v1,116
a0803094:	240200d6 	li	v0,214
a0803098:	2442ffff 	addiu	v0,v0,-1
a080309c:	304200ff 	andi	v0,v0,0xff
a08030a0:	1440fffe 	bnez	v0,a080309c <delays+0x14>
a08030a4:	2442ffff 	addiu	v0,v0,-1
a08030a8:	2462ffff 	addiu	v0,v1,-1
a08030ac:	304300ff 	andi	v1,v0,0xff
a08030b0:	1460fff9 	bnez	v1,a0803098 <delays+0x10>
a08030b4:	240200d6 	li	v0,214
a08030b8:	2482ffff 	addiu	v0,a0,-1
a08030bc:	304400ff 	andi	a0,v0,0xff
a08030c0:	5480fff4 	bnezl	a0,a0803094 <delays+0xc>
a08030c4:	24030074 	li	v1,116
a08030c8:	24a2ffff 	addiu	v0,a1,-1
a08030cc:	304500ff 	andi	a1,v0,0xff
a08030d0:	54a0ffef 	bnezl	a1,a0803090 <delays+0x8>
a08030d4:	24040004 	li	a0,4
a08030d8:	03e00008 	jr	ra
a08030dc:	00000000 	nop

a08030e0 <strlen>:
a08030e0:	80820000 	lb	v0,0(a0)
a08030e4:	08200c3d 	j	a08030f4 <strlen+0x14>
a08030e8:	00001821 	move	v1,zero
a08030ec:	80820000 	lb	v0,0(a0)
a08030f0:	24630001 	addiu	v1,v1,1
a08030f4:	5440fffd 	bnezl	v0,a08030ec <strlen+0xc>
a08030f8:	24840001 	addiu	a0,a0,1
a08030fc:	03e00008 	jr	ra
a0803100:	00601021 	move	v0,v1

a0803104 <print_str>:
a0803104:	27bdffd8 	addiu	sp,sp,-40
a0803108:	afb40020 	sw	s4,32(sp)
a080310c:	0080a021 	move	s4,a0
a0803110:	00c02021 	move	a0,a2
a0803114:	afb3001c 	sw	s3,28(sp)
a0803118:	afb20018 	sw	s2,24(sp)
a080311c:	afb10014 	sw	s1,20(sp)
a0803120:	afb00010 	sw	s0,16(sp)
a0803124:	afbf0024 	sw	ra,36(sp)
a0803128:	00c09821 	move	s3,a2
a080312c:	0c200c38 	jal	a08030e0 <strlen>
a0803130:	00a09021 	move	s2,a1
a0803134:	00408821 	move	s1,v0
a0803138:	1840000a 	blez	v0,a0803164 <print_str+0x60>
a080313c:	00008021 	move	s0,zero
a0803140:	02701021 	addu	v0,s3,s0
a0803144:	80460000 	lb	a2,0(v0)
a0803148:	02502821 	addu	a1,s2,s0
a080314c:	02802021 	move	a0,s4
a0803150:	0c200262 	jal	a0800988 <print_char>
a0803154:	26100001 	addiu	s0,s0,1
a0803158:	0211182a 	slt	v1,s0,s1
a080315c:	1460fff9 	bnez	v1,a0803144 <print_str+0x40>
a0803160:	02701021 	addu	v0,s3,s0
a0803164:	8fbf0024 	lw	ra,36(sp)
a0803168:	8fb40020 	lw	s4,32(sp)
a080316c:	8fb3001c 	lw	s3,28(sp)
a0803170:	8fb20018 	lw	s2,24(sp)
a0803174:	8fb10014 	lw	s1,20(sp)
a0803178:	8fb00010 	lw	s0,16(sp)
a080317c:	03e00008 	jr	ra
a0803180:	27bd0028 	addiu	sp,sp,40

a0803184 <atoi>:
a0803184:	90850000 	lbu	a1,0(a0)
a0803188:	00803021 	move	a2,a0
a080318c:	24a2ffd0 	addiu	v0,a1,-48
a0803190:	304200ff 	andi	v0,v0,0xff
a0803194:	2c42000a 	sltiu	v0,v0,10
a0803198:	1040000e 	beqz	v0,a08031d4 <atoi+0x50>
a080319c:	00003821 	move	a3,zero
a08031a0:	24c60001 	addiu	a2,a2,1
a08031a4:	00051600 	sll	v0,a1,0x18
a08031a8:	90c50000 	lbu	a1,0(a2)
a08031ac:	00071880 	sll	v1,a3,0x2
a08031b0:	00671821 	addu	v1,v1,a3
a08031b4:	24a4ffd0 	addiu	a0,a1,-48
a08031b8:	00021603 	sra	v0,v0,0x18
a08031bc:	00031840 	sll	v1,v1,0x1
a08031c0:	308400ff 	andi	a0,a0,0xff
a08031c4:	00621821 	addu	v1,v1,v0
a08031c8:	2c84000a 	sltiu	a0,a0,10
a08031cc:	1480fff4 	bnez	a0,a08031a0 <atoi+0x1c>
a08031d0:	2467ffd0 	addiu	a3,v1,-48
a08031d4:	03e00008 	jr	ra
a08031d8:	00e01021 	move	v0,a3

a08031dc <reverse>:
a08031dc:	27bdffe8 	addiu	sp,sp,-24
a08031e0:	afb00010 	sw	s0,16(sp)
a08031e4:	afbf0014 	sw	ra,20(sp)
a08031e8:	0c200c38 	jal	a08030e0 <strlen>
a08031ec:	00808021 	move	s0,a0
a08031f0:	2447ffff 	addiu	a3,v0,-1
a08031f4:	18e0000b 	blez	a3,a0803224 <reverse+0x48>
a08031f8:	00004021 	move	t0,zero
a08031fc:	02082021 	addu	a0,s0,t0
a0803200:	02072821 	addu	a1,s0,a3
a0803204:	80860000 	lb	a2,0(a0)
a0803208:	90a30000 	lbu	v1,0(a1)
a080320c:	25080001 	addiu	t0,t0,1
a0803210:	24e7ffff 	addiu	a3,a3,-1
a0803214:	0107102a 	slt	v0,t0,a3
a0803218:	a0830000 	sb	v1,0(a0)
a080321c:	1440fff7 	bnez	v0,a08031fc <reverse+0x20>
a0803220:	a0a60000 	sb	a2,0(a1)
a0803224:	8fbf0014 	lw	ra,20(sp)
a0803228:	8fb00010 	lw	s0,16(sp)
a080322c:	03e00008 	jr	ra
a0803230:	27bd0018 	addiu	sp,sp,24

a0803234 <itohex>:
a0803234:	08200c94 	j	a0803250 <itohex+0x1c>
a0803238:	00003021 	move	a2,zero
a080323c:	00041102 	srl	v0,a0,0x4
a0803240:	24c60001 	addiu	a2,a2,1
a0803244:	a0e90000 	sb	t1,0(a3)
a0803248:	1040000c 	beqz	v0,a080327c <itohex+0x48>
a080324c:	00402021 	move	a0,v0
a0803250:	3082000f 	andi	v0,a0,0xf
a0803254:	24490030 	addiu	t1,v0,48
a0803258:	24480057 	addiu	t0,v0,87
a080325c:	2842000a 	slti	v0,v0,10
a0803260:	1440fff6 	bnez	v0,a080323c <itohex+0x8>
a0803264:	00c53821 	addu	a3,a2,a1
a0803268:	00041102 	srl	v0,a0,0x4
a080326c:	24c60001 	addiu	a2,a2,1
a0803270:	a0e80000 	sb	t0,0(a3)
a0803274:	1440fff6 	bnez	v0,a0803250 <itohex+0x1c>
a0803278:	00402021 	move	a0,v0
a080327c:	00c51021 	addu	v0,a2,a1
a0803280:	a0400000 	sb	zero,0(v0)
a0803284:	08200c77 	j	a08031dc <reverse>
a0803288:	00a02021 	move	a0,a1

a080328c <print_hex>:
a080328c:	27bdffc8 	addiu	sp,sp,-56
a0803290:	00c02021 	move	a0,a2
a0803294:	afb40030 	sw	s4,48(sp)
a0803298:	00a0a021 	move	s4,a1
a080329c:	27a50010 	addiu	a1,sp,16
a08032a0:	afbf0034 	sw	ra,52(sp)
a08032a4:	afb3002c 	sw	s3,44(sp)
a08032a8:	afb10024 	sw	s1,36(sp)
a08032ac:	afb00020 	sw	s0,32(sp)
a08032b0:	0c200c8d 	jal	a0803234 <itohex>
a08032b4:	afb20028 	sw	s2,40(sp)
a08032b8:	0c200c38 	jal	a08030e0 <strlen>
a08032bc:	27a40010 	addiu	a0,sp,16
a08032c0:	00408821 	move	s1,v0
a08032c4:	00008021 	move	s0,zero
a08032c8:	1840000b 	blez	v0,a08032f8 <print_hex+0x6c>
a08032cc:	3c13a080 	lui	s3,0xa080
a08032d0:	27b20010 	addiu	s2,sp,16
a08032d4:	02501021 	addu	v0,s2,s0
a08032d8:	80460000 	lb	a2,0(v0)
a08032dc:	8e644810 	lw	a0,18448(s3)
a08032e0:	02902821 	addu	a1,s4,s0
a08032e4:	0c200262 	jal	a0800988 <print_char>
a08032e8:	26100001 	addiu	s0,s0,1
a08032ec:	0211182a 	slt	v1,s0,s1
a08032f0:	1460fff9 	bnez	v1,a08032d8 <print_hex+0x4c>
a08032f4:	02501021 	addu	v0,s2,s0
a08032f8:	8e624810 	lw	v0,18448(s3)
a08032fc:	8fbf0034 	lw	ra,52(sp)
a0803300:	8fb40030 	lw	s4,48(sp)
a0803304:	24420001 	addiu	v0,v0,1
a0803308:	ae624810 	sw	v0,18448(s3)
a080330c:	8fb20028 	lw	s2,40(sp)
a0803310:	8fb3002c 	lw	s3,44(sp)
a0803314:	8fb10024 	lw	s1,36(sp)
a0803318:	8fb00020 	lw	s0,32(sp)
a080331c:	03e00008 	jr	ra
a0803320:	27bd0038 	addiu	sp,sp,56

a0803324 <itoa>:
a0803324:	3c02cccc 	lui	v0,0xcccc
a0803328:	00803021 	move	a2,a0
a080332c:	3448cccd 	ori	t0,v0,0xcccd
a0803330:	00003821 	move	a3,zero
a0803334:	00c80019 	multu	a2,t0
a0803338:	00e52021 	addu	a0,a3,a1
a080333c:	24e70001 	addiu	a3,a3,1
a0803340:	00001010 	mfhi	v0
a0803344:	000210c2 	srl	v0,v0,0x3
a0803348:	00021880 	sll	v1,v0,0x2
a080334c:	00621821 	addu	v1,v1,v0
a0803350:	00031840 	sll	v1,v1,0x1
a0803354:	00c31823 	subu	v1,a2,v1
a0803358:	24630030 	addiu	v1,v1,48
a080335c:	a0830000 	sb	v1,0(a0)
a0803360:	1440fff4 	bnez	v0,a0803334 <itoa+0x10>
a0803364:	00403021 	move	a2,v0
a0803368:	00e51021 	addu	v0,a3,a1
a080336c:	a0400000 	sb	zero,0(v0)
a0803370:	08200c77 	j	a08031dc <reverse>
a0803374:	00a02021 	move	a0,a1

a0803378 <print_int>:
a0803378:	27bdffc8 	addiu	sp,sp,-56
a080337c:	afb00020 	sw	s0,32(sp)
a0803380:	000687c2 	srl	s0,a2,0x1f
a0803384:	afb3002c 	sw	s3,44(sp)
a0803388:	afb10024 	sw	s1,36(sp)
a080338c:	afbf0034 	sw	ra,52(sp)
a0803390:	afb40030 	sw	s4,48(sp)
a0803394:	afb20028 	sw	s2,40(sp)
a0803398:	00809821 	move	s3,a0
a080339c:	12000002 	beqz	s0,a08033a8 <print_int+0x30>
a08033a0:	00a08821 	move	s1,a1
a08033a4:	00063023 	negu	a2,a2
a08033a8:	00c02021 	move	a0,a2
a08033ac:	0c200cc9 	jal	a0803324 <itoa>
a08033b0:	27a50010 	addiu	a1,sp,16
a08033b4:	0c200c38 	jal	a08030e0 <strlen>
a08033b8:	27a40010 	addiu	a0,sp,16
a08033bc:	16000019 	bnez	s0,a0803424 <print_int+0xac>
a08033c0:	00409021 	move	s2,v0
a08033c4:	00008021 	move	s0,zero
a08033c8:	1a40000b 	blez	s2,a08033f8 <print_int+0x80>
a08033cc:	3c14a080 	lui	s4,0xa080
a08033d0:	27b30010 	addiu	s3,sp,16
a08033d4:	02701021 	addu	v0,s3,s0
a08033d8:	80460000 	lb	a2,0(v0)
a08033dc:	8e844810 	lw	a0,18448(s4)
a08033e0:	02202821 	move	a1,s1
a08033e4:	0c200262 	jal	a0800988 <print_char>
a08033e8:	26100001 	addiu	s0,s0,1
a08033ec:	0212182a 	slt	v1,s0,s2
a08033f0:	1460fff8 	bnez	v1,a08033d4 <print_int+0x5c>
a08033f4:	26310001 	addiu	s1,s1,1
a08033f8:	8e824810 	lw	v0,18448(s4)
a08033fc:	8fbf0034 	lw	ra,52(sp)
a0803400:	8fb3002c 	lw	s3,44(sp)
a0803404:	24420001 	addiu	v0,v0,1
a0803408:	ae824810 	sw	v0,18448(s4)
a080340c:	8fb20028 	lw	s2,40(sp)
a0803410:	8fb40030 	lw	s4,48(sp)
a0803414:	8fb10024 	lw	s1,36(sp)
a0803418:	8fb00020 	lw	s0,32(sp)
a080341c:	03e00008 	jr	ra
a0803420:	27bd0038 	addiu	sp,sp,56
a0803424:	02202821 	move	a1,s1
a0803428:	02602021 	move	a0,s3
a080342c:	2406002d 	li	a2,45
a0803430:	0c200262 	jal	a0800988 <print_char>
a0803434:	26310001 	addiu	s1,s1,1
a0803438:	08200cf2 	j	a08033c8 <print_int+0x50>
a080343c:	00008021 	move	s0,zero

a0803440 <print_location>:
a0803440:	27bdffa0 	addiu	sp,sp,-96
a0803444:	afb00050 	sw	s0,80(sp)
a0803448:	00808021 	move	s0,a0
a080344c:	3c04a080 	lui	a0,0xa080
a0803450:	24844188 	addiu	a0,a0,16776
a0803454:	afbf0058 	sw	ra,88(sp)
a0803458:	afb10054 	sw	s1,84(sp)
a080345c:	0c200c04 	jal	a0803010 <printstr>
a0803460:	00a08821 	move	s1,a1
a0803464:	27a50010 	addiu	a1,sp,16
a0803468:	0c200cc9 	jal	a0803324 <itoa>
a080346c:	02002021 	move	a0,s0
a0803470:	0c200c04 	jal	a0803010 <printstr>
a0803474:	27a40010 	addiu	a0,sp,16
a0803478:	3c04a080 	lui	a0,0xa080
a080347c:	27b00030 	addiu	s0,sp,48
a0803480:	0c200c04 	jal	a0803010 <printstr>
a0803484:	2484418c 	addiu	a0,a0,16780
a0803488:	02002821 	move	a1,s0
a080348c:	0c200cc9 	jal	a0803324 <itoa>
a0803490:	02202021 	move	a0,s1
a0803494:	0c200c04 	jal	a0803010 <printstr>
a0803498:	02002021 	move	a0,s0
a080349c:	3c04a080 	lui	a0,0xa080
a08034a0:	0c200c04 	jal	a0803010 <printstr>
a08034a4:	24844190 	addiu	a0,a0,16784
a08034a8:	8fbf0058 	lw	ra,88(sp)
a08034ac:	8fb10054 	lw	s1,84(sp)
a08034b0:	8fb00050 	lw	s0,80(sp)
a08034b4:	03e00008 	jr	ra
a08034b8:	27bd0060 	addiu	sp,sp,96

a08034bc <clear_screen>:
a08034bc:	27bdffe0 	addiu	sp,sp,-32
a08034c0:	00a7102a 	slt	v0,a1,a3
a08034c4:	afb20018 	sw	s2,24(sp)
a08034c8:	afb00010 	sw	s0,16(sp)
a08034cc:	afbf001c 	sw	ra,28(sp)
a08034d0:	afb10014 	sw	s1,20(sp)
a08034d4:	00e09021 	move	s2,a3
a08034d8:	1040000b 	beqz	v0,a0803508 <clear_screen+0x4c>
a08034dc:	00a08021 	move	s0,a1
a08034e0:	3c11a080 	lui	s1,0xa080
a08034e4:	02002021 	move	a0,s0
a08034e8:	0c200d10 	jal	a0803440 <print_location>
a08034ec:	00002821 	move	a1,zero
a08034f0:	26100001 	addiu	s0,s0,1
a08034f4:	0c200c04 	jal	a0803010 <printstr>
a08034f8:	26244194 	addiu	a0,s1,16788
a08034fc:	0212102a 	slt	v0,s0,s2
a0803500:	5440fff9 	bnezl	v0,a08034e8 <clear_screen+0x2c>
a0803504:	02002021 	move	a0,s0
a0803508:	8fbf001c 	lw	ra,28(sp)
a080350c:	8fb20018 	lw	s2,24(sp)
a0803510:	8fb10014 	lw	s1,20(sp)
a0803514:	8fb00010 	lw	s0,16(sp)
a0803518:	03e00008 	jr	ra
a080351c:	27bd0020 	addiu	sp,sp,32

a0803520 <same_string>:
a0803520:	90870000 	lbu	a3,0(a0)
a0803524:	00073600 	sll	a2,a3,0x18
a0803528:	00063603 	sra	a2,a2,0x18
a080352c:	50c0000e 	beqzl	a2,a0803568 <same_string+0x48>
a0803530:	90a20000 	lbu	v0,0(a1)
a0803534:	90a20000 	lbu	v0,0(a1)
a0803538:	00021e00 	sll	v1,v0,0x18
a080353c:	00031e03 	sra	v1,v1,0x18
a0803540:	5060000a 	beqzl	v1,a080356c <same_string+0x4c>
a0803544:	00471026 	xor	v0,v0,a3
a0803548:	14c3000c 	bne	a2,v1,a080357c <same_string+0x5c>
a080354c:	24840001 	addiu	a0,a0,1
a0803550:	90870000 	lbu	a3,0(a0)
a0803554:	00073600 	sll	a2,a3,0x18
a0803558:	00063603 	sra	a2,a2,0x18
a080355c:	14c0fff5 	bnez	a2,a0803534 <same_string+0x14>
a0803560:	24a50001 	addiu	a1,a1,1
a0803564:	90a20000 	lbu	v0,0(a1)
a0803568:	00471026 	xor	v0,v0,a3
a080356c:	00021600 	sll	v0,v0,0x18
a0803570:	00021603 	sra	v0,v0,0x18
a0803574:	03e00008 	jr	ra
a0803578:	2c420001 	sltiu	v0,v0,1
a080357c:	03e00008 	jr	ra
a0803580:	00001021 	move	v0,zero

a0803584 <bcopy>:
a0803584:	10c0000c 	beqz	a2,a08035b8 <bcopy+0x34>
a0803588:	00804021 	move	t0,a0
a080358c:	0085102b 	sltu	v0,a0,a1
a0803590:	1040000b 	beqz	v0,a08035c0 <bcopy+0x3c>
a0803594:	24c7ffff 	addiu	a3,a2,-1
a0803598:	04e00012 	bltz	a3,a08035e4 <bcopy+0x60>
a080359c:	00000000 	nop
a08035a0:	01071021 	addu	v0,t0,a3
a08035a4:	90440000 	lbu	a0,0(v0)
a08035a8:	00a71821 	addu	v1,a1,a3
a08035ac:	24e7ffff 	addiu	a3,a3,-1
a08035b0:	04e1fffb 	bgez	a3,a08035a0 <bcopy+0x1c>
a08035b4:	a0640000 	sb	a0,0(v1)
a08035b8:	03e00008 	jr	ra
a08035bc:	00000000 	nop
a08035c0:	18c0fffd 	blez	a2,a08035b8 <bcopy+0x34>
a08035c4:	00003821 	move	a3,zero
a08035c8:	01071021 	addu	v0,t0,a3
a08035cc:	90440000 	lbu	a0,0(v0)
a08035d0:	00a71821 	addu	v1,a1,a3
a08035d4:	24e70001 	addiu	a3,a3,1
a08035d8:	00e6102a 	slt	v0,a3,a2
a08035dc:	1440fffa 	bnez	v0,a08035c8 <bcopy+0x44>
a08035e0:	a0640000 	sb	a0,0(v1)
a08035e4:	03e00008 	jr	ra
a08035e8:	00000000 	nop

a08035ec <bzero>:
a08035ec:	18a00006 	blez	a1,a0803608 <bzero+0x1c>
a08035f0:	00003021 	move	a2,zero
a08035f4:	00861821 	addu	v1,a0,a2
a08035f8:	24c60001 	addiu	a2,a2,1
a08035fc:	00c5102a 	slt	v0,a2,a1
a0803600:	1440fffc 	bnez	v0,a08035f4 <bzero+0x8>
a0803604:	a0600000 	sb	zero,0(v1)
a0803608:	03e00008 	jr	ra
a080360c:	00000000 	nop

a0803610 <srand>:
a0803610:	3c02a080 	lui	v0,0xa080
a0803614:	03e00008 	jr	ra
a0803618:	ac444814 	sw	a0,18452(v0)

a080361c <rand_step>:
a080361c:	3c0341c6 	lui	v1,0x41c6
a0803620:	34634e6d 	ori	v1,v1,0x4e6d
a0803624:	00830018 	mult	a0,v1
a0803628:	00001012 	mflo	v0
a080362c:	24423039 	addiu	v0,v0,12345
a0803630:	03e00008 	jr	ra
a0803634:	00021402 	srl	v0,v0,0x10

a0803638 <rand>:
a0803638:	27bdffe8 	addiu	sp,sp,-24
a080363c:	afb00010 	sw	s0,16(sp)
a0803640:	3c10a080 	lui	s0,0xa080
a0803644:	8e044814 	lw	a0,18452(s0)
a0803648:	afbf0014 	sw	ra,20(sp)
a080364c:	0c200d87 	jal	a080361c <rand_step>
a0803650:	00000000 	nop
a0803654:	ae024814 	sw	v0,18452(s0)
a0803658:	8fbf0014 	lw	ra,20(sp)
a080365c:	8fb00010 	lw	s0,16(sp)
a0803660:	03e00008 	jr	ra
a0803664:	27bd0018 	addiu	sp,sp,24
	...

a0803670 <queue_init>:
a0803670:	ac840000 	sw	a0,0(a0)
a0803674:	03e00008 	jr	ra
a0803678:	ac840004 	sw	a0,4(a0)

a080367c <dequeue>:
a080367c:	8c850004 	lw	a1,4(a0)
a0803680:	50a40008 	beql	a1,a0,a08036a4 <dequeue+0x28>
a0803684:	00002821 	move	a1,zero
a0803688:	8ca20000 	lw	v0,0(a1)
a080368c:	8ca30004 	lw	v1,4(a1)
a0803690:	ac430004 	sw	v1,4(v0)
a0803694:	8ca40004 	lw	a0,4(a1)
a0803698:	ac820000 	sw	v0,0(a0)
a080369c:	03e00008 	jr	ra
a08036a0:	00a01021 	move	v0,a1
a08036a4:	03e00008 	jr	ra
a08036a8:	00a01021 	move	v0,a1

a08036ac <enqueue>:
a08036ac:	8c830000 	lw	v1,0(a0)
a08036b0:	aca40004 	sw	a0,4(a1)
a08036b4:	ac650004 	sw	a1,4(v1)
a08036b8:	8ca20004 	lw	v0,4(a1)
a08036bc:	aca30000 	sw	v1,0(a1)
a08036c0:	03e00008 	jr	ra
a08036c4:	ac450000 	sw	a1,0(v0)

a08036c8 <is_empty>:
a08036c8:	8c820004 	lw	v0,4(a0)
a08036cc:	00441026 	xor	v0,v0,a0
a08036d0:	03e00008 	jr	ra
a08036d4:	2c420001 	sltiu	v0,v0,1

a08036d8 <peek>:
a08036d8:	8c830004 	lw	v1,4(a0)
a08036dc:	10640002 	beq	v1,a0,a08036e8 <peek+0x10>
a08036e0:	00001021 	move	v0,zero
a08036e4:	00601021 	move	v0,v1
a08036e8:	03e00008 	jr	ra
a08036ec:	00000000 	nop

a08036f0 <enqueue_sort>:
a08036f0:	27bdffd8 	addiu	sp,sp,-40
a08036f4:	afb3001c 	sw	s3,28(sp)
a08036f8:	afb20018 	sw	s2,24(sp)
a08036fc:	afb10014 	sw	s1,20(sp)
a0803700:	afbf0020 	sw	ra,32(sp)
a0803704:	afb00010 	sw	s0,16(sp)
a0803708:	8c900004 	lw	s0,4(a0)
a080370c:	00808821 	move	s1,a0
a0803710:	00a09021 	move	s2,a1
a0803714:	02111826 	xor	v1,s0,s1
a0803718:	0003182b 	sltu	v1,zero,v1
a080371c:	0010102b 	sltu	v0,zero,s0
a0803720:	00431024 	and	v0,v0,v1
a0803724:	1040000d 	beqz	v0,a080375c <enqueue_sort+0x6c>
a0803728:	00c09821 	move	s3,a2
a080372c:	02002821 	move	a1,s0
a0803730:	0260f809 	jalr	s3
a0803734:	02402021 	move	a0,s2
a0803738:	14400011 	bnez	v0,a0803780 <enqueue_sort+0x90>
a080373c:	02002021 	move	a0,s0
a0803740:	8e100004 	lw	s0,4(s0)
a0803744:	02111826 	xor	v1,s0,s1
a0803748:	0003182b 	sltu	v1,zero,v1
a080374c:	0010102b 	sltu	v0,zero,s0
a0803750:	00431024 	and	v0,v0,v1
a0803754:	1440fff6 	bnez	v0,a0803730 <enqueue_sort+0x40>
a0803758:	02002821 	move	a1,s0
a080375c:	02202021 	move	a0,s1
a0803760:	02402821 	move	a1,s2
a0803764:	8fbf0020 	lw	ra,32(sp)
a0803768:	8fb3001c 	lw	s3,28(sp)
a080376c:	8fb20018 	lw	s2,24(sp)
a0803770:	8fb10014 	lw	s1,20(sp)
a0803774:	8fb00010 	lw	s0,16(sp)
a0803778:	08200dab 	j	a08036ac <enqueue>
a080377c:	27bd0028 	addiu	sp,sp,40
a0803780:	02402821 	move	a1,s2
a0803784:	8fbf0020 	lw	ra,32(sp)
a0803788:	8fb3001c 	lw	s3,28(sp)
a080378c:	8fb20018 	lw	s2,24(sp)
a0803790:	8fb10014 	lw	s1,20(sp)
a0803794:	8fb00010 	lw	s0,16(sp)
a0803798:	08200dab 	j	a08036ac <enqueue>
a080379c:	27bd0028 	addiu	sp,sp,40

a08037a0 <init_interrupts>:
a08037a0:	3c06a080 	lui	a2,0xa080
a08037a4:	27bdffe0 	addiu	sp,sp,-32
a08037a8:	24c54cc0 	addiu	a1,a2,19648
a08037ac:	3c02a080 	lui	v0,0xa080
a08037b0:	afbf0018 	sw	ra,24(sp)
a08037b4:	afb10014 	sw	s1,20(sp)
a08037b8:	afb00010 	sw	s0,16(sp)
a08037bc:	244210bc 	addiu	v0,v0,4284
a08037c0:	00a02021 	move	a0,a1
a08037c4:	2403001f 	li	v1,31
a08037c8:	2463ffff 	addiu	v1,v1,-1
a08037cc:	ac820000 	sw	v0,0(a0)
a08037d0:	0461fffd 	bgez	v1,a08037c8 <init_interrupts+0x28>
a08037d4:	24840004 	addiu	a0,a0,4
a08037d8:	3c03a080 	lui	v1,0xa080
a08037dc:	246313d8 	addiu	v1,v1,5080
a08037e0:	3c02a080 	lui	v0,0xa080
a08037e4:	acc34cc0 	sw	v1,19648(a2)
a08037e8:	3c03a080 	lui	v1,0xa080
a08037ec:	244215c8 	addiu	v0,v0,5576
a08037f0:	246312cc 	addiu	v1,v1,4812
a08037f4:	aca30020 	sw	v1,32(a1)
a08037f8:	aca2000c 	sw	v0,12(a1)
a08037fc:	aca20008 	sw	v0,8(a1)
a0803800:	2403001f 	li	v1,31
a0803804:	2463ffff 	addiu	v1,v1,-1
a0803808:	0461ffff 	bgez	v1,a0803808 <init_interrupts+0x68>
a080380c:	2463ffff 	addiu	v1,v1,-1
a0803810:	3c11a080 	lui	s1,0xa080
a0803814:	3c04a080 	lui	a0,0xa080
a0803818:	26250f80 	addiu	a1,s1,3968
a080381c:	0c20076f 	jal	a0801dbc <printk>
a0803820:	248441e4 	addiu	a0,a0,16868
a0803824:	3c10a080 	lui	s0,0xa080
a0803828:	3c04a080 	lui	a0,0xa080
a080382c:	260510a4 	addiu	a1,s0,4260
a0803830:	0c20076f 	jal	a0801dbc <printk>
a0803834:	248441fc 	addiu	a0,a0,16892
a0803838:	26310f80 	addiu	s1,s1,3968
a080383c:	3c04bfc0 	lui	a0,0xbfc0
a0803840:	24050380 	li	a1,896
a0803844:	0c200d7b 	jal	a08035ec <bzero>
a0803848:	261010a4 	addiu	s0,s0,4260
a080384c:	02118023 	subu	s0,s0,s1
a0803850:	3c05bfc0 	lui	a1,0xbfc0
a0803854:	02003021 	move	a2,s0
a0803858:	02202021 	move	a0,s1
a080385c:	0c200d61 	jal	a0803584 <bcopy>
a0803860:	34a50380 	ori	a1,a1,0x380
a0803864:	3c048000 	lui	a0,0x8000
a0803868:	0c200d7b 	jal	a08035ec <bzero>
a080386c:	24050180 	li	a1,384
a0803870:	3c058000 	lui	a1,0x8000
a0803874:	02003021 	move	a2,s0
a0803878:	34a50180 	ori	a1,a1,0x180
a080387c:	0c200d61 	jal	a0803584 <bcopy>
a0803880:	02202021 	move	a0,s1
a0803884:	3c0408f0 	lui	a0,0x8f0
a0803888:	0c2003db 	jal	a0800f6c <reset_timer>
a080388c:	3484d180 	ori	a0,a0,0xd180
a0803890:	0c2005e8 	jal	a08017a0 <get_cp0_status>
a0803894:	3c11a080 	lui	s1,0xa080
a0803898:	00408021 	move	s0,v0
a080389c:	26244210 	addiu	a0,s1,16912
a08038a0:	0c20076f 	jal	a0801dbc <printk>
a08038a4:	00402821 	move	a1,v0
a08038a8:	36108001 	ori	s0,s0,0x8001
a08038ac:	3c021000 	lui	v0,0x1000
a08038b0:	02028025 	or	s0,s0,v0
a08038b4:	26244210 	addiu	a0,s1,16912
a08038b8:	0c20076f 	jal	a0801dbc <printk>
a08038bc:	02002821 	move	a1,s0
a08038c0:	02002021 	move	a0,s0
a08038c4:	8fbf0018 	lw	ra,24(sp)
a08038c8:	8fb10014 	lw	s1,20(sp)
a08038cc:	8fb00010 	lw	s0,16(sp)
a08038d0:	082005eb 	j	a08017ac <set_cp0_status>
a08038d4:	27bd0020 	addiu	sp,sp,32

a08038d8 <c_simple_handler>:
a08038d8:	27bdffe0 	addiu	sp,sp,-32
a08038dc:	afbf0018 	sw	ra,24(sp)
a08038e0:	afb10014 	sw	s1,20(sp)
a08038e4:	afb00010 	sw	s0,16(sp)
a08038e8:	00a08821 	move	s1,a1
a08038ec:	0c2005f2 	jal	a08017c8 <enter_critical>
a08038f0:	00808021 	move	s0,a0
a08038f4:	3c04a080 	lui	a0,0xa080
a08038f8:	02002821 	move	a1,s0
a08038fc:	02203021 	move	a2,s1
a0803900:	8fbf0018 	lw	ra,24(sp)
a0803904:	8fb10014 	lw	s1,20(sp)
a0803908:	8fb00010 	lw	s0,16(sp)
a080390c:	24844220 	addiu	a0,a0,16928
a0803910:	0820076f 	j	a0801dbc <printk>
a0803914:	27bd0020 	addiu	sp,sp,32

a0803918 <timer_irq>:
a0803918:	27bdffe8 	addiu	sp,sp,-24
a080391c:	afbf0010 	sw	ra,16(sp)
a0803920:	0c2005f2 	jal	a08017c8 <enter_critical>
a0803924:	00000000 	nop
a0803928:	3c05a080 	lui	a1,0xa080
a080392c:	8ca24390 	lw	v0,17296(a1)
a0803930:	8ca34394 	lw	v1,17300(a1)
a0803934:	3c0408f0 	lui	a0,0x8f0
a0803938:	24420001 	addiu	v0,v0,1
a080393c:	2c460001 	sltiu	a2,v0,1
a0803940:	00661821 	addu	v1,v1,a2
a0803944:	3484d180 	ori	a0,a0,0xd180
a0803948:	aca24390 	sw	v0,17296(a1)
a080394c:	aca34394 	sw	v1,17300(a1)
a0803950:	0c2003db 	jal	a0800f6c <reset_timer>
a0803954:	00000000 	nop
a0803958:	3c02a080 	lui	v0,0xa080
a080395c:	8c4343a4 	lw	v1,17316(v0)
a0803960:	8c640140 	lw	a0,320(v1)
a0803964:	10800003 	beqz	a0,a0803974 <timer_irq+0x5c>
a0803968:	8fbf0010 	lw	ra,16(sp)
a080396c:	03e00008 	jr	ra
a0803970:	27bd0018 	addiu	sp,sp,24
a0803974:	0c2009c9 	jal	a0802724 <put_current_running>
a0803978:	00000000 	nop
a080397c:	0c20034c 	jal	a0800d30 <scheduler_entry>
a0803980:	00000000 	nop
a0803984:	8fbf0010 	lw	ra,16(sp)
a0803988:	082005f2 	j	a08017c8 <enter_critical>
a080398c:	27bd0018 	addiu	sp,sp,24

a0803990 <system_call_helper>:
a0803990:	27bdffd8 	addiu	sp,sp,-40
a0803994:	afb10014 	sw	s1,20(sp)
a0803998:	3c11a080 	lui	s1,0xa080
a080399c:	8e2243a4 	lw	v0,17316(s1)
a08039a0:	afb40020 	sw	s4,32(sp)
a08039a4:	afb3001c 	sw	s3,28(sp)
a08039a8:	afb20018 	sw	s2,24(sp)
a08039ac:	afb00010 	sw	s0,16(sp)
a08039b0:	afbf0024 	sw	ra,36(sp)
a08039b4:	8c430140 	lw	v1,320(v0)
a08039b8:	00808021 	move	s0,a0
a08039bc:	00a09021 	move	s2,a1
a08039c0:	00c09821 	move	s3,a2
a08039c4:	10600020 	beqz	v1,a0803a48 <system_call_helper+0xb8>
a08039c8:	00e0a021 	move	s4,a3
a08039cc:	3c06a080 	lui	a2,0xa080
a08039d0:	24c63fa8 	addiu	a2,a2,16296
a08039d4:	00002021 	move	a0,zero
a08039d8:	0c200c41 	jal	a0803104 <print_str>
a08039dc:	00002821 	move	a1,zero
a08039e0:	3c06a080 	lui	a2,0xa080
a08039e4:	24c64250 	addiu	a2,a2,16976
a08039e8:	00002021 	move	a0,zero
a08039ec:	0c200c41 	jal	a0803104 <print_str>
a08039f0:	24050013 	li	a1,19
a08039f4:	3c06a080 	lui	a2,0xa080
a08039f8:	24c63fd8 	addiu	a2,a2,16344
a08039fc:	24040001 	li	a0,1
a0803a00:	0c200c41 	jal	a0803104 <print_str>
a0803a04:	00002821 	move	a1,zero
a0803a08:	3c06a080 	lui	a2,0xa080
a0803a0c:	24c64294 	addiu	a2,a2,17044
a0803a10:	24040001 	li	a0,1
a0803a14:	0c200c41 	jal	a0803104 <print_str>
a0803a18:	24050006 	li	a1,6
a0803a1c:	3c06a080 	lui	a2,0xa080
a0803a20:	24c63fec 	addiu	a2,a2,16364
a0803a24:	24040002 	li	a0,2
a0803a28:	0c200c41 	jal	a0803104 <print_str>
a0803a2c:	00002821 	move	a1,zero
a0803a30:	24040002 	li	a0,2
a0803a34:	24050006 	li	a1,6
a0803a38:	0c200cde 	jal	a0803378 <print_int>
a0803a3c:	240600c5 	li	a2,197
a0803a40:	08200e90 	j	a0803a40 <system_call_helper+0xb0>
a0803a44:	00000000 	nop
a0803a48:	0c2005f2 	jal	a08017c8 <enter_critical>
a0803a4c:	00000000 	nop
a0803a50:	8e2243a4 	lw	v0,17316(s1)
a0803a54:	8c430140 	lw	v1,320(v0)
a0803a58:	24630001 	addiu	v1,v1,1
a0803a5c:	0c200602 	jal	a0801808 <leave_critical>
a0803a60:	ac430140 	sw	v1,320(v0)
a0803a64:	2e020009 	sltiu	v0,s0,9
a0803a68:	50400001 	beqzl	v0,a0803a70 <system_call_helper+0xe0>
a0803a6c:	24100001 	li	s0,1
a0803a70:	3c02a080 	lui	v0,0xa080
a0803a74:	00101880 	sll	v1,s0,0x2
a0803a78:	24424830 	addiu	v0,v0,18480
a0803a7c:	00621821 	addu	v1,v1,v0
a0803a80:	8c620000 	lw	v0,0(v1)
a0803a84:	02402021 	move	a0,s2
a0803a88:	02602821 	move	a1,s3
a0803a8c:	0040f809 	jalr	v0
a0803a90:	02803021 	move	a2,s4
a0803a94:	0c2005f2 	jal	a08017c8 <enter_critical>
a0803a98:	00408021 	move	s0,v0
a0803a9c:	3c02a080 	lui	v0,0xa080
a0803aa0:	8c4343a4 	lw	v1,17316(v0)
a0803aa4:	8c640140 	lw	a0,320(v1)
a0803aa8:	8c620138 	lw	v0,312(v1)
a0803aac:	ac7000ac 	sw	s0,172(v1)
a0803ab0:	2484ffff 	addiu	a0,a0,-1
a0803ab4:	24420004 	addiu	v0,v0,4
a0803ab8:	ac620138 	sw	v0,312(v1)
a0803abc:	14800009 	bnez	a0,a0803ae4 <system_call_helper+0x154>
a0803ac0:	ac640140 	sw	a0,320(v1)
a0803ac4:	8fbf0024 	lw	ra,36(sp)
a0803ac8:	8fb40020 	lw	s4,32(sp)
a0803acc:	8fb3001c 	lw	s3,28(sp)
a0803ad0:	8fb20018 	lw	s2,24(sp)
a0803ad4:	8fb10014 	lw	s1,20(sp)
a0803ad8:	8fb00010 	lw	s0,16(sp)
a0803adc:	03e00008 	jr	ra
a0803ae0:	27bd0028 	addiu	sp,sp,40
a0803ae4:	3c06a080 	lui	a2,0xa080
a0803ae8:	24c63fa8 	addiu	a2,a2,16296
a0803aec:	00002021 	move	a0,zero
a0803af0:	0c200c41 	jal	a0803104 <print_str>
a0803af4:	00002821 	move	a1,zero
a0803af8:	3c06a080 	lui	a2,0xa080
a0803afc:	24c642a0 	addiu	a2,a2,17056
a0803b00:	00002021 	move	a0,zero
a0803b04:	0c200c41 	jal	a0803104 <print_str>
a0803b08:	24050013 	li	a1,19
a0803b0c:	3c06a080 	lui	a2,0xa080
a0803b10:	24c63fd8 	addiu	a2,a2,16344
a0803b14:	24040001 	li	a0,1
a0803b18:	0c200c41 	jal	a0803104 <print_str>
a0803b1c:	00002821 	move	a1,zero
a0803b20:	3c06a080 	lui	a2,0xa080
a0803b24:	24c64294 	addiu	a2,a2,17044
a0803b28:	24040001 	li	a0,1
a0803b2c:	0c200c41 	jal	a0803104 <print_str>
a0803b30:	24050006 	li	a1,6
a0803b34:	3c06a080 	lui	a2,0xa080
a0803b38:	24c63fec 	addiu	a2,a2,16364
a0803b3c:	24040002 	li	a0,2
a0803b40:	0c200c41 	jal	a0803104 <print_str>
a0803b44:	00002821 	move	a1,zero
a0803b48:	24040002 	li	a0,2
a0803b4c:	24050006 	li	a1,6
a0803b50:	0c200cde 	jal	a0803378 <print_int>
a0803b54:	240600dd 	li	a2,221
a0803b58:	08200ed6 	j	a0803b58 <system_call_helper+0x1c8>
a0803b5c:	00000000 	nop

a0803b60 <mask_hw_int>:
a0803b60:	03e00008 	jr	ra
a0803b64:	00000000 	nop

a0803b68 <unmask_hw_int>:
a0803b68:	03e00008 	jr	ra
a0803b6c:	00000000 	nop

a0803b70 <fake_irq7>:
a0803b70:	03e00008 	jr	ra
a0803b74:	00000000 	nop

a0803b78 <handle_tlb_c>:
a0803b78:	27bdffc8 	addiu	sp,sp,-56
a0803b7c:	afb60030 	sw	s6,48(sp)
a0803b80:	afb5002c 	sw	s5,44(sp)
a0803b84:	afb40028 	sw	s4,40(sp)
a0803b88:	afb30024 	sw	s3,36(sp)
a0803b8c:	afb00018 	sw	s0,24(sp)
a0803b90:	afbf0034 	sw	ra,52(sp)
a0803b94:	afb20020 	sw	s2,32(sp)
a0803b98:	afb1001c 	sw	s1,28(sp)
a0803b9c:	3c13a080 	lui	s3,0xa080
a0803ba0:	8e6243a4 	lw	v0,17316(s3)
a0803ba4:	3c08a080 	lui	t0,0xa080
a0803ba8:	8d034824 	lw	v1,18468(t0)
a0803bac:	8c520130 	lw	s2,304(v0)
a0803bb0:	8c510168 	lw	s1,360(v0)
a0803bb4:	8c490144 	lw	t1,324(v0)
a0803bb8:	00128302 	srl	s0,s2,0xc
a0803bbc:	24630001 	addiu	v1,v1,1
a0803bc0:	3c06a080 	lui	a2,0xa080
a0803bc4:	0010a300 	sll	s4,s0,0xc
a0803bc8:	00108080 	sll	s0,s0,0x2
a0803bcc:	24c642b8 	addiu	a2,a2,17080
a0803bd0:	24040002 	li	a0,2
a0803bd4:	24050001 	li	a1,1
a0803bd8:	00603821 	move	a3,v1
a0803bdc:	02118021 	addu	s0,s0,s1
a0803be0:	ad034824 	sw	v1,18468(t0)
a0803be4:	0249a823 	subu	s5,s2,t1
a0803be8:	0c2006a5 	jal	a0801a94 <printf>
a0803bec:	afb20010 	sw	s2,16(sp)
a0803bf0:	8e020000 	lw	v0,0(s0)
a0803bf4:	3c06a080 	lui	a2,0xa080
a0803bf8:	2416f000 	li	s6,-4096
a0803bfc:	30420002 	andi	v0,v0,0x2
a0803c00:	24c642cc 	addiu	a2,a2,17100
a0803c04:	24050001 	li	a1,1
a0803c08:	1040000b 	beqz	v0,a0803c38 <handle_tlb_c+0xc0>
a0803c0c:	24040003 	li	a0,3
a0803c10:	8fbf0034 	lw	ra,52(sp)
a0803c14:	8fb60030 	lw	s6,48(sp)
a0803c18:	8fb5002c 	lw	s5,44(sp)
a0803c1c:	8fb40028 	lw	s4,40(sp)
a0803c20:	8fb30024 	lw	s3,36(sp)
a0803c24:	8fb20020 	lw	s2,32(sp)
a0803c28:	8fb1001c 	lw	s1,28(sp)
a0803c2c:	8fb00018 	lw	s0,24(sp)
a0803c30:	03e00008 	jr	ra
a0803c34:	27bd0038 	addiu	sp,sp,56
a0803c38:	8e6243a4 	lw	v0,17316(s3)
a0803c3c:	0c2006a5 	jal	a0801a94 <printf>
a0803c40:	8c470130 	lw	a3,304(v0)
a0803c44:	3c042fff 	lui	a0,0x2fff
a0803c48:	3484ffff 	ori	a0,a0,0xffff
a0803c4c:	0c2002a2 	jal	a0800a88 <page_alloc>
a0803c50:	0092202b 	sltu	a0,a0,s2
a0803c54:	00402021 	move	a0,v0
a0803c58:	0c200270 	jal	a08009c0 <page_paddr>
a0803c5c:	00408821 	move	s1,v0
a0803c60:	8e6343a4 	lw	v1,17316(s3)
a0803c64:	00561024 	and	v0,v0,s6
a0803c68:	00021182 	srl	v0,v0,0x6
a0803c6c:	90650148 	lbu	a1,328(v1)
a0803c70:	2404e000 	li	a0,-8192
a0803c74:	34420006 	ori	v0,v0,0x6
a0803c78:	02842024 	and	a0,s4,a0
a0803c7c:	00852025 	or	a0,a0,a1
a0803c80:	0c20054f 	jal	a080153c <tlb_flush>
a0803c84:	ae020000 	sw	v0,0(s0)
a0803c88:	8e6443a4 	lw	a0,17316(s3)
a0803c8c:	24020001 	li	v0,1
a0803c90:	8c83014c 	lw	v1,332(a0)
a0803c94:	50620014 	beql	v1,v0,a0803ce8 <handle_tlb_c+0x170>
a0803c98:	8c820144 	lw	v0,324(a0)
a0803c9c:	3c02a080 	lui	v0,0xa080
a0803ca0:	8c434828 	lw	v1,18472(v0)
a0803ca4:	3c06a080 	lui	a2,0xa080
a0803ca8:	8fbf0034 	lw	ra,52(sp)
a0803cac:	24630001 	addiu	v1,v1,1
a0803cb0:	8fb60030 	lw	s6,48(sp)
a0803cb4:	8fb5002c 	lw	s5,44(sp)
a0803cb8:	8fb40028 	lw	s4,40(sp)
a0803cbc:	8fb30024 	lw	s3,36(sp)
a0803cc0:	8fb20020 	lw	s2,32(sp)
a0803cc4:	8fb1001c 	lw	s1,28(sp)
a0803cc8:	8fb00018 	lw	s0,24(sp)
a0803ccc:	24040004 	li	a0,4
a0803cd0:	24050001 	li	a1,1
a0803cd4:	24c642e4 	addiu	a2,a2,17124
a0803cd8:	00603821 	move	a3,v1
a0803cdc:	27bd0038 	addiu	sp,sp,56
a0803ce0:	082006a5 	j	a0801a94 <printf>
a0803ce4:	ac434828 	sw	v1,18472(v0)
a0803ce8:	8c83016c 	lw	v1,364(a0)
a0803cec:	8c850170 	lw	a1,368(a0)
a0803cf0:	02202021 	move	a0,s1
a0803cf4:	00621821 	addu	v1,v1,v0
a0803cf8:	00b52821 	addu	a1,a1,s5
a0803cfc:	0074182b 	sltu	v1,v1,s4
a0803d00:	1460ffe6 	bnez	v1,a0803c9c <handle_tlb_c+0x124>
a0803d04:	00b68024 	and	s0,a1,s6
a0803d08:	0c200270 	jal	a08009c0 <page_paddr>
a0803d0c:	00000000 	nop
a0803d10:	3c05a000 	lui	a1,0xa000
a0803d14:	00452821 	addu	a1,v0,a1
a0803d18:	02002021 	move	a0,s0
a0803d1c:	0c200d61 	jal	a0803584 <bcopy>
a0803d20:	24061000 	li	a2,4096
a0803d24:	08200f28 	j	a0803ca0 <handle_tlb_c+0x128>
a0803d28:	3c02a080 	lui	v0,0xa080

a0803d2c <printsp>:
a0803d2c:	3c06a080 	lui	a2,0xa080
a0803d30:	00803821 	move	a3,a0
a0803d34:	24c642f4 	addiu	a2,a2,17140
a0803d38:	2404001c 	li	a0,28
a0803d3c:	082006a5 	j	a0801a94 <printf>
a0803d40:	24050001 	li	a1,1
	...

a0803d50 <invoke_syscall>:
a0803d50:	afa50000 	sw	a1,0(sp)
a0803d54:	afa60004 	sw	a2,4(sp)
a0803d58:	afa70008 	sw	a3,8(sp)
a0803d5c:	00801020 	add	v0,a0,zero
a0803d60:	00a02020 	add	a0,a1,zero
a0803d64:	00c02820 	add	a1,a2,zero
a0803d68:	00e03020 	add	a2,a3,zero
a0803d6c:	0000000c 	syscall
a0803d70:	03e00008 	jr	ra
a0803d74:	00000000 	nop
	...

a0803d80 <theFatalMsg>:
a0803d80:	61746166 	daddi	s4,t3,24934
a0803d84:	7265206c 	0x7265206c
a0803d88:	20726f72 	addi	s2,v1,28530
a0803d8c:	6c206e69 	ldr	zero,28265(at)
a0803d90:	72505f70 	0x72505f70
a0803d94:	21746e69 	addi	s4,t3,28265
	...
a0803da0:	a0802600 	sb	zero,9728(a0)
a0803da4:	a0802300 	sb	zero,8960(a0)
a0803da8:	a0802300 	sb	zero,8960(a0)
a0803dac:	a0802300 	sb	zero,8960(a0)
a0803db0:	a0802300 	sb	zero,8960(a0)
a0803db4:	a0802300 	sb	zero,8960(a0)
a0803db8:	a0802300 	sb	zero,8960(a0)
a0803dbc:	a0802300 	sb	zero,8960(a0)
a0803dc0:	a0802300 	sb	zero,8960(a0)
a0803dc4:	a0802300 	sb	zero,8960(a0)
a0803dc8:	a0802300 	sb	zero,8960(a0)
a0803dcc:	a0802300 	sb	zero,8960(a0)
a0803dd0:	a0802300 	sb	zero,8960(a0)
a0803dd4:	a0802300 	sb	zero,8960(a0)
a0803dd8:	a0802300 	sb	zero,8960(a0)
a0803ddc:	a0802300 	sb	zero,8960(a0)
a0803de0:	a0802300 	sb	zero,8960(a0)
a0803de4:	a0802300 	sb	zero,8960(a0)
a0803de8:	a0802300 	sb	zero,8960(a0)
a0803dec:	a0802300 	sb	zero,8960(a0)
a0803df0:	a0802300 	sb	zero,8960(a0)
a0803df4:	a0802300 	sb	zero,8960(a0)
a0803df8:	a0802300 	sb	zero,8960(a0)
a0803dfc:	a0802300 	sb	zero,8960(a0)
a0803e00:	a0802300 	sb	zero,8960(a0)
a0803e04:	a0802300 	sb	zero,8960(a0)
a0803e08:	a0802300 	sb	zero,8960(a0)
a0803e0c:	a0802300 	sb	zero,8960(a0)
a0803e10:	a0802300 	sb	zero,8960(a0)
a0803e14:	a0802300 	sb	zero,8960(a0)
a0803e18:	a0802300 	sb	zero,8960(a0)
a0803e1c:	a0802300 	sb	zero,8960(a0)
a0803e20:	a0802300 	sb	zero,8960(a0)
a0803e24:	a0802300 	sb	zero,8960(a0)
a0803e28:	a0802300 	sb	zero,8960(a0)
a0803e2c:	a0802300 	sb	zero,8960(a0)
a0803e30:	a0802300 	sb	zero,8960(a0)
a0803e34:	a0802300 	sb	zero,8960(a0)
a0803e38:	a0802300 	sb	zero,8960(a0)
a0803e3c:	a0802300 	sb	zero,8960(a0)
a0803e40:	a0802300 	sb	zero,8960(a0)
a0803e44:	a0802300 	sb	zero,8960(a0)
a0803e48:	a0802300 	sb	zero,8960(a0)
a0803e4c:	a0802300 	sb	zero,8960(a0)
a0803e50:	a0802300 	sb	zero,8960(a0)
a0803e54:	a0802300 	sb	zero,8960(a0)
a0803e58:	a0802300 	sb	zero,8960(a0)
a0803e5c:	a0802300 	sb	zero,8960(a0)
a0803e60:	a0802300 	sb	zero,8960(a0)
a0803e64:	a0802300 	sb	zero,8960(a0)
a0803e68:	a0802300 	sb	zero,8960(a0)
a0803e6c:	a0802300 	sb	zero,8960(a0)
a0803e70:	a0802300 	sb	zero,8960(a0)
a0803e74:	a0802300 	sb	zero,8960(a0)
a0803e78:	a0802300 	sb	zero,8960(a0)
a0803e7c:	a0802300 	sb	zero,8960(a0)
a0803e80:	a0802300 	sb	zero,8960(a0)
a0803e84:	a0802300 	sb	zero,8960(a0)
a0803e88:	a0802300 	sb	zero,8960(a0)
a0803e8c:	a0802300 	sb	zero,8960(a0)
a0803e90:	a0802300 	sb	zero,8960(a0)
a0803e94:	a0802300 	sb	zero,8960(a0)
a0803e98:	a0802300 	sb	zero,8960(a0)
a0803e9c:	a0802300 	sb	zero,8960(a0)
a0803ea0:	a0802300 	sb	zero,8960(a0)
a0803ea4:	a0802300 	sb	zero,8960(a0)
a0803ea8:	a0802300 	sb	zero,8960(a0)
a0803eac:	a0802300 	sb	zero,8960(a0)
a0803eb0:	a080249c 	sb	zero,9372(a0)
a0803eb4:	a0802300 	sb	zero,8960(a0)
a0803eb8:	a0802300 	sb	zero,8960(a0)
a0803ebc:	a0802300 	sb	zero,8960(a0)
a0803ec0:	a0802300 	sb	zero,8960(a0)
a0803ec4:	a0802300 	sb	zero,8960(a0)
a0803ec8:	a0802300 	sb	zero,8960(a0)
a0803ecc:	a0802300 	sb	zero,8960(a0)
a0803ed0:	a0802300 	sb	zero,8960(a0)
a0803ed4:	a0802300 	sb	zero,8960(a0)
a0803ed8:	a0802300 	sb	zero,8960(a0)
a0803edc:	a0802440 	sb	zero,9280(a0)
a0803ee0:	a0802300 	sb	zero,8960(a0)
a0803ee4:	a0802300 	sb	zero,8960(a0)
a0803ee8:	a0802300 	sb	zero,8960(a0)
a0803eec:	a0802300 	sb	zero,8960(a0)
a0803ef0:	a0802300 	sb	zero,8960(a0)
a0803ef4:	a0802398 	sb	zero,9112(a0)
a0803ef8:	a0802300 	sb	zero,8960(a0)
a0803efc:	a0802300 	sb	zero,8960(a0)
a0803f00:	a08025a0 	sb	zero,9632(a0)
a0803f04:	a0802300 	sb	zero,8960(a0)
a0803f08:	a0802300 	sb	zero,8960(a0)
a0803f0c:	a0802300 	sb	zero,8960(a0)
a0803f10:	a0802300 	sb	zero,8960(a0)
a0803f14:	a0802300 	sb	zero,8960(a0)
a0803f18:	a0802300 	sb	zero,8960(a0)
a0803f1c:	a0802300 	sb	zero,8960(a0)
a0803f20:	a0802300 	sb	zero,8960(a0)
a0803f24:	a0802300 	sb	zero,8960(a0)
a0803f28:	a0802544 	sb	zero,9540(a0)
a0803f2c:	a08024f8 	sb	zero,9464(a0)
a0803f30:	a080249c 	sb	zero,9372(a0)
a0803f34:	a0802300 	sb	zero,8960(a0)
a0803f38:	a0802300 	sb	zero,8960(a0)
a0803f3c:	a0802300 	sb	zero,8960(a0)
a0803f40:	a0802300 	sb	zero,8960(a0)
a0803f44:	a0802300 	sb	zero,8960(a0)
a0803f48:	a0802300 	sb	zero,8960(a0)
a0803f4c:	a0802300 	sb	zero,8960(a0)
a0803f50:	a0802300 	sb	zero,8960(a0)
a0803f54:	a0802300 	sb	zero,8960(a0)
a0803f58:	a0802300 	sb	zero,8960(a0)
a0803f5c:	a0802440 	sb	zero,9280(a0)
a0803f60:	a0802300 	sb	zero,8960(a0)
a0803f64:	a0802300 	sb	zero,8960(a0)
a0803f68:	a0802300 	sb	zero,8960(a0)
a0803f6c:	a08023f4 	sb	zero,9204(a0)
a0803f70:	a0802300 	sb	zero,8960(a0)
a0803f74:	a0802398 	sb	zero,9112(a0)
a0803f78:	a0802300 	sb	zero,8960(a0)
a0803f7c:	a0802300 	sb	zero,8960(a0)
a0803f80:	a0802344 	sb	zero,9028(a0)
	...
a0803f90:	e0ff03fc 	sc	ra,1020(a3)
	...
Disassembly of section .rodata.str1.4:

a0803fa8 <.rodata.str1.4>:
a0803fa8:	65737341 	daddiu	s3,t3,29505
a0803fac:	6f697472 	ldr	t1,29810(k1)
a0803fb0:	6166206e 	daddi	a2,t3,8302
a0803fb4:	72756c69 	0x72756c69
a0803fb8:	00203a65 	0x203a65
a0803fbc:	6e72656b 	ldr	s2,25963(s3)
a0803fc0:	735f6c65 	0x735f6c65
a0803fc4:	6b636174 	ldl	v1,24948(k1)
a0803fc8:	203d3c20 	addi	sp,at,15392
a0803fcc:	31617830 	andi	at,t3,0x7830
a0803fd0:	30303030 	andi	s0,at,0x3030
a0803fd4:	00003030 	tge	zero,zero,0xc0
a0803fd8:	656c6966 	daddiu	t4,t3,26982
a0803fdc:	0000203a 	dsrl	a0,zero,0x0
a0803fe0:	6e72656b 	ldr	s2,25963(s3)
a0803fe4:	632e6c65 	daddi	t6,t9,27749
a0803fe8:	00000000 	nop
a0803fec:	656e696c 	daddiu	t6,t3,26988
a0803ff0:	0000203a 	dsrl	a0,zero,0x0
a0803ff4:	303a3731 	andi	k0,at,0x3731
a0803ff8:	00000030 	tge	zero,zero
a0803ffc:	534c4146 	beql	k0,t4,a0814518 <_gp+0x8198>
a0804000:	00000045 	0x45
a0804004:	72657375 	0x72657375
a0804008:	6174735f 	daddi	s4,t3,29535
a080400c:	3c206b63 	0x3c206b63
a0804010:	34783020 	ori	t8,v1,0x3020
a0804014:	66666666 	daddiu	a2,s3,26214
a0804018:	00636666 	0x636666
a080401c:	61766e49 	daddi	s6,t3,28233
a0804020:	2064696c 	addi	a0,v1,26988
a0804024:	74737973 	jalx	a1cde5cc <_gp+0x14d224c>
a0804028:	63206d65 	daddi	zero,t9,28005
a080402c:	006c6c61 	0x6c6c61
a0804030:	73726946 	0x73726946
a0804034:	00202074 	teq	at,zero,0x81
a0804038:	64616552 	daddiu	at,v1,25938
a080403c:	00000079 	0x79
a0804040:	636f6c42 	daddi	t7,k1,27714
a0804044:	0064656b 	0x64656b
a0804048:	74697845 	jalx	a1a5e114 <_gp+0x1251d94>
a080404c:	00206465 	0x206465
a0804050:	65656c53 	daddiu	a1,t3,27731
a0804054:	676e6970 	daddiu	t6,k1,26992
a0804058:	00000000 	nop
a080405c:	20522050 	addi	s2,v0,8272
a0804060:	2043204f 	addi	v1,v0,8271
a0804064:	20532045 	addi	s3,v0,8261
a0804068:	20202053 	addi	zero,at,8275
a080406c:	20542053 	addi	s4,v0,8275
a0804070:	20542041 	addi	s4,v0,8257
a0804074:	00532055 	0x532055
a0804078:	09646950 	j	a591a540 <_gp+0x510e1c0>
a080407c:	65707954 	daddiu	s0,t3,31060
a0804080:	69725009 	ldl	s2,20489(t3)
a0804084:	7453096f 	jalx	a14c25bc <_gp+0xcb623c>
a0804088:	73757461 	0x73757461
a080408c:	746e4509 	jalx	a1b91424 <_gp+0x13850a4>
a0804090:	73656972 	0x73656972
a0804094:	00000000 	nop
a0804098:	25096425 	addiu	t1,t0,25637
a080409c:	64250973 	daddiu	a1,at,2419
a08040a0:	09732509 	j	a5cc9424 <_gp+0x54bd0a4>
a08040a4:	00006425 	0x6425
a08040a8:	65726854 	daddiu	s2,t3,26708
a08040ac:	00006461 	0x6461
a08040b0:	636f7250 	daddi	t7,k1,29264
a08040b4:	00737365 	0x737365
a08040b8:	74756853 	jalx	a1d5a14c <_gp+0x154ddcc>
a08040bc:	6e776f64 	ldr	s7,28516(s3)
a08040c0:	00000000 	nop
a08040c4:	72616573 	0x72616573
a08040c8:	6e696863 	ldr	t1,26723(s3)
a08040cc:	00000067 	0x67
a08040d0:	74696e69 	jalx	a1a5b9a4 <_gp+0x124f624>
a08040d4:	696c6169 	ldl	t4,24937(t3)
a08040d8:	676e697a 	daddiu	t6,k1,27002
a08040dc:	20642520 	addi	a0,v1,9504
a08040e0:	65676170 	daddiu	a3,t3,24944
a08040e4:	00000073 	tltu	zero,zero,0x1
a08040e8:	696e6170 	ldl	t6,24944(t3)
a08040ec:	74612063 	jalx	a184818c <_gp+0x103be0c>
a08040f0:	3a732520 	xori	s3,s3,0x2520
a08040f4:	203a6425 	addi	k0,at,25637
a08040f8:	00000000 	nop
a08040fc:	61736964 	daddi	s3,t3,26980
a0804100:	5f656c62 	0x5f656c62
a0804104:	6e756f63 	ldr	s5,28515(s3)
a0804108:	00000074 	teq	zero,zero,0x1
a080410c:	65686373 	daddiu	t0,t3,25459
a0804110:	656c7564 	daddiu	t4,t3,30052
a0804114:	00632e72 	tlt	v1,v1,0xb9
a0804118:	4c4c554e 	0x4c4c554e
a080411c:	203d2120 	addi	sp,at,8480
a0804120:	72727563 	0x72727563
a0804124:	5f746e65 	0x5f746e65
a0804128:	6e6e7572 	ldr	t6,30066(s3)
a080412c:	00676e69 	0x676e69
a0804130:	73696421 	0x73696421
a0804134:	656c6261 	daddiu	t4,t3,25185
a0804138:	756f635f 	jalx	a5bd8d7c <_gp+0x53cc9fc>
a080413c:	0000746e 	0x746e
a0804140:	636e7973 	daddi	t6,k1,31091
a0804144:	0000632e 	0x632e
a0804148:	72727563 	0x72727563
a080414c:	5f746e65 	0x5f746e65
a0804150:	6e6e7572 	ldr	t6,30066(s3)
a0804154:	2d676e69 	sltiu	a3,t3,28265
a0804158:	73656e3e 	0x73656e3e
a080415c:	5f646574 	0x5f646574
a0804160:	6e756f63 	ldr	s5,28515(s3)
a0804164:	00000074 	teq	zero,zero,0x1
a0804168:	656d6954 	daddiu	t5,t3,26964
a080416c:	6e692820 	ldr	t1,10272(s3)
a0804170:	63657320 	daddi	a1,k1,29472
a0804174:	73646e6f 	0x73646e6f
a0804178:	203a2029 	addi	k0,at,8233
a080417c:	00006425 	0x6425
a0804180:	305b1b20 	andi	k1,v0,0x1b20
a0804184:	0000006d 	0x6d
a0804188:	00005b1b 	0x5b1b
a080418c:	0000003b 	dsra	zero,zero,0x0
a0804190:	00000048 	0x48
a0804194:	20202020 	addi	zero,at,8224
a0804198:	20202020 	addi	zero,at,8224
a080419c:	20202020 	addi	zero,at,8224
a08041a0:	20202020 	addi	zero,at,8224
a08041a4:	20202020 	addi	zero,at,8224
a08041a8:	20202020 	addi	zero,at,8224
a08041ac:	20202020 	addi	zero,at,8224
a08041b0:	20202020 	addi	zero,at,8224
a08041b4:	20202020 	addi	zero,at,8224
a08041b8:	20202020 	addi	zero,at,8224
a08041bc:	20202020 	addi	zero,at,8224
a08041c0:	20202020 	addi	zero,at,8224
a08041c4:	20202020 	addi	zero,at,8224
a08041c8:	20202020 	addi	zero,at,8224
a08041cc:	20202020 	addi	zero,at,8224
a08041d0:	20202020 	addi	zero,at,8224
a08041d4:	20202020 	addi	zero,at,8224
a08041d8:	20202020 	addi	zero,at,8224
a08041dc:	20202020 	addi	zero,at,8224
a08041e0:	00002020 	add	a0,zero,zero
a08041e4:	65637865 	daddiu	v1,t3,30821
a08041e8:	6f697470 	ldr	t1,29808(k1)
a08041ec:	74735f6e 	jalx	a1cd7db8 <_gp+0x14cba38>
a08041f0:	20747261 	addi	s4,v1,29281
a08041f4:	7825203a 	0x7825203a
a08041f8:	0000000a 	0xa
a08041fc:	65637865 	daddiu	v1,t3,30821
a0804200:	6f697470 	ldr	t1,29808(k1)
a0804204:	6e655f6e 	ldr	a1,24430(s3)
a0804208:	203a2064 	addi	k0,at,8292
a080420c:	000a7825 	or	t7,zero,t2
a0804210:	5f307063 	0x5f307063
a0804214:	74617473 	jalx	a185d1cc <_gp+0x1050e4c>
a0804218:	203a7375 	addi	k0,at,29557
a080421c:	000a7825 	or	t7,zero,t2
a0804220:	65746e69 	daddiu	s4,t3,28265
a0804224:	70757272 	0x70757272
a0804228:	61682074 	daddi	t0,t3,8308
a080422c:	656c646e 	daddiu	t4,t3,25710
a0804230:	6f6e2072 	ldr	t6,8306(k1)
a0804234:	6d692074 	ldr	t1,8308(t3)
a0804238:	6d656c70 	ldr	a1,27760(t3)
a080423c:	65746e65 	daddiu	s4,t3,28261
a0804240:	6f662064 	ldr	a2,8292(k1)
a0804244:	25232072 	addiu	v1,t1,8306
a0804248:	64253a64 	daddiu	a1,at,14948
a080424c:	0000000a 	0xa
a0804250:	72702041 	0x72702041
a0804254:	7365636f 	0x7365636f
a0804258:	68742f73 	ldl	s4,12147(v1)
a080425c:	64616572 	daddiu	at,v1,25970
a0804260:	61687420 	daddi	t0,t3,29728
a0804264:	61772074 	daddi	s7,t3,8308
a0804268:	75722073 	jalx	a5c881cc <_gp+0x547be4c>
a080426c:	6e696e6e 	ldr	t1,28270(s3)
a0804270:	6e692067 	ldr	t1,8295(s3)
a0804274:	65646973 	daddiu	a0,t3,26995
a0804278:	65687420 	daddiu	t0,t3,29728
a080427c:	72656b20 	0x72656b20
a0804280:	206c656e 	addi	t4,v1,25966
a0804284:	6564616d 	daddiu	a0,t3,24941
a0804288:	73206120 	0x73206120
a080428c:	61637379 	daddi	v1,t3,29561
a0804290:	002e6c6c 	0x2e6c6c
a0804294:	65746e69 	daddiu	s4,t3,28265
a0804298:	70757272 	0x70757272
a080429c:	00632e74 	teq	v1,v1,0xb9
a08042a0:	6e6f7257 	ldr	t7,29271(s3)
a08042a4:	656e2067 	daddiu	t6,t3,8295
a08042a8:	63207473 	daddi	zero,t9,29811
a08042ac:	746e756f 	jalx	a1b9d5bc <_gp+0x139123c>
a08042b0:	20746120 	addi	s4,v1,24864
a08042b4:	00000042 	srl	zero,zero,0x1
a08042b8:	20424c54 	addi	v0,v0,19540
a08042bc:	5353494d 	beql	k0,s3,a08167f4 <_gp+0xa474>
a08042c0:	6425203a 	daddiu	a1,at,8250
a08042c4:	20746120 	addi	s4,v1,24864
a08042c8:	00007825 	move	t7,zero
a08042cc:	6f6d654d 	ldr	t5,25933(k1)
a08042d0:	41207972 	0x41207972
a08042d4:	636f6c6c 	daddi	t7,k1,27756
a08042d8:	6f697461 	ldr	t1,29793(k1)
a08042dc:	7825206e 	0x7825206e
a08042e0:	00000000 	nop
a08042e4:	45474150 	0x45474150
a08042e8:	55414620 	bnel	t2,at,a0815b6c <_gp+0x97ec>
a08042ec:	203a544c 	addi	k0,at,21580
a08042f0:	00006425 	0x6425
a08042f4:	49205053 	0x49205053
a08042f8:	78252053 	0x78252053
a08042fc:	00000000 	nop
Disassembly of section .data:

a0804300 <_fdata>:
a0804300:	a0802fc0 	sb	zero,12224(a0)
a0804304:	a0802fc0 	sb	zero,12224(a0)
	...
a0804310:	00100000 	sll	zero,s0,0x0
a0804314:	a0805000 	sb	zero,20480(a0)
a0804318:	00000d90 	0xd90
a080431c:	00000001 	0x1
a0804320:	00200000 	0x200000
a0804324:	a0806000 	sb	zero,24576(a0)
a0804328:	00000d10 	0xd10
a080432c:	00000001 	0x1

a0804330 <kernel_stack.2>:
a0804330:	a0f00000 	sb	s0,0(a3)

a0804334 <user_stack.3>:
a0804334:	3ffffffc 	0x3ffffffc

a0804338 <status.0>:
a0804338:	a0804030 	sb	zero,16432(a0)
a080433c:	a0804038 	sb	zero,16440(a0)
a0804340:	a0804040 	sb	zero,16448(a0)
a0804344:	a0804048 	sb	zero,16456(a0)
a0804348:	a0804050 	sb	zero,16464(a0)
a080434c:	00000000 	nop

a0804350 <scratch>:
a0804350:	00000000 	nop

a0804354 <scratch2>:
a0804354:	00000000 	nop

a0804358 <return_value>:
a0804358:	00000000 	nop

a080435c <disable_count>:
a080435c:	00000000 	nop

a0804360 <pgd_current>:
a0804360:	00000000 	nop

a0804364 <tlbra>:
a0804364:	00000000 	nop

a0804368 <rastore>:
	...
Disassembly of section .ctors:

a0804380 <__CTOR_LIST__>:
	...
Disassembly of section .dtors:

a0804388 <__DTOR_LIST__>:
	...
Disassembly of section .sbss:

a0804390 <time_elapsed>:
