
process1:     file format elf32-tradlittlemips

Disassembly of section .text:

00100000 <_start>:
  100000:	27bdffe8 	addiu	sp,sp,-24
  100004:	afb00010 	sw	s0,16(sp)
  100008:	afbf0014 	sw	ra,20(sp)
  10000c:	2410003c 	li	s0,60
  100010:	02002021 	move	a0,s0
  100014:	24050001 	li	a1,1
  100018:	00003021 	move	a2,zero
  10001c:	0c040014 	jal	100050 <draw>
  100020:	2610ffff 	addiu	s0,s0,-1
  100024:	2a02ffec 	slti	v0,s0,-20
  100028:	24050001 	li	a1,1
  10002c:	10400002 	beqz	v0,100038 <_start+0x38>
  100030:	24060001 	li	a2,1
  100034:	24100050 	li	s0,80
  100038:	0c040014 	jal	100050 <draw>
  10003c:	02002021 	move	a0,s0
  100040:	0c040057 	jal	10015c <sleep>
  100044:	240401f4 	li	a0,500
  100048:	08040005 	j	100014 <_start+0x14>
  10004c:	02002021 	move	a0,s0

00100050 <draw>:
  100050:	27bdffc8 	addiu	sp,sp,-56
  100054:	3c020010 	lui	v0,0x10
  100058:	afbe0030 	sw	s8,48(sp)
  10005c:	afb7002c 	sw	s7,44(sp)
  100060:	afb60028 	sw	s6,40(sp)
  100064:	afb50024 	sw	s5,36(sp)
  100068:	afb40020 	sw	s4,32(sp)
  10006c:	afb3001c 	sw	s3,28(sp)
  100070:	afbf0034 	sw	ra,52(sp)
  100074:	afb20018 	sw	s2,24(sp)
  100078:	afb10014 	sw	s1,20(sp)
  10007c:	afb00010 	sw	s0,16(sp)
  100080:	0080f021 	move	s8,a0
  100084:	00a0a021 	move	s4,a1
  100088:	00c0b021 	move	s6,a2
  10008c:	24570cd0 	addiu	s7,v0,3280
  100090:	00009821 	move	s3,zero
  100094:	24150001 	li	s5,1
  100098:	00008821 	move	s1,zero
  10009c:	03d39021 	addu	s2,s8,s3
  1000a0:	02f38021 	addu	s0,s7,s3
  1000a4:	02912021 	addu	a0,s4,s1
  1000a8:	02402821 	move	a1,s2
  1000ac:	12d50018 	beq	s6,s5,100110 <draw+0xc0>
  1000b0:	24060020 	li	a2,32
  1000b4:	02912021 	addu	a0,s4,s1
  1000b8:	02402821 	move	a1,s2
  1000bc:	0c040072 	jal	1001c8 <print_char>
  1000c0:	26310001 	addiu	s1,s1,1
  1000c4:	2a220004 	slti	v0,s1,4
  1000c8:	1440fff6 	bnez	v0,1000a4 <draw+0x54>
  1000cc:	26100013 	addiu	s0,s0,19
  1000d0:	26730001 	addiu	s3,s3,1
  1000d4:	2a620012 	slti	v0,s3,18
  1000d8:	1440fff0 	bnez	v0,10009c <draw+0x4c>
  1000dc:	00008821 	move	s1,zero
  1000e0:	8fbf0034 	lw	ra,52(sp)
  1000e4:	8fbe0030 	lw	s8,48(sp)
  1000e8:	8fb7002c 	lw	s7,44(sp)
  1000ec:	8fb60028 	lw	s6,40(sp)
  1000f0:	8fb50024 	lw	s5,36(sp)
  1000f4:	8fb40020 	lw	s4,32(sp)
  1000f8:	8fb3001c 	lw	s3,28(sp)
  1000fc:	8fb20018 	lw	s2,24(sp)
  100100:	8fb10014 	lw	s1,20(sp)
  100104:	8fb00010 	lw	s0,16(sp)
  100108:	03e00008 	jr	ra
  10010c:	27bd0038 	addiu	sp,sp,56
  100110:	0804002f 	j	1000bc <draw+0x6c>
  100114:	82060000 	lb	a2,0(s0)
	...

00100120 <yield>:
  100120:	00002021 	move	a0,zero
  100124:	00002821 	move	a1,zero
  100128:	00003021 	move	a2,zero
  10012c:	0804007c 	j	1001f0 <invoke_syscall>
  100130:	00003821 	move	a3,zero

00100134 <exit>:
  100134:	24040001 	li	a0,1
  100138:	00002821 	move	a1,zero
  10013c:	00003021 	move	a2,zero
  100140:	0804007c 	j	1001f0 <invoke_syscall>
  100144:	00003821 	move	a3,zero

00100148 <getpid>:
  100148:	24040002 	li	a0,2
  10014c:	00002821 	move	a1,zero
  100150:	00003021 	move	a2,zero
  100154:	0804007c 	j	1001f0 <invoke_syscall>
  100158:	00003821 	move	a3,zero

0010015c <sleep>:
  10015c:	00802821 	move	a1,a0
  100160:	00003021 	move	a2,zero
  100164:	24040005 	li	a0,5
  100168:	0804007c 	j	1001f0 <invoke_syscall>
  10016c:	00003821 	move	a3,zero

00100170 <shutdown>:
  100170:	24040006 	li	a0,6
  100174:	00002821 	move	a1,zero
  100178:	00003021 	move	a2,zero
  10017c:	0804007c 	j	1001f0 <invoke_syscall>
  100180:	00003821 	move	a3,zero

00100184 <write_serial>:
  100184:	00042600 	sll	a0,a0,0x18
  100188:	00042603 	sra	a0,a0,0x18
  10018c:	00802821 	move	a1,a0
  100190:	00003021 	move	a2,zero
  100194:	24040007 	li	a0,7
  100198:	0804007c 	j	1001f0 <invoke_syscall>
  10019c:	00003821 	move	a3,zero

001001a0 <getpriority>:
  1001a0:	24040003 	li	a0,3
  1001a4:	00002821 	move	a1,zero
  1001a8:	00003021 	move	a2,zero
  1001ac:	0804007c 	j	1001f0 <invoke_syscall>
  1001b0:	00003821 	move	a3,zero

001001b4 <setpriority>:
  1001b4:	00802821 	move	a1,a0
  1001b8:	00003021 	move	a2,zero
  1001bc:	24040004 	li	a0,4
  1001c0:	0804007c 	j	1001f0 <invoke_syscall>
  1001c4:	00003821 	move	a3,zero

001001c8 <print_char>:
  1001c8:	00a01021 	move	v0,a1
  1001cc:	00063e00 	sll	a3,a2,0x18
  1001d0:	00802821 	move	a1,a0
  1001d4:	00073e03 	sra	a3,a3,0x18
  1001d8:	00403021 	move	a2,v0
  1001dc:	0804007c 	j	1001f0 <invoke_syscall>
  1001e0:	24040008 	li	a0,8
	...

001001f0 <invoke_syscall>:
  1001f0:	afa50000 	sw	a1,0(sp)
  1001f4:	afa60004 	sw	a2,4(sp)
  1001f8:	afa70008 	sw	a3,8(sp)
  1001fc:	00801020 	add	v0,a0,zero
  100200:	00a02020 	add	a0,a1,zero
  100204:	00c02820 	add	a1,a2,zero
  100208:	00e03020 	add	a2,a3,zero
  10020c:	0000000c 	syscall
  100210:	03e00008 	jr	ra
  100214:	00000000 	nop
	...

00100220 <printstr>:
  100220:	90850000 	lbu	a1,0(a0)
  100224:	3c02bfe4 	lui	v0,0xbfe4
  100228:	10a0000b 	beqz	a1,100258 <printstr+0x38>
  10022c:	34428000 	ori	v0,v0,0x8000
  100230:	2406ffff 	li	a2,-1
  100234:	2403270f 	li	v1,9999
  100238:	2463fffc 	addiu	v1,v1,-4
  10023c:	5466ffff 	bnel	v1,a2,10023c <printstr+0x1c>
  100240:	2463fffc 	addiu	v1,v1,-4
  100244:	a0450000 	sb	a1,0(v0)
  100248:	24840001 	addiu	a0,a0,1
  10024c:	90850000 	lbu	a1,0(a0)
  100250:	54a0fff9 	bnezl	a1,100238 <printstr+0x18>
  100254:	2403270f 	li	v1,9999
  100258:	03e00008 	jr	ra
  10025c:	00000000 	nop

00100260 <print_color>:
  100260:	27bdffe8 	addiu	sp,sp,-24
  100264:	afb00010 	sw	s0,16(sp)
  100268:	00808021 	move	s0,a0
  10026c:	afbf0014 	sw	ra,20(sp)
  100270:	0c040088 	jal	100220 <printstr>
  100274:	00a02021 	move	a0,a1
  100278:	0c040088 	jal	100220 <printstr>
  10027c:	02002021 	move	a0,s0
  100280:	3c040010 	lui	a0,0x10
  100284:	8fbf0014 	lw	ra,20(sp)
  100288:	8fb00010 	lw	s0,16(sp)
  10028c:	24840c68 	addiu	a0,a0,3176
  100290:	08040088 	j	100220 <printstr>
  100294:	27bd0018 	addiu	sp,sp,24

00100298 <delays>:
  100298:	24050005 	li	a1,5
  10029c:	24040004 	li	a0,4
  1002a0:	24030074 	li	v1,116
  1002a4:	240200d6 	li	v0,214
  1002a8:	2442ffff 	addiu	v0,v0,-1
  1002ac:	304200ff 	andi	v0,v0,0xff
  1002b0:	1440fffe 	bnez	v0,1002ac <delays+0x14>
  1002b4:	2442ffff 	addiu	v0,v0,-1
  1002b8:	2462ffff 	addiu	v0,v1,-1
  1002bc:	304300ff 	andi	v1,v0,0xff
  1002c0:	1460fff9 	bnez	v1,1002a8 <delays+0x10>
  1002c4:	240200d6 	li	v0,214
  1002c8:	2482ffff 	addiu	v0,a0,-1
  1002cc:	304400ff 	andi	a0,v0,0xff
  1002d0:	5480fff4 	bnezl	a0,1002a4 <delays+0xc>
  1002d4:	24030074 	li	v1,116
  1002d8:	24a2ffff 	addiu	v0,a1,-1
  1002dc:	304500ff 	andi	a1,v0,0xff
  1002e0:	54a0ffef 	bnezl	a1,1002a0 <delays+0x8>
  1002e4:	24040004 	li	a0,4
  1002e8:	03e00008 	jr	ra
  1002ec:	00000000 	nop

001002f0 <strlen>:
  1002f0:	80820000 	lb	v0,0(a0)
  1002f4:	080400c1 	j	100304 <strlen+0x14>
  1002f8:	00001821 	move	v1,zero
  1002fc:	80820000 	lb	v0,0(a0)
  100300:	24630001 	addiu	v1,v1,1
  100304:	5440fffd 	bnezl	v0,1002fc <strlen+0xc>
  100308:	24840001 	addiu	a0,a0,1
  10030c:	03e00008 	jr	ra
  100310:	00601021 	move	v0,v1

00100314 <print_str>:
  100314:	27bdffd8 	addiu	sp,sp,-40
  100318:	afb40020 	sw	s4,32(sp)
  10031c:	0080a021 	move	s4,a0
  100320:	00c02021 	move	a0,a2
  100324:	afb3001c 	sw	s3,28(sp)
  100328:	afb20018 	sw	s2,24(sp)
  10032c:	afb10014 	sw	s1,20(sp)
  100330:	afb00010 	sw	s0,16(sp)
  100334:	afbf0024 	sw	ra,36(sp)
  100338:	00c09821 	move	s3,a2
  10033c:	0c0400bc 	jal	1002f0 <strlen>
  100340:	00a09021 	move	s2,a1
  100344:	00408821 	move	s1,v0
  100348:	1840000a 	blez	v0,100374 <print_str+0x60>
  10034c:	00008021 	move	s0,zero
  100350:	02701021 	addu	v0,s3,s0
  100354:	80460000 	lb	a2,0(v0)
  100358:	02502821 	addu	a1,s2,s0
  10035c:	02802021 	move	a0,s4
  100360:	0c040072 	jal	1001c8 <print_char>
  100364:	26100001 	addiu	s0,s0,1
  100368:	0211182a 	slt	v1,s0,s1
  10036c:	1460fff9 	bnez	v1,100354 <print_str+0x40>
  100370:	02701021 	addu	v0,s3,s0
  100374:	8fbf0024 	lw	ra,36(sp)
  100378:	8fb40020 	lw	s4,32(sp)
  10037c:	8fb3001c 	lw	s3,28(sp)
  100380:	8fb20018 	lw	s2,24(sp)
  100384:	8fb10014 	lw	s1,20(sp)
  100388:	8fb00010 	lw	s0,16(sp)
  10038c:	03e00008 	jr	ra
  100390:	27bd0028 	addiu	sp,sp,40

00100394 <atoi>:
  100394:	90850000 	lbu	a1,0(a0)
  100398:	00803021 	move	a2,a0
  10039c:	24a2ffd0 	addiu	v0,a1,-48
  1003a0:	304200ff 	andi	v0,v0,0xff
  1003a4:	2c42000a 	sltiu	v0,v0,10
  1003a8:	1040000e 	beqz	v0,1003e4 <atoi+0x50>
  1003ac:	00003821 	move	a3,zero
  1003b0:	24c60001 	addiu	a2,a2,1
  1003b4:	00051600 	sll	v0,a1,0x18
  1003b8:	90c50000 	lbu	a1,0(a2)
  1003bc:	00071880 	sll	v1,a3,0x2
  1003c0:	00671821 	addu	v1,v1,a3
  1003c4:	24a4ffd0 	addiu	a0,a1,-48
  1003c8:	00021603 	sra	v0,v0,0x18
  1003cc:	00031840 	sll	v1,v1,0x1
  1003d0:	308400ff 	andi	a0,a0,0xff
  1003d4:	00621821 	addu	v1,v1,v0
  1003d8:	2c84000a 	sltiu	a0,a0,10
  1003dc:	1480fff4 	bnez	a0,1003b0 <atoi+0x1c>
  1003e0:	2467ffd0 	addiu	a3,v1,-48
  1003e4:	03e00008 	jr	ra
  1003e8:	00e01021 	move	v0,a3

001003ec <reverse>:
  1003ec:	27bdffe8 	addiu	sp,sp,-24
  1003f0:	afb00010 	sw	s0,16(sp)
  1003f4:	afbf0014 	sw	ra,20(sp)
  1003f8:	0c0400bc 	jal	1002f0 <strlen>
  1003fc:	00808021 	move	s0,a0
  100400:	2447ffff 	addiu	a3,v0,-1
  100404:	18e0000b 	blez	a3,100434 <reverse+0x48>
  100408:	00004021 	move	t0,zero
  10040c:	02082021 	addu	a0,s0,t0
  100410:	02072821 	addu	a1,s0,a3
  100414:	80860000 	lb	a2,0(a0)
  100418:	90a30000 	lbu	v1,0(a1)
  10041c:	25080001 	addiu	t0,t0,1
  100420:	24e7ffff 	addiu	a3,a3,-1
  100424:	0107102a 	slt	v0,t0,a3
  100428:	a0830000 	sb	v1,0(a0)
  10042c:	1440fff7 	bnez	v0,10040c <reverse+0x20>
  100430:	a0a60000 	sb	a2,0(a1)
  100434:	8fbf0014 	lw	ra,20(sp)
  100438:	8fb00010 	lw	s0,16(sp)
  10043c:	03e00008 	jr	ra
  100440:	27bd0018 	addiu	sp,sp,24

00100444 <itohex>:
  100444:	08040118 	j	100460 <itohex+0x1c>
  100448:	00003021 	move	a2,zero
  10044c:	00041102 	srl	v0,a0,0x4
  100450:	24c60001 	addiu	a2,a2,1
  100454:	a0e90000 	sb	t1,0(a3)
  100458:	1040000c 	beqz	v0,10048c <itohex+0x48>
  10045c:	00402021 	move	a0,v0
  100460:	3082000f 	andi	v0,a0,0xf
  100464:	24490030 	addiu	t1,v0,48
  100468:	24480057 	addiu	t0,v0,87
  10046c:	2842000a 	slti	v0,v0,10
  100470:	1440fff6 	bnez	v0,10044c <itohex+0x8>
  100474:	00c53821 	addu	a3,a2,a1
  100478:	00041102 	srl	v0,a0,0x4
  10047c:	24c60001 	addiu	a2,a2,1
  100480:	a0e80000 	sb	t0,0(a3)
  100484:	1440fff6 	bnez	v0,100460 <itohex+0x1c>
  100488:	00402021 	move	a0,v0
  10048c:	00c51021 	addu	v0,a2,a1
  100490:	a0400000 	sb	zero,0(v0)
  100494:	080400fb 	j	1003ec <reverse>
  100498:	00a02021 	move	a0,a1

0010049c <print_hex>:
  10049c:	27bdffc8 	addiu	sp,sp,-56
  1004a0:	00c02021 	move	a0,a2
  1004a4:	afb40030 	sw	s4,48(sp)
  1004a8:	00a0a021 	move	s4,a1
  1004ac:	27a50010 	addiu	a1,sp,16
  1004b0:	afbf0034 	sw	ra,52(sp)
  1004b4:	afb3002c 	sw	s3,44(sp)
  1004b8:	afb10024 	sw	s1,36(sp)
  1004bc:	afb00020 	sw	s0,32(sp)
  1004c0:	0c040111 	jal	100444 <itohex>
  1004c4:	afb20028 	sw	s2,40(sp)
  1004c8:	0c0400bc 	jal	1002f0 <strlen>
  1004cc:	27a40010 	addiu	a0,sp,16
  1004d0:	00408821 	move	s1,v0
  1004d4:	00008021 	move	s0,zero
  1004d8:	1840000b 	blez	v0,100508 <print_hex+0x6c>
  1004dc:	3c130010 	lui	s3,0x10
  1004e0:	27b20010 	addiu	s2,sp,16
  1004e4:	02501021 	addu	v0,s2,s0
  1004e8:	80460000 	lb	a2,0(v0)
  1004ec:	8e640d90 	lw	a0,3472(s3)
  1004f0:	02902821 	addu	a1,s4,s0
  1004f4:	0c040072 	jal	1001c8 <print_char>
  1004f8:	26100001 	addiu	s0,s0,1
  1004fc:	0211182a 	slt	v1,s0,s1
  100500:	1460fff9 	bnez	v1,1004e8 <print_hex+0x4c>
  100504:	02501021 	addu	v0,s2,s0
  100508:	8e620d90 	lw	v0,3472(s3)
  10050c:	8fbf0034 	lw	ra,52(sp)
  100510:	8fb40030 	lw	s4,48(sp)
  100514:	24420001 	addiu	v0,v0,1
  100518:	ae620d90 	sw	v0,3472(s3)
  10051c:	8fb20028 	lw	s2,40(sp)
  100520:	8fb3002c 	lw	s3,44(sp)
  100524:	8fb10024 	lw	s1,36(sp)
  100528:	8fb00020 	lw	s0,32(sp)
  10052c:	03e00008 	jr	ra
  100530:	27bd0038 	addiu	sp,sp,56

00100534 <itoa>:
  100534:	3c02cccc 	lui	v0,0xcccc
  100538:	00803021 	move	a2,a0
  10053c:	3448cccd 	ori	t0,v0,0xcccd
  100540:	00003821 	move	a3,zero
  100544:	00c80019 	multu	a2,t0
  100548:	00e52021 	addu	a0,a3,a1
  10054c:	24e70001 	addiu	a3,a3,1
  100550:	00001010 	mfhi	v0
  100554:	000210c2 	srl	v0,v0,0x3
  100558:	00021880 	sll	v1,v0,0x2
  10055c:	00621821 	addu	v1,v1,v0
  100560:	00031840 	sll	v1,v1,0x1
  100564:	00c31823 	subu	v1,a2,v1
  100568:	24630030 	addiu	v1,v1,48
  10056c:	a0830000 	sb	v1,0(a0)
  100570:	1440fff4 	bnez	v0,100544 <itoa+0x10>
  100574:	00403021 	move	a2,v0
  100578:	00e51021 	addu	v0,a3,a1
  10057c:	a0400000 	sb	zero,0(v0)
  100580:	080400fb 	j	1003ec <reverse>
  100584:	00a02021 	move	a0,a1

00100588 <print_int>:
  100588:	27bdffc8 	addiu	sp,sp,-56
  10058c:	afb00020 	sw	s0,32(sp)
  100590:	000687c2 	srl	s0,a2,0x1f
  100594:	afb3002c 	sw	s3,44(sp)
  100598:	afb10024 	sw	s1,36(sp)
  10059c:	afbf0034 	sw	ra,52(sp)
  1005a0:	afb40030 	sw	s4,48(sp)
  1005a4:	afb20028 	sw	s2,40(sp)
  1005a8:	00809821 	move	s3,a0
  1005ac:	12000002 	beqz	s0,1005b8 <print_int+0x30>
  1005b0:	00a08821 	move	s1,a1
  1005b4:	00063023 	negu	a2,a2
  1005b8:	00c02021 	move	a0,a2
  1005bc:	0c04014d 	jal	100534 <itoa>
  1005c0:	27a50010 	addiu	a1,sp,16
  1005c4:	0c0400bc 	jal	1002f0 <strlen>
  1005c8:	27a40010 	addiu	a0,sp,16
  1005cc:	16000019 	bnez	s0,100634 <print_int+0xac>
  1005d0:	00409021 	move	s2,v0
  1005d4:	00008021 	move	s0,zero
  1005d8:	1a40000b 	blez	s2,100608 <print_int+0x80>
  1005dc:	3c140010 	lui	s4,0x10
  1005e0:	27b30010 	addiu	s3,sp,16
  1005e4:	02701021 	addu	v0,s3,s0
  1005e8:	80460000 	lb	a2,0(v0)
  1005ec:	8e840d90 	lw	a0,3472(s4)
  1005f0:	02202821 	move	a1,s1
  1005f4:	0c040072 	jal	1001c8 <print_char>
  1005f8:	26100001 	addiu	s0,s0,1
  1005fc:	0212182a 	slt	v1,s0,s2
  100600:	1460fff8 	bnez	v1,1005e4 <print_int+0x5c>
  100604:	26310001 	addiu	s1,s1,1
  100608:	8e820d90 	lw	v0,3472(s4)
  10060c:	8fbf0034 	lw	ra,52(sp)
  100610:	8fb3002c 	lw	s3,44(sp)
  100614:	24420001 	addiu	v0,v0,1
  100618:	ae820d90 	sw	v0,3472(s4)
  10061c:	8fb20028 	lw	s2,40(sp)
  100620:	8fb40030 	lw	s4,48(sp)
  100624:	8fb10024 	lw	s1,36(sp)
  100628:	8fb00020 	lw	s0,32(sp)
  10062c:	03e00008 	jr	ra
  100630:	27bd0038 	addiu	sp,sp,56
  100634:	02202821 	move	a1,s1
  100638:	02602021 	move	a0,s3
  10063c:	2406002d 	li	a2,45
  100640:	0c040072 	jal	1001c8 <print_char>
  100644:	26310001 	addiu	s1,s1,1
  100648:	08040176 	j	1005d8 <print_int+0x50>
  10064c:	00008021 	move	s0,zero

00100650 <print_location>:
  100650:	27bdffa0 	addiu	sp,sp,-96
  100654:	afb00050 	sw	s0,80(sp)
  100658:	00808021 	move	s0,a0
  10065c:	3c040010 	lui	a0,0x10
  100660:	24840c70 	addiu	a0,a0,3184
  100664:	afbf0058 	sw	ra,88(sp)
  100668:	afb10054 	sw	s1,84(sp)
  10066c:	0c040088 	jal	100220 <printstr>
  100670:	00a08821 	move	s1,a1
  100674:	27a50010 	addiu	a1,sp,16
  100678:	0c04014d 	jal	100534 <itoa>
  10067c:	02002021 	move	a0,s0
  100680:	0c040088 	jal	100220 <printstr>
  100684:	27a40010 	addiu	a0,sp,16
  100688:	3c040010 	lui	a0,0x10
  10068c:	27b00030 	addiu	s0,sp,48
  100690:	0c040088 	jal	100220 <printstr>
  100694:	24840c74 	addiu	a0,a0,3188
  100698:	02002821 	move	a1,s0
  10069c:	0c04014d 	jal	100534 <itoa>
  1006a0:	02202021 	move	a0,s1
  1006a4:	0c040088 	jal	100220 <printstr>
  1006a8:	02002021 	move	a0,s0
  1006ac:	3c040010 	lui	a0,0x10
  1006b0:	0c040088 	jal	100220 <printstr>
  1006b4:	24840c78 	addiu	a0,a0,3192
  1006b8:	8fbf0058 	lw	ra,88(sp)
  1006bc:	8fb10054 	lw	s1,84(sp)
  1006c0:	8fb00050 	lw	s0,80(sp)
  1006c4:	03e00008 	jr	ra
  1006c8:	27bd0060 	addiu	sp,sp,96

001006cc <clear_screen>:
  1006cc:	27bdffe0 	addiu	sp,sp,-32
  1006d0:	00a7102a 	slt	v0,a1,a3
  1006d4:	afb20018 	sw	s2,24(sp)
  1006d8:	afb00010 	sw	s0,16(sp)
  1006dc:	afbf001c 	sw	ra,28(sp)
  1006e0:	afb10014 	sw	s1,20(sp)
  1006e4:	00e09021 	move	s2,a3
  1006e8:	1040000b 	beqz	v0,100718 <clear_screen+0x4c>
  1006ec:	00a08021 	move	s0,a1
  1006f0:	3c110010 	lui	s1,0x10
  1006f4:	02002021 	move	a0,s0
  1006f8:	0c040194 	jal	100650 <print_location>
  1006fc:	00002821 	move	a1,zero
  100700:	26100001 	addiu	s0,s0,1
  100704:	0c040088 	jal	100220 <printstr>
  100708:	26240c7c 	addiu	a0,s1,3196
  10070c:	0212102a 	slt	v0,s0,s2
  100710:	5440fff9 	bnezl	v0,1006f8 <clear_screen+0x2c>
  100714:	02002021 	move	a0,s0
  100718:	8fbf001c 	lw	ra,28(sp)
  10071c:	8fb20018 	lw	s2,24(sp)
  100720:	8fb10014 	lw	s1,20(sp)
  100724:	8fb00010 	lw	s0,16(sp)
  100728:	03e00008 	jr	ra
  10072c:	27bd0020 	addiu	sp,sp,32

00100730 <same_string>:
  100730:	90870000 	lbu	a3,0(a0)
  100734:	00073600 	sll	a2,a3,0x18
  100738:	00063603 	sra	a2,a2,0x18
  10073c:	50c0000e 	beqzl	a2,100778 <same_string+0x48>
  100740:	90a20000 	lbu	v0,0(a1)
  100744:	90a20000 	lbu	v0,0(a1)
  100748:	00021e00 	sll	v1,v0,0x18
  10074c:	00031e03 	sra	v1,v1,0x18
  100750:	5060000a 	beqzl	v1,10077c <same_string+0x4c>
  100754:	00471026 	xor	v0,v0,a3
  100758:	14c3000c 	bne	a2,v1,10078c <same_string+0x5c>
  10075c:	24840001 	addiu	a0,a0,1
  100760:	90870000 	lbu	a3,0(a0)
  100764:	00073600 	sll	a2,a3,0x18
  100768:	00063603 	sra	a2,a2,0x18
  10076c:	14c0fff5 	bnez	a2,100744 <same_string+0x14>
  100770:	24a50001 	addiu	a1,a1,1
  100774:	90a20000 	lbu	v0,0(a1)
  100778:	00471026 	xor	v0,v0,a3
  10077c:	00021600 	sll	v0,v0,0x18
  100780:	00021603 	sra	v0,v0,0x18
  100784:	03e00008 	jr	ra
  100788:	2c420001 	sltiu	v0,v0,1
  10078c:	03e00008 	jr	ra
  100790:	00001021 	move	v0,zero

00100794 <bcopy>:
  100794:	10c0000c 	beqz	a2,1007c8 <bcopy+0x34>
  100798:	00804021 	move	t0,a0
  10079c:	0085102b 	sltu	v0,a0,a1
  1007a0:	1040000b 	beqz	v0,1007d0 <bcopy+0x3c>
  1007a4:	24c7ffff 	addiu	a3,a2,-1
  1007a8:	04e00012 	bltz	a3,1007f4 <bcopy+0x60>
  1007ac:	00000000 	nop
  1007b0:	01071021 	addu	v0,t0,a3
  1007b4:	90440000 	lbu	a0,0(v0)
  1007b8:	00a71821 	addu	v1,a1,a3
  1007bc:	24e7ffff 	addiu	a3,a3,-1
  1007c0:	04e1fffb 	bgez	a3,1007b0 <bcopy+0x1c>
  1007c4:	a0640000 	sb	a0,0(v1)
  1007c8:	03e00008 	jr	ra
  1007cc:	00000000 	nop
  1007d0:	18c0fffd 	blez	a2,1007c8 <bcopy+0x34>
  1007d4:	00003821 	move	a3,zero
  1007d8:	01071021 	addu	v0,t0,a3
  1007dc:	90440000 	lbu	a0,0(v0)
  1007e0:	00a71821 	addu	v1,a1,a3
  1007e4:	24e70001 	addiu	a3,a3,1
  1007e8:	00e6102a 	slt	v0,a3,a2
  1007ec:	1440fffa 	bnez	v0,1007d8 <bcopy+0x44>
  1007f0:	a0640000 	sb	a0,0(v1)
  1007f4:	03e00008 	jr	ra
  1007f8:	00000000 	nop

001007fc <bzero>:
  1007fc:	18a00006 	blez	a1,100818 <bzero+0x1c>
  100800:	00003021 	move	a2,zero
  100804:	00861821 	addu	v1,a0,a2
  100808:	24c60001 	addiu	a2,a2,1
  10080c:	00c5102a 	slt	v0,a2,a1
  100810:	1440fffc 	bnez	v0,100804 <bzero+0x8>
  100814:	a0600000 	sb	zero,0(v1)
  100818:	03e00008 	jr	ra
  10081c:	00000000 	nop

00100820 <srand>:
  100820:	3c020010 	lui	v0,0x10
  100824:	03e00008 	jr	ra
  100828:	ac440d94 	sw	a0,3476(v0)

0010082c <rand_step>:
  10082c:	3c0341c6 	lui	v1,0x41c6
  100830:	34634e6d 	ori	v1,v1,0x4e6d
  100834:	00830018 	mult	a0,v1
  100838:	00001012 	mflo	v0
  10083c:	24423039 	addiu	v0,v0,12345
  100840:	03e00008 	jr	ra
  100844:	00021402 	srl	v0,v0,0x10

00100848 <rand>:
  100848:	27bdffe8 	addiu	sp,sp,-24
  10084c:	afb00010 	sw	s0,16(sp)
  100850:	3c100010 	lui	s0,0x10
  100854:	8e040d94 	lw	a0,3476(s0)
  100858:	afbf0014 	sw	ra,20(sp)
  10085c:	0c04020b 	jal	10082c <rand_step>
  100860:	00000000 	nop
  100864:	ae020d94 	sw	v0,3476(s0)
  100868:	8fbf0014 	lw	ra,20(sp)
  10086c:	8fb00010 	lw	s0,16(sp)
  100870:	03e00008 	jr	ra
  100874:	27bd0018 	addiu	sp,sp,24
	...

00100880 <printf_c>:
  100880:	27bdffe0 	addiu	sp,sp,-32
  100884:	afb10014 	sw	s1,20(sp)
  100888:	afb00010 	sw	s0,16(sp)
  10088c:	afbf0018 	sw	ra,24(sp)
  100890:	8ca20000 	lw	v0,0(a1)
  100894:	00063600 	sll	a2,a2,0x18
  100898:	00a08021 	move	s0,a1
  10089c:	00808821 	move	s1,a0
  1008a0:	04400030 	bltz	v0,100964 <printf_c+0xe4>
  1008a4:	00063603 	sra	a2,a2,0x18
  1008a8:	2402000a 	li	v0,10
  1008ac:	10c20024 	beq	a2,v0,100940 <printf_c+0xc0>
  1008b0:	28c2000b 	slti	v0,a2,11
  1008b4:	1440000f 	bnez	v0,1008f4 <printf_c+0x74>
  1008b8:	24020009 	li	v0,9
  1008bc:	2402000d 	li	v0,13
  1008c0:	50c20023 	beql	a2,v0,100950 <printf_c+0xd0>
  1008c4:	ae000000 	sw	zero,0(s0)
  1008c8:	8e240000 	lw	a0,0(s1)
  1008cc:	0c040072 	jal	1001c8 <print_char>
  1008d0:	8e050000 	lw	a1,0(s0)
  1008d4:	8e030000 	lw	v1,0(s0)
  1008d8:	24630001 	addiu	v1,v1,1
  1008dc:	ae030000 	sw	v1,0(s0)
  1008e0:	8fbf0018 	lw	ra,24(sp)
  1008e4:	8fb10014 	lw	s1,20(sp)
  1008e8:	8fb00010 	lw	s0,16(sp)
  1008ec:	03e00008 	jr	ra
  1008f0:	27bd0020 	addiu	sp,sp,32
  1008f4:	54c2fff5 	bnel	a2,v0,1008cc <printf_c+0x4c>
  1008f8:	8e240000 	lw	a0,0(s1)
  1008fc:	02202021 	move	a0,s1
  100900:	02002821 	move	a1,s0
  100904:	0c040220 	jal	100880 <printf_c>
  100908:	24060020 	li	a2,32
  10090c:	8e020000 	lw	v0,0(s0)
  100910:	30420007 	andi	v0,v0,0x7
  100914:	1040fff2 	beqz	v0,1008e0 <printf_c+0x60>
  100918:	02202021 	move	a0,s1
  10091c:	02002821 	move	a1,s0
  100920:	0c040220 	jal	100880 <printf_c>
  100924:	24060020 	li	a2,32
  100928:	8e020000 	lw	v0,0(s0)
  10092c:	30420007 	andi	v0,v0,0x7
  100930:	1440fff3 	bnez	v0,100900 <printf_c+0x80>
  100934:	02202021 	move	a0,s1
  100938:	08040239 	j	1008e4 <printf_c+0x64>
  10093c:	8fbf0018 	lw	ra,24(sp)
  100940:	8e220000 	lw	v0,0(s1)
  100944:	24420001 	addiu	v0,v0,1
  100948:	ae220000 	sw	v0,0(s1)
  10094c:	ae000000 	sw	zero,0(s0)
  100950:	8fbf0018 	lw	ra,24(sp)
  100954:	8fb10014 	lw	s1,20(sp)
  100958:	8fb00010 	lw	s0,16(sp)
  10095c:	03e00008 	jr	ra
  100960:	27bd0020 	addiu	sp,sp,32
  100964:	0804022a 	j	1008a8 <printf_c+0x28>
  100968:	aca00000 	sw	zero,0(a1)

0010096c <printf_u>:
  10096c:	27bdffd0 	addiu	sp,sp,-48
  100970:	3c02cccc 	lui	v0,0xcccc
  100974:	afb20028 	sw	s2,40(sp)
  100978:	afb10024 	sw	s1,36(sp)
  10097c:	afb00020 	sw	s0,32(sp)
  100980:	00809021 	move	s2,a0
  100984:	afbf002c 	sw	ra,44(sp)
  100988:	00a08821 	move	s1,a1
  10098c:	a3a00010 	sb	zero,16(sp)
  100990:	3444cccd 	ori	a0,v0,0xcccd
  100994:	27b00010 	addiu	s0,sp,16
  100998:	00c40019 	multu	a2,a0
  10099c:	26100001 	addiu	s0,s0,1
  1009a0:	00001810 	mfhi	v1
  1009a4:	000318c2 	srl	v1,v1,0x3
  1009a8:	00031080 	sll	v0,v1,0x2
  1009ac:	00431021 	addu	v0,v0,v1
  1009b0:	00021040 	sll	v0,v0,0x1
  1009b4:	00c21023 	subu	v0,a2,v0
  1009b8:	24420030 	addiu	v0,v0,48
  1009bc:	a2020000 	sb	v0,0(s0)
  1009c0:	1460fff5 	bnez	v1,100998 <printf_u+0x2c>
  1009c4:	00603021 	move	a2,v1
  1009c8:	00023600 	sll	a2,v0,0x18
  1009cc:	08040279 	j	1009e4 <printf_u+0x78>
  1009d0:	00063603 	sra	a2,a2,0x18
  1009d4:	02402021 	move	a0,s2
  1009d8:	0c040220 	jal	100880 <printf_c>
  1009dc:	02202821 	move	a1,s1
  1009e0:	82060000 	lb	a2,0(s0)
  1009e4:	14c0fffb 	bnez	a2,1009d4 <printf_u+0x68>
  1009e8:	2610ffff 	addiu	s0,s0,-1
  1009ec:	8fbf002c 	lw	ra,44(sp)
  1009f0:	8fb20028 	lw	s2,40(sp)
  1009f4:	8fb10024 	lw	s1,36(sp)
  1009f8:	8fb00020 	lw	s0,32(sp)
  1009fc:	03e00008 	jr	ra
  100a00:	27bd0030 	addiu	sp,sp,48

00100a04 <printf>:
  100a04:	27bdffc8 	addiu	sp,sp,-56
  100a08:	afb3001c 	sw	s3,28(sp)
  100a0c:	afb10014 	sw	s1,20(sp)
  100a10:	afbf0030 	sw	ra,48(sp)
  100a14:	afb7002c 	sw	s7,44(sp)
  100a18:	afb60028 	sw	s6,40(sp)
  100a1c:	afb50024 	sw	s5,36(sp)
  100a20:	afb40020 	sw	s4,32(sp)
  100a24:	afb20018 	sw	s2,24(sp)
  100a28:	afb00010 	sw	s0,16(sp)
  100a2c:	afa40038 	sw	a0,56(sp)
  100a30:	afa5003c 	sw	a1,60(sp)
  100a34:	afa70044 	sw	a3,68(sp)
  100a38:	afa60040 	sw	a2,64(sp)
  100a3c:	00c08821 	move	s1,a2
  100a40:	80c60000 	lb	a2,0(a2)
  100a44:	10c0001c 	beqz	a2,100ab8 <printf+0xb4>
  100a48:	27b30044 	addiu	s3,sp,68
  100a4c:	27b5003c 	addiu	s5,sp,60
  100a50:	02a0b821 	move	s7,s5
  100a54:	02a0b021 	move	s6,s5
  100a58:	24020025 	li	v0,37
  100a5c:	14c20028 	bne	a2,v0,100b00 <printf+0xfc>
  100a60:	27a40038 	addiu	a0,sp,56
  100a64:	26310001 	addiu	s1,s1,1
  100a68:	92260000 	lbu	a2,0(s1)
  100a6c:	24020073 	li	v0,115
  100a70:	00061e00 	sll	v1,a2,0x18
  100a74:	00031e03 	sra	v1,v1,0x18
  100a78:	10620052 	beq	v1,v0,100bc4 <printf+0x1c0>
  100a7c:	28620074 	slti	v0,v1,116
  100a80:	10400018 	beqz	v0,100ae4 <printf+0xe0>
  100a84:	24020075 	li	v0,117
  100a88:	24020063 	li	v0,99
  100a8c:	1062005a 	beq	v1,v0,100bf8 <printf+0x1f4>
  100a90:	28620064 	slti	v0,v1,100
  100a94:	5040002b 	beqzl	v0,100b44 <printf+0x140>
  100a98:	24020064 	li	v0,100
  100a9c:	14600016 	bnez	v1,100af8 <printf+0xf4>
  100aa0:	00063600 	sll	a2,a2,0x18
  100aa4:	2631ffff 	addiu	s1,s1,-1
  100aa8:	26310001 	addiu	s1,s1,1
  100aac:	82260000 	lb	a2,0(s1)
  100ab0:	14c0ffea 	bnez	a2,100a5c <printf+0x58>
  100ab4:	24020025 	li	v0,37
  100ab8:	8fbf0030 	lw	ra,48(sp)
  100abc:	8fb7002c 	lw	s7,44(sp)
  100ac0:	8fb60028 	lw	s6,40(sp)
  100ac4:	8fb50024 	lw	s5,36(sp)
  100ac8:	8fb40020 	lw	s4,32(sp)
  100acc:	8fb3001c 	lw	s3,28(sp)
  100ad0:	8fb20018 	lw	s2,24(sp)
  100ad4:	8fb10014 	lw	s1,20(sp)
  100ad8:	8fb00010 	lw	s0,16(sp)
  100adc:	03e00008 	jr	ra
  100ae0:	27bd0038 	addiu	sp,sp,56
  100ae4:	10620049 	beq	v1,v0,100c0c <printf+0x208>
  100ae8:	24020078 	li	v0,120
  100aec:	50620020 	beql	v1,v0,100b70 <printf+0x16c>
  100af0:	8e720000 	lw	s2,0(s3)
  100af4:	00063600 	sll	a2,a2,0x18
  100af8:	00063603 	sra	a2,a2,0x18
  100afc:	27a40038 	addiu	a0,sp,56
  100b00:	27a5003c 	addiu	a1,sp,60
  100b04:	0c040220 	jal	100880 <printf_c>
  100b08:	26310001 	addiu	s1,s1,1
  100b0c:	82260000 	lb	a2,0(s1)
  100b10:	14c0ffd2 	bnez	a2,100a5c <printf+0x58>
  100b14:	24020025 	li	v0,37
  100b18:	8fbf0030 	lw	ra,48(sp)
  100b1c:	8fb7002c 	lw	s7,44(sp)
  100b20:	8fb60028 	lw	s6,40(sp)
  100b24:	8fb50024 	lw	s5,36(sp)
  100b28:	8fb40020 	lw	s4,32(sp)
  100b2c:	8fb3001c 	lw	s3,28(sp)
  100b30:	8fb20018 	lw	s2,24(sp)
  100b34:	8fb10014 	lw	s1,20(sp)
  100b38:	8fb00010 	lw	s0,16(sp)
  100b3c:	03e00008 	jr	ra
  100b40:	27bd0038 	addiu	sp,sp,56
  100b44:	1462ffec 	bne	v1,v0,100af8 <printf+0xf4>
  100b48:	00063600 	sll	a2,a2,0x18
  100b4c:	8e700000 	lw	s0,0(s3)
  100b50:	06000035 	bltz	s0,100c28 <printf+0x224>
  100b54:	26730004 	addiu	s3,s3,4
  100b58:	02003021 	move	a2,s0
  100b5c:	27a40038 	addiu	a0,sp,56
  100b60:	0c04025b 	jal	10096c <printf_u>
  100b64:	02e02821 	move	a1,s7
  100b68:	080402c3 	j	100b0c <printf+0x108>
  100b6c:	26310001 	addiu	s1,s1,1
  100b70:	27b40038 	addiu	s4,sp,56
  100b74:	26730004 	addiu	s3,s3,4
  100b78:	24100007 	li	s0,7
  100b7c:	00101080 	sll	v0,s0,0x2
  100b80:	00521006 	srlv	v0,s2,v0
  100b84:	3046000f 	andi	a2,v0,0xf
  100b88:	24c40057 	addiu	a0,a2,87
  100b8c:	28c2000a 	slti	v0,a2,10
  100b90:	24c30030 	addiu	v1,a2,48
  100b94:	10400002 	beqz	v0,100ba0 <printf+0x19c>
  100b98:	00043600 	sll	a2,a0,0x18
  100b9c:	00033600 	sll	a2,v1,0x18
  100ba0:	2610ffff 	addiu	s0,s0,-1
  100ba4:	00063603 	sra	a2,a2,0x18
  100ba8:	02802021 	move	a0,s4
  100bac:	0c040220 	jal	100880 <printf_c>
  100bb0:	02c02821 	move	a1,s6
  100bb4:	0601fff2 	bgez	s0,100b80 <printf+0x17c>
  100bb8:	00101080 	sll	v0,s0,0x2
  100bbc:	080402c3 	j	100b0c <printf+0x108>
  100bc0:	26310001 	addiu	s1,s1,1
  100bc4:	8e620000 	lw	v0,0(s3)
  100bc8:	27b20038 	addiu	s2,sp,56
  100bcc:	26730004 	addiu	s3,s3,4
  100bd0:	080402f9 	j	100be4 <printf+0x1e0>
  100bd4:	00408021 	move	s0,v0
  100bd8:	02a02821 	move	a1,s5
  100bdc:	0c040220 	jal	100880 <printf_c>
  100be0:	26100001 	addiu	s0,s0,1
  100be4:	82060000 	lb	a2,0(s0)
  100be8:	14c0fffb 	bnez	a2,100bd8 <printf+0x1d4>
  100bec:	02402021 	move	a0,s2
  100bf0:	080402c3 	j	100b0c <printf+0x108>
  100bf4:	26310001 	addiu	s1,s1,1
  100bf8:	82660000 	lb	a2,0(s3)
  100bfc:	27a40038 	addiu	a0,sp,56
  100c00:	27a5003c 	addiu	a1,sp,60
  100c04:	080402c1 	j	100b04 <printf+0x100>
  100c08:	26730004 	addiu	s3,s3,4
  100c0c:	8e660000 	lw	a2,0(s3)
  100c10:	27a40038 	addiu	a0,sp,56
  100c14:	27a5003c 	addiu	a1,sp,60
  100c18:	0c04025b 	jal	10096c <printf_u>
  100c1c:	26730004 	addiu	s3,s3,4
  100c20:	080402c3 	j	100b0c <printf+0x108>
  100c24:	26310001 	addiu	s1,s1,1
  100c28:	27a40038 	addiu	a0,sp,56
  100c2c:	02e02821 	move	a1,s7
  100c30:	0c040220 	jal	100880 <printf_c>
  100c34:	2406002d 	li	a2,45
  100c38:	27a40038 	addiu	a0,sp,56
  100c3c:	02e02821 	move	a1,s7
  100c40:	0c04025b 	jal	10096c <printf_u>
  100c44:	00103023 	negu	a2,s0
  100c48:	080402c3 	j	100b0c <printf+0x108>
  100c4c:	26310001 	addiu	s1,s1,1
  100c50:	e0ff0074 	sc	ra,116(a3)
	...