
kernel:     file format elf32-tradlittlemips

Disassembly of section .text:

a0800200 <printnum>:
a0800200:	27bdffc0 	addiu	sp,sp,-64
a0800204:	afbf0038 	sw	ra,56(sp)
a0800208:	00804021 	move	t0,a0
a080020c:	00a04821 	move	t1,a1
a0800210:	3c02bfe4 	lui	v0,0xbfe4
a0800214:	34478000 	ori	a3,v0,0x8000
a0800218:	24062710 	li	a2,10000
a080021c:	2402ffff 	li	v0,-1
a0800220:	24c6ffff 	addiu	a2,a2,-1
a0800224:	54c2ffff 	bnel	a2,v0,a0800224 <printnum+0x24>
a0800228:	24c6ffff 	addiu	a2,a2,-1
a080022c:	00003021 	move	a2,zero
a0800230:	27a50010 	addiu	a1,sp,16
a0800234:	00a62021 	addu	a0,a1,a2
a0800238:	3102000f 	andi	v0,t0,0xf
a080023c:	a0820000 	sb	v0,0(a0)
a0800240:	00084102 	srl	t0,t0,0x4
a0800244:	00091700 	sll	v0,t1,0x1c
a0800248:	01024025 	or	t0,t0,v0
a080024c:	00094902 	srl	t1,t1,0x4
a0800250:	01091025 	or	v0,t0,t1
a0800254:	1440fff7 	bnez	v0,a0800234 <printnum+0x34>
a0800258:	24c60001 	addiu	a2,a2,1
a080025c:	24c3ffff 	addiu	v1,a2,-1
a0800260:	04600010 	bltz	v1,a08002a4 <printnum+0xa4>
a0800264:	27a50010 	addiu	a1,sp,16
a0800268:	00a32021 	addu	a0,a1,v1
a080026c:	90820000 	lbu	v0,0(a0)
a0800270:	2c42000a 	sltiu	v0,v0,10
a0800274:	14400005 	bnez	v0,a080028c <printnum+0x8c>
a0800278:	00a31021 	addu	v0,a1,v1
a080027c:	90820000 	lbu	v0,0(a0)
a0800280:	24420057 	addiu	v0,v0,87
a0800284:	082000a6 	j	a0800298 <printnum+0x98>
a0800288:	a0e20000 	sb	v0,0(a3)
a080028c:	90420000 	lbu	v0,0(v0)
a0800290:	24420030 	addiu	v0,v0,48
a0800294:	a0e20000 	sb	v0,0(a3)
a0800298:	2463ffff 	addiu	v1,v1,-1
a080029c:	0463fff3 	bgezl	v1,a080026c <printnum+0x6c>
a08002a0:	00a32021 	addu	a0,a1,v1
a08002a4:	3c04a080 	lui	a0,0xa080
a08002a8:	0c200488 	jal	a0801220 <printstr>
a08002ac:	24841dd8 	addiu	a0,a0,7640
a08002b0:	8fbf0038 	lw	ra,56(sp)
a08002b4:	03e00008 	jr	ra
a08002b8:	27bd0040 	addiu	sp,sp,64

a08002bc <_stat>:
a08002bc:	27bdffd0 	addiu	sp,sp,-48
a08002c0:	afbf0028 	sw	ra,40(sp)
a08002c4:	afb50024 	sw	s5,36(sp)
a08002c8:	afb40020 	sw	s4,32(sp)
a08002cc:	afb3001c 	sw	s3,28(sp)
a08002d0:	afb20018 	sw	s2,24(sp)
a08002d4:	afb10014 	sw	s1,20(sp)
a08002d8:	afb00010 	sw	s0,16(sp)
a08002dc:	3c03a080 	lui	v1,0xa080
a08002e0:	ac602394 	sw	zero,9108(v1)
a08002e4:	24632394 	addiu	v1,v1,9108
a08002e8:	ac600004 	sw	zero,4(v1)
a08002ec:	24040001 	li	a0,1
a08002f0:	ac640008 	sw	a0,8(v1)
a08002f4:	24050004 	li	a1,4
a08002f8:	ac650010 	sw	a1,16(v1)
a08002fc:	3c02a080 	lui	v0,0xa080
a0800300:	24422340 	addiu	v0,v0,9024
a0800304:	ac62000c 	sw	v0,12(v1)
a0800308:	3c02a080 	lui	v0,0xa080
a080030c:	ac432214 	sw	v1,8724(v0)
a0800310:	3c03a080 	lui	v1,0xa080
a0800314:	ac602380 	sw	zero,9088(v1)
a0800318:	24632380 	addiu	v1,v1,9088
a080031c:	ac600004 	sw	zero,4(v1)
a0800320:	ac640008 	sw	a0,8(v1)
a0800324:	ac650010 	sw	a1,16(v1)
a0800328:	3c02a080 	lui	v0,0xa080
a080032c:	244223a8 	addiu	v0,v0,9128
a0800330:	ac62000c 	sw	v0,12(v1)
a0800334:	3c02a080 	lui	v0,0xa080
a0800338:	ac432210 	sw	v1,8720(v0)
a080033c:	00002821 	move	a1,zero
a0800340:	3c02a080 	lui	v0,0xa080
a0800344:	24522350 	addiu	s2,v0,9040
a0800348:	24130001 	li	s3,1
a080034c:	3c02a080 	lui	v0,0xa080
a0800350:	24542290 	addiu	s4,v0,8848
a0800354:	3c02a080 	lui	v0,0xa080
a0800358:	24552130 	addiu	s5,v0,8496
a080035c:	00051840 	sll	v1,a1,0x1
a0800360:	00651821 	addu	v1,v1,a1
a0800364:	00031880 	sll	v1,v1,0x2
a0800368:	00728021 	addu	s0,v1,s2
a080036c:	24b10001 	addiu	s1,a1,1
a0800370:	ae110000 	sw	s1,0(s0)
a0800374:	ae130004 	sw	s3,4(s0)
a0800378:	00651823 	subu	v1,v1,a1
a080037c:	00031880 	sll	v1,v1,0x2
a0800380:	00741821 	addu	v1,v1,s4
a0800384:	ae030008 	sw	v1,8(s0)
a0800388:	00051300 	sll	v0,a1,0xc
a080038c:	3c04a089 	lui	a0,0xa089
a0800390:	00822023 	subu	a0,a0,v0
a0800394:	ac640000 	sw	a0,0(v1)
a0800398:	00051080 	sll	v0,a1,0x2
a080039c:	00551021 	addu	v0,v0,s5
a08003a0:	8c420000 	lw	v0,0(v0)
a08003a4:	8c420000 	lw	v0,0(v0)
a08003a8:	ac620004 	sw	v0,4(v1)
a08003ac:	ac600008 	sw	zero,8(v1)
a08003b0:	ac60000c 	sw	zero,12(v1)
a08003b4:	ac600010 	sw	zero,16(v1)
a08003b8:	ac600014 	sw	zero,20(v1)
a08003bc:	ac600018 	sw	zero,24(v1)
a08003c0:	ac60001c 	sw	zero,28(v1)
a08003c4:	ac600020 	sw	zero,32(v1)
a08003c8:	ac600024 	sw	zero,36(v1)
a08003cc:	ac640028 	sw	a0,40(v1)
a08003d0:	00402021 	move	a0,v0
a08003d4:	0c200080 	jal	a0800200 <printnum>
a08003d8:	00002821 	move	a1,zero
a08003dc:	3c02a080 	lui	v0,0xa080
a08003e0:	8c442214 	lw	a0,8724(v0)
a08003e4:	0c20072c 	jal	a0801cb0 <queue_push>
a08003e8:	02002821 	move	a1,s0
a08003ec:	2a220004 	slti	v0,s1,4
a08003f0:	1440ffda 	bnez	v0,a080035c <_stat+0xa0>
a08003f4:	02202821 	move	a1,s1
a08003f8:	3c04a080 	lui	a0,0xa080
a08003fc:	0c200488 	jal	a0801220 <printstr>
a0800400:	24841ddc 	addiu	a0,a0,7644
a0800404:	00002021 	move	a0,zero
a0800408:	00002821 	move	a1,zero
a080040c:	2406001e 	li	a2,30
a0800410:	0c20050b 	jal	a080142c <clear_screen>
a0800414:	24070018 	li	a3,24
a0800418:	3c02a080 	lui	v0,0xa080
a080041c:	0c20013b 	jal	a08004ec <scheduler_entry>
a0800420:	ac402228 	sw	zero,8744(v0)
a0800424:	00002021 	move	a0,zero
a0800428:	2405000d 	li	a1,13
a080042c:	3c06a080 	lui	a2,0xa080
a0800430:	0c2004e9 	jal	a08013a4 <print_str>
a0800434:	24c61de4 	addiu	a2,a2,7652
a0800438:	00002021 	move	a0,zero
a080043c:	2405000e 	li	a1,14
a0800440:	3c06a080 	lui	a2,0xa080
a0800444:	0c2004e9 	jal	a08013a4 <print_str>
a0800448:	24c61de0 	addiu	a2,a2,7648
a080044c:	00002021 	move	a0,zero
a0800450:	2405000f 	li	a1,15
a0800454:	3c06a080 	lui	a2,0xa080
a0800458:	0c2004e9 	jal	a08013a4 <print_str>
a080045c:	24c61df8 	addiu	a2,a2,7672
a0800460:	00002021 	move	a0,zero
a0800464:	24050010 	li	a1,16
a0800468:	3c06a080 	lui	a2,0xa080
a080046c:	0c2004e9 	jal	a08013a4 <print_str>
a0800470:	24c61e00 	addiu	a2,a2,7680
a0800474:	00002021 	move	a0,zero
a0800478:	24050011 	li	a1,17
a080047c:	3c06a080 	lui	a2,0xa080
a0800480:	0c2004e9 	jal	a08013a4 <print_str>
a0800484:	24c61e0c 	addiu	a2,a2,7692
a0800488:	00002021 	move	a0,zero
a080048c:	24050012 	li	a1,18
a0800490:	0c200499 	jal	a0801264 <print_int>
a0800494:	24060070 	li	a2,112
a0800498:	08200126 	j	a0800498 <_stat+0x1dc>
a080049c:	00000000 	nop

a08004a0 <get_timer>:
a08004a0:	40024800 	mfc0	v0,$9
a08004a4:	03e00008 	jr	ra
a08004a8:	00000000 	nop
a08004ac:	00000000 	nop

a08004b0 <kernel_entry>:
a08004b0:	27bdffe8 	addiu	sp,sp,-24
a08004b4:	14800006 	bnez	a0,a08004d0 <kernel_entry+0x20>
a08004b8:	afbf0000 	sw	ra,0(sp)
a08004bc:	0c2001a0 	jal	a0800680 <do_yield>
a08004c0:	00000000 	nop
a08004c4:	10000005 	b	a08004dc <kernel_entry+0x2c>
a08004c8:	00000000 	nop
a08004cc:	00000000 	nop
a08004d0:	0c2001cd 	jal	a0800734 <do_exit>
a08004d4:	00000000 	nop
a08004d8:	00000000 	nop
a08004dc:	8fbf0000 	lw	ra,0(sp)
a08004e0:	03e00008 	jr	ra
a08004e4:	27bd0018 	addiu	sp,sp,24
a08004e8:	00000000 	nop

a08004ec <scheduler_entry>:
a08004ec:	0c200180 	jal	a0800600 <scheduler>
a08004f0:	00000000 	nop
a08004f4:	00000000 	nop
a08004f8:	3c08a080 	lui	t0,0xa080
a08004fc:	25082218 	addiu	t0,t0,8728
a0800500:	8d080000 	lw	t0,0(t0)
a0800504:	8d080008 	lw	t0,8(t0)
a0800508:	8d1d0000 	lw	sp,0(t0)
a080050c:	8d1f0004 	lw	ra,4(t0)
a0800510:	8d100008 	lw	s0,8(t0)
a0800514:	8d11000c 	lw	s1,12(t0)
a0800518:	8d120010 	lw	s2,16(t0)
a080051c:	8d130014 	lw	s3,20(t0)
a0800520:	8d140018 	lw	s4,24(t0)
a0800524:	8d15001c 	lw	s5,28(t0)
a0800528:	8d160020 	lw	s6,32(t0)
a080052c:	8d170024 	lw	s7,36(t0)
a0800530:	03e00008 	jr	ra
a0800534:	8d1e0028 	lw	s8,40(t0)
a0800538:	00000000 	nop

a080053c <save_pcb>:
a080053c:	3c08a080 	lui	t0,0xa080
a0800540:	25082218 	addiu	t0,t0,8728
a0800544:	8d080000 	lw	t0,0(t0)
a0800548:	8d080008 	lw	t0,8(t0)
a080054c:	27bd0018 	addiu	sp,sp,24
a0800550:	ad1d0000 	sw	sp,0(t0)
a0800554:	27bdffe8 	addiu	sp,sp,-24
a0800558:	8fa90010 	lw	t1,16(sp)
a080055c:	ad090004 	sw	t1,4(t0)
a0800560:	ad100008 	sw	s0,8(t0)
a0800564:	ad11000c 	sw	s1,12(t0)
a0800568:	ad120010 	sw	s2,16(t0)
a080056c:	ad130014 	sw	s3,20(t0)
a0800570:	ad140018 	sw	s4,24(t0)
a0800574:	ad15001c 	sw	s5,28(t0)
a0800578:	ad160020 	sw	s6,32(t0)
a080057c:	ad170024 	sw	s7,36(t0)
a0800580:	03e00008 	jr	ra
a0800584:	ad1e0028 	sw	s8,40(t0)
	...

a0800590 <lock_init>:
a0800590:	ac800000 	sw	zero,0(a0)
a0800594:	03e00008 	jr	ra
a0800598:	00000000 	nop

a080059c <lock_acquire>:
a080059c:	27bdffe0 	addiu	sp,sp,-32
a08005a0:	afbf0018 	sw	ra,24(sp)
a08005a4:	afb10014 	sw	s1,20(sp)
a08005a8:	afb00010 	sw	s0,16(sp)
a08005ac:	00808021 	move	s0,a0
a08005b0:	8c830000 	lw	v1,0(a0)
a08005b4:	24020001 	li	v0,1
a08005b8:	14620006 	bne	v1,v0,a08005d4 <lock_acquire+0x38>
a08005bc:	24110001 	li	s1,1
a08005c0:	0c2001a0 	jal	a0800680 <do_yield>
a08005c4:	00000000 	nop
a08005c8:	8e020000 	lw	v0,0(s0)
a08005cc:	1051fffc 	beq	v0,s1,a08005c0 <lock_acquire+0x24>
a08005d0:	24020001 	li	v0,1
a08005d4:	ae020000 	sw	v0,0(s0)
a08005d8:	8fbf0018 	lw	ra,24(sp)
a08005dc:	8fb10014 	lw	s1,20(sp)
a08005e0:	8fb00010 	lw	s0,16(sp)
a08005e4:	03e00008 	jr	ra
a08005e8:	27bd0020 	addiu	sp,sp,32

a08005ec <lock_release>:
a08005ec:	ac800000 	sw	zero,0(a0)
a08005f0:	03e00008 	jr	ra
a08005f4:	00000000 	nop
	...

a0800600 <scheduler>:
a0800600:	27bdffe8 	addiu	sp,sp,-24
a0800604:	afbf0014 	sw	ra,20(sp)
a0800608:	afb00010 	sw	s0,16(sp)
a080060c:	3c03a080 	lui	v1,0xa080
a0800610:	8c622228 	lw	v0,8744(v1)
a0800614:	24420001 	addiu	v0,v0,1
a0800618:	ac622228 	sw	v0,8744(v1)
a080061c:	3c02a080 	lui	v0,0xa080
a0800620:	8c442214 	lw	a0,8724(v0)
a0800624:	8c820008 	lw	v0,8(a0)
a0800628:	14400012 	bnez	v0,a0800674 <scheduler+0x74>
a080062c:	8fbf0014 	lw	ra,20(sp)
a0800630:	0c200744 	jal	a0801d10 <queue_pop>
a0800634:	3c10a080 	lui	s0,0xa080
a0800638:	ae022218 	sw	v0,8728(s0)
a080063c:	24030002 	li	v1,2
a0800640:	ac430004 	sw	v1,4(v0)
a0800644:	00002021 	move	a0,zero
a0800648:	2405000f 	li	a1,15
a080064c:	3c06a080 	lui	a2,0xa080
a0800650:	0c2004e9 	jal	a08013a4 <print_str>
a0800654:	24c61e14 	addiu	a2,a2,7700
a0800658:	8e022218 	lw	v0,8728(s0)
a080065c:	24040005 	li	a0,5
a0800660:	2405000f 	li	a1,15
a0800664:	8c460000 	lw	a2,0(v0)
a0800668:	0c200499 	jal	a0801264 <print_int>
a080066c:	00000000 	nop
a0800670:	8fbf0014 	lw	ra,20(sp)
a0800674:	8fb00010 	lw	s0,16(sp)
a0800678:	03e00008 	jr	ra
a080067c:	27bd0018 	addiu	sp,sp,24

a0800680 <do_yield>:
a0800680:	27bdffe8 	addiu	sp,sp,-24
a0800684:	afbf0010 	sw	ra,16(sp)
a0800688:	0c20014f 	jal	a080053c <save_pcb>
a080068c:	00000000 	nop
a0800690:	3c05a080 	lui	a1,0xa080
a0800694:	8ca32218 	lw	v1,8728(a1)
a0800698:	24020001 	li	v0,1
a080069c:	ac620004 	sw	v0,4(v1)
a08006a0:	3c02a080 	lui	v0,0xa080
a08006a4:	8c442214 	lw	a0,8724(v0)
a08006a8:	0c20072c 	jal	a0801cb0 <queue_push>
a08006ac:	8ca52218 	lw	a1,8728(a1)
a08006b0:	0c20013b 	jal	a08004ec <scheduler_entry>
a08006b4:	00000000 	nop
a08006b8:	00002021 	move	a0,zero
a08006bc:	2405000d 	li	a1,13
a08006c0:	3c06a080 	lui	a2,0xa080
a08006c4:	0c2004e9 	jal	a08013a4 <print_str>
a08006c8:	24c61de4 	addiu	a2,a2,7652
a08006cc:	00002021 	move	a0,zero
a08006d0:	2405000e 	li	a1,14
a08006d4:	3c06a080 	lui	a2,0xa080
a08006d8:	0c2004e9 	jal	a08013a4 <print_str>
a08006dc:	24c61de0 	addiu	a2,a2,7648
a08006e0:	00002021 	move	a0,zero
a08006e4:	2405000f 	li	a1,15
a08006e8:	3c06a080 	lui	a2,0xa080
a08006ec:	0c2004e9 	jal	a08013a4 <print_str>
a08006f0:	24c61df8 	addiu	a2,a2,7672
a08006f4:	00002021 	move	a0,zero
a08006f8:	24050010 	li	a1,16
a08006fc:	3c06a080 	lui	a2,0xa080
a0800700:	0c2004e9 	jal	a08013a4 <print_str>
a0800704:	24c61e1c 	addiu	a2,a2,7708
a0800708:	00002021 	move	a0,zero
a080070c:	24050011 	li	a1,17
a0800710:	3c06a080 	lui	a2,0xa080
a0800714:	0c2004e9 	jal	a08013a4 <print_str>
a0800718:	24c61e0c 	addiu	a2,a2,7692
a080071c:	00002021 	move	a0,zero
a0800720:	24050012 	li	a1,18
a0800724:	0c200499 	jal	a0801264 <print_int>
a0800728:	2406002a 	li	a2,42
a080072c:	082001cb 	j	a080072c <do_yield+0xac>
a0800730:	00000000 	nop

a0800734 <do_exit>:
a0800734:	27bdffe8 	addiu	sp,sp,-24
a0800738:	afbf0010 	sw	ra,16(sp)
a080073c:	3c02a080 	lui	v0,0xa080
a0800740:	8c432218 	lw	v1,8728(v0)
a0800744:	24020003 	li	v0,3
a0800748:	ac620004 	sw	v0,4(v1)
a080074c:	0c20013b 	jal	a08004ec <scheduler_entry>
a0800750:	00000000 	nop
a0800754:	8fbf0010 	lw	ra,16(sp)
a0800758:	03e00008 	jr	ra
a080075c:	27bd0018 	addiu	sp,sp,24

a0800760 <block>:
a0800760:	27bdffe8 	addiu	sp,sp,-24
a0800764:	afbf0010 	sw	ra,16(sp)
a0800768:	0c20014f 	jal	a080053c <save_pcb>
a080076c:	00000000 	nop
a0800770:	3c03a080 	lui	v1,0xa080
a0800774:	8c622218 	lw	v0,8728(v1)
a0800778:	ac400004 	sw	zero,4(v0)
a080077c:	3c02a080 	lui	v0,0xa080
a0800780:	8c442210 	lw	a0,8720(v0)
a0800784:	0c20072c 	jal	a0801cb0 <queue_push>
a0800788:	8c652218 	lw	a1,8728(v1)
a080078c:	00002021 	move	a0,zero
a0800790:	2405000d 	li	a1,13
a0800794:	3c06a080 	lui	a2,0xa080
a0800798:	0c2004e9 	jal	a08013a4 <print_str>
a080079c:	24c61de4 	addiu	a2,a2,7652
a08007a0:	00002021 	move	a0,zero
a08007a4:	2405000e 	li	a1,14
a08007a8:	3c06a080 	lui	a2,0xa080
a08007ac:	0c2004e9 	jal	a08013a4 <print_str>
a08007b0:	24c61de0 	addiu	a2,a2,7648
a08007b4:	00002021 	move	a0,zero
a08007b8:	2405000f 	li	a1,15
a08007bc:	3c06a080 	lui	a2,0xa080
a08007c0:	0c2004e9 	jal	a08013a4 <print_str>
a08007c4:	24c61df8 	addiu	a2,a2,7672
a08007c8:	00002021 	move	a0,zero
a08007cc:	24050010 	li	a1,16
a08007d0:	3c06a080 	lui	a2,0xa080
a08007d4:	0c2004e9 	jal	a08013a4 <print_str>
a08007d8:	24c61e1c 	addiu	a2,a2,7708
a08007dc:	00002021 	move	a0,zero
a08007e0:	24050011 	li	a1,17
a08007e4:	3c06a080 	lui	a2,0xa080
a08007e8:	0c2004e9 	jal	a08013a4 <print_str>
a08007ec:	24c61e0c 	addiu	a2,a2,7692
a08007f0:	00002021 	move	a0,zero
a08007f4:	24050012 	li	a1,18
a08007f8:	0c200499 	jal	a0801264 <print_int>
a08007fc:	2406003d 	li	a2,61
a0800800:	08200200 	j	a0800800 <block+0xa0>
a0800804:	00000000 	nop

a0800808 <unblock>:
a0800808:	27bdffe0 	addiu	sp,sp,-32
a080080c:	afbf001c 	sw	ra,28(sp)
a0800810:	afb20018 	sw	s2,24(sp)
a0800814:	afb10014 	sw	s1,20(sp)
a0800818:	afb00010 	sw	s0,16(sp)
a080081c:	3c02a080 	lui	v0,0xa080
a0800820:	8c422210 	lw	v0,8720(v0)
a0800824:	8c420008 	lw	v0,8(v0)
a0800828:	14400013 	bnez	v0,a0800878 <unblock+0x70>
a080082c:	00001821 	move	v1,zero
a0800830:	3c02a080 	lui	v0,0xa080
a0800834:	8c422210 	lw	v0,8720(v0)
a0800838:	8c420008 	lw	v0,8(v0)
a080083c:	1440000d 	bnez	v0,a0800874 <unblock+0x6c>
a0800840:	3c10a080 	lui	s0,0xa080
a0800844:	24120001 	li	s2,1
a0800848:	3c11a080 	lui	s1,0xa080
a080084c:	0c200744 	jal	a0801d10 <queue_pop>
a0800850:	8e042210 	lw	a0,8720(s0)
a0800854:	ac520004 	sw	s2,4(v0)
a0800858:	8e242214 	lw	a0,8724(s1)
a080085c:	0c20072c 	jal	a0801cb0 <queue_push>
a0800860:	00402821 	move	a1,v0
a0800864:	8e022210 	lw	v0,8720(s0)
a0800868:	8c420008 	lw	v0,8(v0)
a080086c:	1040fff7 	beqz	v0,a080084c <unblock+0x44>
a0800870:	00000000 	nop
a0800874:	24030001 	li	v1,1
a0800878:	00601021 	move	v0,v1
a080087c:	8fbf001c 	lw	ra,28(sp)
a0800880:	8fb20018 	lw	s2,24(sp)
a0800884:	8fb10014 	lw	s1,20(sp)
a0800888:	8fb00010 	lw	s0,16(sp)
a080088c:	03e00008 	jr	ra
a0800890:	27bd0020 	addiu	sp,sp,32

a0800894 <blocked_tasks>:
a0800894:	3c02a080 	lui	v0,0xa080
a0800898:	8c422210 	lw	v0,8720(v0)
a080089c:	8c420008 	lw	v0,8(v0)
a08008a0:	03e00008 	jr	ra
a08008a4:	2c420001 	sltiu	v0,v0,1
	...

a08008b0 <clock_thread>:
a08008b0:	27bdffd8 	addiu	sp,sp,-40
a08008b4:	afbf0024 	sw	ra,36(sp)
a08008b8:	afb40020 	sw	s4,32(sp)
a08008bc:	afb3001c 	sw	s3,28(sp)
a08008c0:	afb20018 	sw	s2,24(sp)
a08008c4:	afb10014 	sw	s1,20(sp)
a08008c8:	0c200128 	jal	a08004a0 <get_timer>
a08008cc:	afb00010 	sw	s0,16(sp)
a08008d0:	00409021 	move	s2,v0
a08008d4:	00008821 	move	s1,zero
a08008d8:	3c021062 	lui	v0,0x1062
a08008dc:	34544dd3 	ori	s4,v0,0x4dd3
a08008e0:	3c13a080 	lui	s3,0xa080
a08008e4:	0c200128 	jal	a08004a0 <get_timer>
a08008e8:	26310001 	addiu	s1,s1,1
a08008ec:	00528023 	subu	s0,v0,s2
a08008f0:	02140019 	multu	s0,s4
a08008f4:	00008010 	mfhi	s0
a08008f8:	00108102 	srl	s0,s0,0x4
a08008fc:	24040001 	li	a0,1
a0800900:	0c200636 	jal	a08018d8 <print_location>
a0800904:	24050001 	li	a1,1
a0800908:	0c200488 	jal	a0801220 <printstr>
a080090c:	26641e28 	addiu	a0,s3,7720
a0800910:	24040014 	li	a0,20
a0800914:	24050001 	li	a1,1
a0800918:	0c200655 	jal	a0801954 <printint>
a080091c:	02003021 	move	a2,s0
a0800920:	0c200259 	jal	a0800964 <print_counter>
a0800924:	00000000 	nop
a0800928:	0c2001a0 	jal	a0800680 <do_yield>
a080092c:	00000000 	nop
a0800930:	2a22000a 	slti	v0,s1,10
a0800934:	1440ffeb 	bnez	v0,a08008e4 <clock_thread+0x34>
a0800938:	00000000 	nop
a080093c:	0c2001cd 	jal	a0800734 <do_exit>
a0800940:	00000000 	nop
a0800944:	8fbf0024 	lw	ra,36(sp)
a0800948:	8fb40020 	lw	s4,32(sp)
a080094c:	8fb3001c 	lw	s3,28(sp)
a0800950:	8fb20018 	lw	s2,24(sp)
a0800954:	8fb10014 	lw	s1,20(sp)
a0800958:	8fb00010 	lw	s0,16(sp)
a080095c:	03e00008 	jr	ra
a0800960:	27bd0028 	addiu	sp,sp,40

a0800964 <print_counter>:
a0800964:	27bdffe8 	addiu	sp,sp,-24
a0800968:	afbf0010 	sw	ra,16(sp)
a080096c:	24040001 	li	a0,1
a0800970:	0c200636 	jal	a08018d8 <print_location>
a0800974:	24050002 	li	a1,2
a0800978:	3c04a080 	lui	a0,0xa080
a080097c:	0c200488 	jal	a0801220 <printstr>
a0800980:	24841e38 	addiu	a0,a0,7736
a0800984:	3c03a080 	lui	v1,0xa080
a0800988:	8c622240 	lw	v0,8768(v1)
a080098c:	00403021 	move	a2,v0
a0800990:	24420001 	addiu	v0,v0,1
a0800994:	ac622240 	sw	v0,8768(v1)
a0800998:	24040014 	li	a0,20
a080099c:	0c200655 	jal	a0801954 <printint>
a08009a0:	24050002 	li	a1,2
a08009a4:	8fbf0010 	lw	ra,16(sp)
a08009a8:	03e00008 	jr	ra
a08009ac:	27bd0018 	addiu	sp,sp,24

a08009b0 <thread2>:
a08009b0:	27bdffd8 	addiu	sp,sp,-40
a08009b4:	afbf0024 	sw	ra,36(sp)
a08009b8:	afb40020 	sw	s4,32(sp)
a08009bc:	afb3001c 	sw	s3,28(sp)
a08009c0:	afb20018 	sw	s2,24(sp)
a08009c4:	afb10014 	sw	s1,20(sp)
a08009c8:	afb00010 	sw	s0,16(sp)
a08009cc:	3c10a080 	lui	s0,0xa080
a08009d0:	8e022258 	lw	v0,8792(s0)
a08009d4:	54400007 	bnezl	v0,a08009f4 <thread2+0x44>
a08009d8:	00008021 	move	s0,zero
a08009dc:	3c04a080 	lui	a0,0xa080
a08009e0:	0c200164 	jal	a0800590 <lock_init>
a08009e4:	24842264 	addiu	a0,a0,8804
a08009e8:	24020001 	li	v0,1
a08009ec:	ae022258 	sw	v0,8792(s0)
a08009f0:	00008021 	move	s0,zero
a08009f4:	3c13a080 	lui	s3,0xa080
a08009f8:	3c12a080 	lui	s2,0xa080
a08009fc:	3c024ec4 	lui	v0,0x4ec4
a0800a00:	3454ec4f 	ori	s4,v0,0xec4f
a0800a04:	0c200167 	jal	a080059c <lock_acquire>
a0800a08:	26642264 	addiu	a0,s3,8804
a0800a0c:	8e512250 	lw	s1,8784(s2)
a0800a10:	02140018 	mult	s0,s4
a0800a14:	00001010 	mfhi	v0
a0800a18:	00021083 	sra	v0,v0,0x2
a0800a1c:	00101fc3 	sra	v1,s0,0x1f
a0800a20:	00431023 	subu	v0,v0,v1
a0800a24:	00021840 	sll	v1,v0,0x1
a0800a28:	00621821 	addu	v1,v1,v0
a0800a2c:	00031880 	sll	v1,v1,0x2
a0800a30:	00621821 	addu	v1,v1,v0
a0800a34:	16030004 	bne	s0,v1,a0800a48 <thread2+0x98>
a0800a38:	26220001 	addiu	v0,s1,1
a0800a3c:	0c2001a0 	jal	a0800680 <do_yield>
a0800a40:	00000000 	nop
a0800a44:	26220001 	addiu	v0,s1,1
a0800a48:	ae422250 	sw	v0,8784(s2)
a0800a4c:	0c20017b 	jal	a08005ec <lock_release>
a0800a50:	26642264 	addiu	a0,s3,8804
a0800a54:	24040002 	li	a0,2
a0800a58:	0c200304 	jal	a0800c10 <print_counter>
a0800a5c:	00002821 	move	a1,zero
a0800a60:	0c2001a0 	jal	a0800680 <do_yield>
a0800a64:	26100001 	addiu	s0,s0,1
a0800a68:	2a020064 	slti	v0,s0,100
a0800a6c:	1440ffe5 	bnez	v0,a0800a04 <thread2+0x54>
a0800a70:	3c03a080 	lui	v1,0xa080
a0800a74:	8c622254 	lw	v0,8788(v1)
a0800a78:	24420001 	addiu	v0,v0,1
a0800a7c:	ac622254 	sw	v0,8788(v1)
a0800a80:	8c632254 	lw	v1,8788(v1)
a0800a84:	24020002 	li	v0,2
a0800a88:	1462000a 	bne	v1,v0,a0800ab4 <thread2+0x104>
a0800a8c:	24040002 	li	a0,2
a0800a90:	3c02a080 	lui	v0,0xa080
a0800a94:	8c452250 	lw	a1,8784(v0)
a0800a98:	38a500c8 	xori	a1,a1,0xc8
a0800a9c:	0005282b 	sltu	a1,zero,a1
a0800aa0:	24040002 	li	a0,2
a0800aa4:	0c200304 	jal	a0800c10 <print_counter>
a0800aa8:	24a50001 	addiu	a1,a1,1
a0800aac:	082002af 	j	a0800abc <thread2+0x10c>
a0800ab0:	00000000 	nop
a0800ab4:	0c200304 	jal	a0800c10 <print_counter>
a0800ab8:	24050003 	li	a1,3
a0800abc:	0c2001cd 	jal	a0800734 <do_exit>
a0800ac0:	00000000 	nop
a0800ac4:	8fbf0024 	lw	ra,36(sp)
a0800ac8:	8fb40020 	lw	s4,32(sp)
a0800acc:	8fb3001c 	lw	s3,28(sp)
a0800ad0:	8fb20018 	lw	s2,24(sp)
a0800ad4:	8fb10014 	lw	s1,20(sp)
a0800ad8:	8fb00010 	lw	s0,16(sp)
a0800adc:	03e00008 	jr	ra
a0800ae0:	27bd0028 	addiu	sp,sp,40

a0800ae4 <thread3>:
a0800ae4:	27bdffd8 	addiu	sp,sp,-40
a0800ae8:	afbf0024 	sw	ra,36(sp)
a0800aec:	afb40020 	sw	s4,32(sp)
a0800af0:	afb3001c 	sw	s3,28(sp)
a0800af4:	afb20018 	sw	s2,24(sp)
a0800af8:	afb10014 	sw	s1,20(sp)
a0800afc:	afb00010 	sw	s0,16(sp)
a0800b00:	3c10a080 	lui	s0,0xa080
a0800b04:	8e022258 	lw	v0,8792(s0)
a0800b08:	54400007 	bnezl	v0,a0800b28 <thread3+0x44>
a0800b0c:	00008021 	move	s0,zero
a0800b10:	3c04a080 	lui	a0,0xa080
a0800b14:	0c200164 	jal	a0800590 <lock_init>
a0800b18:	24842264 	addiu	a0,a0,8804
a0800b1c:	24020001 	li	v0,1
a0800b20:	ae022258 	sw	v0,8792(s0)
a0800b24:	00008021 	move	s0,zero
a0800b28:	3c13a080 	lui	s3,0xa080
a0800b2c:	3c12a080 	lui	s2,0xa080
a0800b30:	3c027878 	lui	v0,0x7878
a0800b34:	34547879 	ori	s4,v0,0x7879
a0800b38:	0c200167 	jal	a080059c <lock_acquire>
a0800b3c:	26642264 	addiu	a0,s3,8804
a0800b40:	8e512250 	lw	s1,8784(s2)
a0800b44:	02140018 	mult	s0,s4
a0800b48:	00001010 	mfhi	v0
a0800b4c:	000210c3 	sra	v0,v0,0x3
a0800b50:	00101fc3 	sra	v1,s0,0x1f
a0800b54:	00431023 	subu	v0,v0,v1
a0800b58:	00021900 	sll	v1,v0,0x4
a0800b5c:	00621821 	addu	v1,v1,v0
a0800b60:	16030004 	bne	s0,v1,a0800b74 <thread3+0x90>
a0800b64:	26220001 	addiu	v0,s1,1
a0800b68:	0c2001a0 	jal	a0800680 <do_yield>
a0800b6c:	00000000 	nop
a0800b70:	26220001 	addiu	v0,s1,1
a0800b74:	ae422250 	sw	v0,8784(s2)
a0800b78:	0c20017b 	jal	a08005ec <lock_release>
a0800b7c:	26642264 	addiu	a0,s3,8804
a0800b80:	24040003 	li	a0,3
a0800b84:	0c200304 	jal	a0800c10 <print_counter>
a0800b88:	00002821 	move	a1,zero
a0800b8c:	0c2001a0 	jal	a0800680 <do_yield>
a0800b90:	26100001 	addiu	s0,s0,1
a0800b94:	2a020064 	slti	v0,s0,100
a0800b98:	1440ffe7 	bnez	v0,a0800b38 <thread3+0x54>
a0800b9c:	3c03a080 	lui	v1,0xa080
a0800ba0:	8c622254 	lw	v0,8788(v1)
a0800ba4:	24420001 	addiu	v0,v0,1
a0800ba8:	ac622254 	sw	v0,8788(v1)
a0800bac:	8c632254 	lw	v1,8788(v1)
a0800bb0:	24020002 	li	v0,2
a0800bb4:	1462000a 	bne	v1,v0,a0800be0 <thread3+0xfc>
a0800bb8:	24040003 	li	a0,3
a0800bbc:	3c02a080 	lui	v0,0xa080
a0800bc0:	8c452250 	lw	a1,8784(v0)
a0800bc4:	38a500c8 	xori	a1,a1,0xc8
a0800bc8:	0005282b 	sltu	a1,zero,a1
a0800bcc:	24040003 	li	a0,3
a0800bd0:	0c200304 	jal	a0800c10 <print_counter>
a0800bd4:	24a50001 	addiu	a1,a1,1
a0800bd8:	082002fa 	j	a0800be8 <thread3+0x104>
a0800bdc:	00000000 	nop
a0800be0:	0c200304 	jal	a0800c10 <print_counter>
a0800be4:	24050003 	li	a1,3
a0800be8:	0c2001cd 	jal	a0800734 <do_exit>
a0800bec:	00000000 	nop
a0800bf0:	8fbf0024 	lw	ra,36(sp)
a0800bf4:	8fb40020 	lw	s4,32(sp)
a0800bf8:	8fb3001c 	lw	s3,28(sp)
a0800bfc:	8fb20018 	lw	s2,24(sp)
a0800c00:	8fb10014 	lw	s1,20(sp)
a0800c04:	8fb00010 	lw	s0,16(sp)
a0800c08:	03e00008 	jr	ra
a0800c0c:	27bd0028 	addiu	sp,sp,40

a0800c10 <print_counter>:
a0800c10:	27bdffe0 	addiu	sp,sp,-32
a0800c14:	afbf001c 	sw	ra,28(sp)
a0800c18:	afb20018 	sw	s2,24(sp)
a0800c1c:	afb10014 	sw	s1,20(sp)
a0800c20:	afb00010 	sw	s0,16(sp)
a0800c24:	00809021 	move	s2,a0
a0800c28:	00a08821 	move	s1,a1
a0800c2c:	24020002 	li	v0,2
a0800c30:	14820009 	bne	a0,v0,a0800c58 <print_counter+0x48>
a0800c34:	24900002 	addiu	s0,a0,2
a0800c38:	00002021 	move	a0,zero
a0800c3c:	0c200636 	jal	a08018d8 <print_location>
a0800c40:	02002821 	move	a1,s0
a0800c44:	3c04a080 	lui	a0,0xa080
a0800c48:	0c200488 	jal	a0801220 <printstr>
a0800c4c:	24841e4c 	addiu	a0,a0,7756
a0800c50:	0820031d 	j	a0800c74 <print_counter+0x64>
a0800c54:	24020001 	li	v0,1
a0800c58:	00002021 	move	a0,zero
a0800c5c:	0c200636 	jal	a08018d8 <print_location>
a0800c60:	02002821 	move	a1,s0
a0800c64:	3c04a080 	lui	a0,0xa080
a0800c68:	0c200488 	jal	a0801220 <printstr>
a0800c6c:	24841e60 	addiu	a0,a0,7776
a0800c70:	24020001 	li	v0,1
a0800c74:	12220022 	beq	s1,v0,a0800d00 <print_counter+0xf0>
a0800c78:	2a220002 	slti	v0,s1,2
a0800c7c:	10400005 	beqz	v0,a0800c94 <print_counter+0x84>
a0800c80:	24020003 	li	v0,3
a0800c84:	12200007 	beqz	s1,a0800ca4 <print_counter+0x94>
a0800c88:	24020002 	li	v0,2
a0800c8c:	08200348 	j	a0800d20 <print_counter+0x110>
a0800c90:	24040019 	li	a0,25
a0800c94:	12220013 	beq	s1,v0,a0800ce4 <print_counter+0xd4>
a0800c98:	24040019 	li	a0,25
a0800c9c:	08200348 	j	a0800d20 <print_counter+0x110>
a0800ca0:	00000000 	nop
a0800ca4:	16420008 	bne	s2,v0,a0800cc8 <print_counter+0xb8>
a0800ca8:	24040019 	li	a0,25
a0800cac:	02002821 	move	a1,s0
a0800cb0:	3c02a080 	lui	v0,0xa080
a0800cb4:	8c462250 	lw	a2,8784(v0)
a0800cb8:	0c200655 	jal	a0801954 <printint>
a0800cbc:	00000000 	nop
a0800cc0:	08200354 	j	a0800d50 <print_counter+0x140>
a0800cc4:	8fbf001c 	lw	ra,28(sp)
a0800cc8:	02002821 	move	a1,s0
a0800ccc:	3c02a080 	lui	v0,0xa080
a0800cd0:	8c462250 	lw	a2,8784(v0)
a0800cd4:	0c200655 	jal	a0801954 <printint>
a0800cd8:	00000000 	nop
a0800cdc:	08200354 	j	a0800d50 <print_counter+0x140>
a0800ce0:	8fbf001c 	lw	ra,28(sp)
a0800ce4:	0c200636 	jal	a08018d8 <print_location>
a0800ce8:	02002821 	move	a1,s0
a0800cec:	3c04a080 	lui	a0,0xa080
a0800cf0:	0c200488 	jal	a0801220 <printstr>
a0800cf4:	24841e74 	addiu	a0,a0,7796
a0800cf8:	08200354 	j	a0800d50 <print_counter+0x140>
a0800cfc:	8fbf001c 	lw	ra,28(sp)
a0800d00:	24040019 	li	a0,25
a0800d04:	0c200636 	jal	a08018d8 <print_location>
a0800d08:	02002821 	move	a1,s0
a0800d0c:	3c04a080 	lui	a0,0xa080
a0800d10:	0c200488 	jal	a0801220 <printstr>
a0800d14:	24841e7c 	addiu	a0,a0,7804
a0800d18:	08200354 	j	a0800d50 <print_counter+0x140>
a0800d1c:	8fbf001c 	lw	ra,28(sp)
a0800d20:	0c200636 	jal	a08018d8 <print_location>
a0800d24:	02002821 	move	a1,s0
a0800d28:	3c04a080 	lui	a0,0xa080
a0800d2c:	0c200488 	jal	a0801220 <printstr>
a0800d30:	24841e84 	addiu	a0,a0,7812
a0800d34:	24040023 	li	a0,35
a0800d38:	02002821 	move	a1,s0
a0800d3c:	3c02a080 	lui	v0,0xa080
a0800d40:	8c462250 	lw	a2,8784(v0)
a0800d44:	0c200655 	jal	a0801954 <printint>
a0800d48:	00000000 	nop
a0800d4c:	8fbf001c 	lw	ra,28(sp)
a0800d50:	8fb20018 	lw	s2,24(sp)
a0800d54:	8fb10014 	lw	s1,20(sp)
a0800d58:	8fb00010 	lw	s0,16(sp)
a0800d5c:	03e00008 	jr	ra
a0800d60:	27bd0020 	addiu	sp,sp,32
	...

a0800d70 <thread4>:
a0800d70:	27bdffe8 	addiu	sp,sp,-24
a0800d74:	afbf0010 	sw	ra,16(sp)
a0800d78:	0c200128 	jal	a08004a0 <get_timer>
a0800d7c:	00000000 	nop
a0800d80:	3c03a080 	lui	v1,0xa080
a0800d84:	0c2001a0 	jal	a0800680 <do_yield>
a0800d88:	ac62222c 	sw	v0,8748(v1)
a0800d8c:	0c2001cd 	jal	a0800734 <do_exit>
a0800d90:	00000000 	nop
a0800d94:	8fbf0010 	lw	ra,16(sp)
a0800d98:	03e00008 	jr	ra
a0800d9c:	27bd0018 	addiu	sp,sp,24

a0800da0 <thread5>:
a0800da0:	27bdffe8 	addiu	sp,sp,-24
a0800da4:	afbf0014 	sw	ra,20(sp)
a0800da8:	afb00010 	sw	s0,16(sp)
a0800dac:	0c200128 	jal	a08004a0 <get_timer>
a0800db0:	3c10a080 	lui	s0,0xa080
a0800db4:	8e03222c 	lw	v1,8748(s0)
a0800db8:	00431023 	subu	v0,v0,v1
a0800dbc:	ae02222c 	sw	v0,8748(s0)
a0800dc0:	00002021 	move	a0,zero
a0800dc4:	00002821 	move	a1,zero
a0800dc8:	3c06a080 	lui	a2,0xa080
a0800dcc:	0c2004e9 	jal	a08013a4 <print_str>
a0800dd0:	24c61e8c 	addiu	a2,a2,7820
a0800dd4:	00002021 	move	a0,zero
a0800dd8:	24050015 	li	a1,21
a0800ddc:	0c200499 	jal	a0801264 <print_int>
a0800de0:	8e06222c 	lw	a2,8748(s0)
a0800de4:	8fbf0014 	lw	ra,20(sp)
a0800de8:	8fb00010 	lw	s0,16(sp)
a0800dec:	03e00008 	jr	ra
a0800df0:	27bd0018 	addiu	sp,sp,24
	...

a0800e00 <thread_print>:
a0800e00:	27bdffe8 	addiu	sp,sp,-24
a0800e04:	afbf0014 	sw	ra,20(sp)
a0800e08:	afb00010 	sw	s0,16(sp)
a0800e0c:	00803021 	move	a2,a0
a0800e10:	3c10a080 	lui	s0,0xa080
a0800e14:	8e042270 	lw	a0,8816(s0)
a0800e18:	0c2004e9 	jal	a08013a4 <print_str>
a0800e1c:	00002821 	move	a1,zero
a0800e20:	8e022270 	lw	v0,8816(s0)
a0800e24:	24420001 	addiu	v0,v0,1
a0800e28:	ae022270 	sw	v0,8816(s0)
a0800e2c:	8fbf0014 	lw	ra,20(sp)
a0800e30:	8fb00010 	lw	s0,16(sp)
a0800e34:	03e00008 	jr	ra
a0800e38:	27bd0018 	addiu	sp,sp,24

a0800e3c <thread11>:
a0800e3c:	27bdffe0 	addiu	sp,sp,-32
a0800e40:	afbf0018 	sw	ra,24(sp)
a0800e44:	afb10014 	sw	s1,20(sp)
a0800e48:	afb00010 	sw	s0,16(sp)
a0800e4c:	3c11a080 	lui	s1,0xa080
a0800e50:	0c200164 	jal	a0800590 <lock_init>
a0800e54:	26242230 	addiu	a0,s1,8752
a0800e58:	3c10a080 	lui	s0,0xa080
a0800e5c:	00002021 	move	a0,zero
a0800e60:	0c200636 	jal	a08018d8 <print_location>
a0800e64:	8e052140 	lw	a1,8512(s0)
a0800e68:	8e022140 	lw	v0,8512(s0)
a0800e6c:	24420001 	addiu	v0,v0,1
a0800e70:	ae022140 	sw	v0,8512(s0)
a0800e74:	3c04a080 	lui	a0,0xa080
a0800e78:	0c200488 	jal	a0801220 <printstr>
a0800e7c:	24841ea4 	addiu	a0,a0,7844
a0800e80:	0c200167 	jal	a080059c <lock_acquire>
a0800e84:	26242230 	addiu	a0,s1,8752
a0800e88:	00002021 	move	a0,zero
a0800e8c:	0c200636 	jal	a08018d8 <print_location>
a0800e90:	8e052140 	lw	a1,8512(s0)
a0800e94:	8e022140 	lw	v0,8512(s0)
a0800e98:	24420001 	addiu	v0,v0,1
a0800e9c:	ae022140 	sw	v0,8512(s0)
a0800ea0:	3c04a080 	lui	a0,0xa080
a0800ea4:	0c200488 	jal	a0801220 <printstr>
a0800ea8:	24841ec4 	addiu	a0,a0,7876
a0800eac:	0c2001a0 	jal	a0800680 <do_yield>
a0800eb0:	00000000 	nop
a0800eb4:	00002021 	move	a0,zero
a0800eb8:	0c200636 	jal	a08018d8 <print_location>
a0800ebc:	8e052140 	lw	a1,8512(s0)
a0800ec0:	8e022140 	lw	v0,8512(s0)
a0800ec4:	24420001 	addiu	v0,v0,1
a0800ec8:	ae022140 	sw	v0,8512(s0)
a0800ecc:	3c04a080 	lui	a0,0xa080
a0800ed0:	0c200488 	jal	a0801220 <printstr>
a0800ed4:	24841eec 	addiu	a0,a0,7916
a0800ed8:	00002021 	move	a0,zero
a0800edc:	0c200636 	jal	a08018d8 <print_location>
a0800ee0:	8e052140 	lw	a1,8512(s0)
a0800ee4:	8e022140 	lw	v0,8512(s0)
a0800ee8:	24420001 	addiu	v0,v0,1
a0800eec:	ae022140 	sw	v0,8512(s0)
a0800ef0:	3c04a080 	lui	a0,0xa080
a0800ef4:	0c200488 	jal	a0801220 <printstr>
a0800ef8:	24841f04 	addiu	a0,a0,7940
a0800efc:	0c20017b 	jal	a08005ec <lock_release>
a0800f00:	26242230 	addiu	a0,s1,8752
a0800f04:	00002021 	move	a0,zero
a0800f08:	0c200636 	jal	a08018d8 <print_location>
a0800f0c:	8e052140 	lw	a1,8512(s0)
a0800f10:	8e022140 	lw	v0,8512(s0)
a0800f14:	24420001 	addiu	v0,v0,1
a0800f18:	ae022140 	sw	v0,8512(s0)
a0800f1c:	3c04a080 	lui	a0,0xa080
a0800f20:	0c200488 	jal	a0801220 <printstr>
a0800f24:	24841f20 	addiu	a0,a0,7968
a0800f28:	0c2001cd 	jal	a0800734 <do_exit>
a0800f2c:	00000000 	nop
a0800f30:	8fbf0018 	lw	ra,24(sp)
a0800f34:	8fb10014 	lw	s1,20(sp)
a0800f38:	8fb00010 	lw	s0,16(sp)
a0800f3c:	03e00008 	jr	ra
a0800f40:	27bd0020 	addiu	sp,sp,32

a0800f44 <thread12>:
a0800f44:	27bdffd0 	addiu	sp,sp,-48
a0800f48:	afbf002c 	sw	ra,44(sp)
a0800f4c:	afb60028 	sw	s6,40(sp)
a0800f50:	afb50024 	sw	s5,36(sp)
a0800f54:	afb40020 	sw	s4,32(sp)
a0800f58:	afb3001c 	sw	s3,28(sp)
a0800f5c:	afb20018 	sw	s2,24(sp)
a0800f60:	afb10014 	sw	s1,20(sp)
a0800f64:	afb00010 	sw	s0,16(sp)
a0800f68:	24100016 	li	s0,22
a0800f6c:	3c16a080 	lui	s6,0xa080
a0800f70:	3c15a080 	lui	s5,0xa080
a0800f74:	3c14a080 	lui	s4,0xa080
a0800f78:	3c13a080 	lui	s3,0xa080
a0800f7c:	3c12a080 	lui	s2,0xa080
a0800f80:	2411003c 	li	s1,60
a0800f84:	02202021 	move	a0,s1
a0800f88:	0c200636 	jal	a08018d8 <print_location>
a0800f8c:	02002821 	move	a1,s0
a0800f90:	3c04a080 	lui	a0,0xa080
a0800f94:	24842144 	addiu	a0,a0,8516
a0800f98:	0c200618 	jal	a0801860 <print_color>
a0800f9c:	26c51f34 	addiu	a1,s6,7988
a0800fa0:	26100001 	addiu	s0,s0,1
a0800fa4:	02202021 	move	a0,s1
a0800fa8:	0c200636 	jal	a08018d8 <print_location>
a0800fac:	02002821 	move	a1,s0
a0800fb0:	3c04a080 	lui	a0,0xa080
a0800fb4:	2484215c 	addiu	a0,a0,8540
a0800fb8:	0c200618 	jal	a0801860 <print_color>
a0800fbc:	26a51f3c 	addiu	a1,s5,7996
a0800fc0:	26100001 	addiu	s0,s0,1
a0800fc4:	02202021 	move	a0,s1
a0800fc8:	0c200636 	jal	a08018d8 <print_location>
a0800fcc:	02002821 	move	a1,s0
a0800fd0:	3c04a080 	lui	a0,0xa080
a0800fd4:	24842170 	addiu	a0,a0,8560
a0800fd8:	0c200618 	jal	a0801860 <print_color>
a0800fdc:	26851f44 	addiu	a1,s4,8004
a0800fe0:	26100001 	addiu	s0,s0,1
a0800fe4:	02202021 	move	a0,s1
a0800fe8:	0c200636 	jal	a08018d8 <print_location>
a0800fec:	02002821 	move	a1,s0
a0800ff0:	3c04a080 	lui	a0,0xa080
a0800ff4:	24842184 	addiu	a0,a0,8580
a0800ff8:	0c200618 	jal	a0801860 <print_color>
a0800ffc:	26651f4c 	addiu	a1,s3,8012
a0801000:	0c2006e4 	jal	a0801b90 <delay1s>
a0801004:	26100001 	addiu	s0,s0,1
a0801008:	0c2001a0 	jal	a0800680 <do_yield>
a080100c:	2610fffc 	addiu	s0,s0,-4
a0801010:	02202021 	move	a0,s1
a0801014:	0c200636 	jal	a08018d8 <print_location>
a0801018:	02002821 	move	a1,s0
a080101c:	2644209c 	addiu	a0,s2,8348
a0801020:	0c200618 	jal	a0801860 <print_color>
a0801024:	26c51f34 	addiu	a1,s6,7988
a0801028:	26100001 	addiu	s0,s0,1
a080102c:	02202021 	move	a0,s1
a0801030:	0c200636 	jal	a08018d8 <print_location>
a0801034:	02002821 	move	a1,s0
a0801038:	2644209c 	addiu	a0,s2,8348
a080103c:	0c200618 	jal	a0801860 <print_color>
a0801040:	26a51f3c 	addiu	a1,s5,7996
a0801044:	26100001 	addiu	s0,s0,1
a0801048:	02202021 	move	a0,s1
a080104c:	0c200636 	jal	a08018d8 <print_location>
a0801050:	02002821 	move	a1,s0
a0801054:	2644209c 	addiu	a0,s2,8348
a0801058:	0c200618 	jal	a0801860 <print_color>
a080105c:	26851f44 	addiu	a1,s4,8004
a0801060:	26100001 	addiu	s0,s0,1
a0801064:	02202021 	move	a0,s1
a0801068:	0c200636 	jal	a08018d8 <print_location>
a080106c:	02002821 	move	a1,s0
a0801070:	2644209c 	addiu	a0,s2,8348
a0801074:	0c200618 	jal	a0801860 <print_color>
a0801078:	26651f4c 	addiu	a1,s3,8012
a080107c:	0c2006e4 	jal	a0801b90 <delay1s>
a0801080:	26100001 	addiu	s0,s0,1
a0801084:	2631ffff 	addiu	s1,s1,-1
a0801088:	1e20ffbe 	bgtz	s1,a0800f84 <thread12+0x40>
a080108c:	2610fffc 	addiu	s0,s0,-4
a0801090:	082003e1 	j	a0800f84 <thread12+0x40>
a0801094:	2411003c 	li	s1,60

a0801098 <thread13>:
a0801098:	27bdffe0 	addiu	sp,sp,-32
a080109c:	afbf0018 	sw	ra,24(sp)
a08010a0:	afb10014 	sw	s1,20(sp)
a08010a4:	afb00010 	sw	s0,16(sp)
a08010a8:	3c10a080 	lui	s0,0xa080
a08010ac:	00002021 	move	a0,zero
a08010b0:	0c200636 	jal	a08018d8 <print_location>
a08010b4:	8e052140 	lw	a1,8512(s0)
a08010b8:	8e022140 	lw	v0,8512(s0)
a08010bc:	24420001 	addiu	v0,v0,1
a08010c0:	ae022140 	sw	v0,8512(s0)
a08010c4:	3c04a080 	lui	a0,0xa080
a08010c8:	0c200488 	jal	a0801220 <printstr>
a08010cc:	24841f54 	addiu	a0,a0,8020
a08010d0:	0c2001a0 	jal	a0800680 <do_yield>
a08010d4:	3c11a080 	lui	s1,0xa080
a08010d8:	00002021 	move	a0,zero
a08010dc:	0c200636 	jal	a08018d8 <print_location>
a08010e0:	8e052140 	lw	a1,8512(s0)
a08010e4:	8e022140 	lw	v0,8512(s0)
a08010e8:	24420001 	addiu	v0,v0,1
a08010ec:	ae022140 	sw	v0,8512(s0)
a08010f0:	3c04a080 	lui	a0,0xa080
a08010f4:	0c200488 	jal	a0801220 <printstr>
a08010f8:	24841f78 	addiu	a0,a0,8056
a08010fc:	0c200167 	jal	a080059c <lock_acquire>
a0801100:	26242230 	addiu	a0,s1,8752
a0801104:	00002021 	move	a0,zero
a0801108:	0c200636 	jal	a08018d8 <print_location>
a080110c:	8e052140 	lw	a1,8512(s0)
a0801110:	8e022140 	lw	v0,8512(s0)
a0801114:	24420001 	addiu	v0,v0,1
a0801118:	ae022140 	sw	v0,8512(s0)
a080111c:	3c04a080 	lui	a0,0xa080
a0801120:	0c200488 	jal	a0801220 <printstr>
a0801124:	24841f94 	addiu	a0,a0,8084
a0801128:	0c20017b 	jal	a08005ec <lock_release>
a080112c:	26242230 	addiu	a0,s1,8752
a0801130:	00002021 	move	a0,zero
a0801134:	0c200636 	jal	a08018d8 <print_location>
a0801138:	8e052140 	lw	a1,8512(s0)
a080113c:	8e022140 	lw	v0,8512(s0)
a0801140:	24420001 	addiu	v0,v0,1
a0801144:	ae022140 	sw	v0,8512(s0)
a0801148:	3c04a080 	lui	a0,0xa080
a080114c:	0c200488 	jal	a0801220 <printstr>
a0801150:	24841fbc 	addiu	a0,a0,8124
a0801154:	0c2001cd 	jal	a0800734 <do_exit>
a0801158:	00000000 	nop
a080115c:	8fbf0018 	lw	ra,24(sp)
a0801160:	8fb10014 	lw	s1,20(sp)
a0801164:	8fb00010 	lw	s0,16(sp)
a0801168:	03e00008 	jr	ra
a080116c:	27bd0020 	addiu	sp,sp,32

a0801170 <thread14>:
a0801170:	27bdffe0 	addiu	sp,sp,-32
a0801174:	afbf0018 	sw	ra,24(sp)
a0801178:	afb10014 	sw	s1,20(sp)
a080117c:	afb00010 	sw	s0,16(sp)
a0801180:	3c10a080 	lui	s0,0xa080
a0801184:	00002021 	move	a0,zero
a0801188:	0c200636 	jal	a08018d8 <print_location>
a080118c:	8e052140 	lw	a1,8512(s0)
a0801190:	8e022140 	lw	v0,8512(s0)
a0801194:	24420001 	addiu	v0,v0,1
a0801198:	ae022140 	sw	v0,8512(s0)
a080119c:	3c04a080 	lui	a0,0xa080
a08011a0:	0c200488 	jal	a0801220 <printstr>
a08011a4:	24841fd0 	addiu	a0,a0,8144
a08011a8:	3c11a080 	lui	s1,0xa080
a08011ac:	0c200167 	jal	a080059c <lock_acquire>
a08011b0:	26242230 	addiu	a0,s1,8752
a08011b4:	00002021 	move	a0,zero
a08011b8:	0c200636 	jal	a08018d8 <print_location>
a08011bc:	8e052140 	lw	a1,8512(s0)
a08011c0:	8e022140 	lw	v0,8512(s0)
a08011c4:	24420001 	addiu	v0,v0,1
a08011c8:	ae022140 	sw	v0,8512(s0)
a08011cc:	3c04a080 	lui	a0,0xa080
a08011d0:	0c200488 	jal	a0801220 <printstr>
a08011d4:	24841ff8 	addiu	a0,a0,8184
a08011d8:	0c20017b 	jal	a08005ec <lock_release>
a08011dc:	26242230 	addiu	a0,s1,8752
a08011e0:	00002021 	move	a0,zero
a08011e4:	0c200636 	jal	a08018d8 <print_location>
a08011e8:	8e052140 	lw	a1,8512(s0)
a08011ec:	8e022140 	lw	v0,8512(s0)
a08011f0:	24420001 	addiu	v0,v0,1
a08011f4:	ae022140 	sw	v0,8512(s0)
a08011f8:	3c04a080 	lui	a0,0xa080
a08011fc:	0c200488 	jal	a0801220 <printstr>
a0801200:	24842020 	addiu	a0,a0,8224
a0801204:	0c2001cd 	jal	a0800734 <do_exit>
a0801208:	00000000 	nop
a080120c:	8fbf0018 	lw	ra,24(sp)
a0801210:	8fb10014 	lw	s1,20(sp)
a0801214:	8fb00010 	lw	s0,16(sp)
a0801218:	03e00008 	jr	ra
a080121c:	27bd0020 	addiu	sp,sp,32

a0801220 <printstr>:
a0801220:	3c02bfe4 	lui	v0,0xbfe4
a0801224:	34458000 	ori	a1,v0,0x8000
a0801228:	80820000 	lb	v0,0(a0)
a080122c:	1040000b 	beqz	v0,a080125c <printstr+0x3c>
a0801230:	24022710 	li	v0,10000
a0801234:	2403ffff 	li	v1,-1
a0801238:	2442ffff 	addiu	v0,v0,-1
a080123c:	1443ffff 	bne	v0,v1,a080123c <printstr+0x1c>
a0801240:	2442ffff 	addiu	v0,v0,-1
a0801244:	90820000 	lbu	v0,0(a0)
a0801248:	a0a20000 	sb	v0,0(a1)
a080124c:	24840001 	addiu	a0,a0,1
a0801250:	80820000 	lb	v0,0(a0)
a0801254:	1440fff8 	bnez	v0,a0801238 <printstr+0x18>
a0801258:	24022710 	li	v0,10000
a080125c:	03e00008 	jr	ra
a0801260:	00000000 	nop

a0801264 <print_int>:
a0801264:	27bdffc8 	addiu	sp,sp,-56
a0801268:	afbf0034 	sw	ra,52(sp)
a080126c:	afb40030 	sw	s4,48(sp)
a0801270:	afb3002c 	sw	s3,44(sp)
a0801274:	afb20028 	sw	s2,40(sp)
a0801278:	afb10024 	sw	s1,36(sp)
a080127c:	afb00020 	sw	s0,32(sp)
a0801280:	0080a021 	move	s4,a0
a0801284:	00a08821 	move	s1,a1
a0801288:	000687c2 	srl	s0,a2,0x1f
a080128c:	12000002 	beqz	s0,a0801298 <print_int+0x34>
a0801290:	00c02021 	move	a0,a2
a0801294:	00062023 	negu	a0,a2
a0801298:	0c20057c 	jal	a08015f0 <itoa>
a080129c:	27a50010 	addiu	a1,sp,16
a08012a0:	0c2005c4 	jal	a0801710 <strlen>
a08012a4:	27a40010 	addiu	a0,sp,16
a08012a8:	12000006 	beqz	s0,a08012c4 <print_int+0x60>
a08012ac:	00409021 	move	s2,v0
a08012b0:	02202821 	move	a1,s1
a08012b4:	26310001 	addiu	s1,s1,1
a08012b8:	02802021 	move	a0,s4
a08012bc:	0c2004f4 	jal	a08013d0 <print_char>
a08012c0:	2406002d 	li	a2,45
a08012c4:	1a40000c 	blez	s2,a08012f8 <print_int+0x94>
a08012c8:	00008021 	move	s0,zero
a08012cc:	27b30010 	addiu	s3,sp,16
a08012d0:	02202821 	move	a1,s1
a08012d4:	26310001 	addiu	s1,s1,1
a08012d8:	02701021 	addu	v0,s3,s0
a08012dc:	02802021 	move	a0,s4
a08012e0:	0c2004f4 	jal	a08013d0 <print_char>
a08012e4:	80460000 	lb	a2,0(v0)
a08012e8:	26100001 	addiu	s0,s0,1
a08012ec:	0212102a 	slt	v0,s0,s2
a08012f0:	1440fff8 	bnez	v0,a08012d4 <print_int+0x70>
a08012f4:	02202821 	move	a1,s1
a08012f8:	8fbf0034 	lw	ra,52(sp)
a08012fc:	8fb40030 	lw	s4,48(sp)
a0801300:	8fb3002c 	lw	s3,44(sp)
a0801304:	8fb20028 	lw	s2,40(sp)
a0801308:	8fb10024 	lw	s1,36(sp)
a080130c:	8fb00020 	lw	s0,32(sp)
a0801310:	03e00008 	jr	ra
a0801314:	27bd0038 	addiu	sp,sp,56

a0801318 <print_hex>:
a0801318:	27bdffc8 	addiu	sp,sp,-56
a080131c:	afbf0034 	sw	ra,52(sp)
a0801320:	afb40030 	sw	s4,48(sp)
a0801324:	afb3002c 	sw	s3,44(sp)
a0801328:	afb20028 	sw	s2,40(sp)
a080132c:	afb10024 	sw	s1,36(sp)
a0801330:	afb00020 	sw	s0,32(sp)
a0801334:	0080a021 	move	s4,a0
a0801338:	00a09821 	move	s3,a1
a080133c:	00c02021 	move	a0,a2
a0801340:	0c200596 	jal	a0801658 <itohex>
a0801344:	27a50010 	addiu	a1,sp,16
a0801348:	0c2005c4 	jal	a0801710 <strlen>
a080134c:	27a40010 	addiu	a0,sp,16
a0801350:	00408821 	move	s1,v0
a0801354:	1840000b 	blez	v0,a0801384 <print_hex+0x6c>
a0801358:	00008021 	move	s0,zero
a080135c:	27b20010 	addiu	s2,sp,16
a0801360:	02501021 	addu	v0,s2,s0
a0801364:	02802021 	move	a0,s4
a0801368:	02702821 	addu	a1,s3,s0
a080136c:	0c2004f4 	jal	a08013d0 <print_char>
a0801370:	80460000 	lb	a2,0(v0)
a0801374:	26100001 	addiu	s0,s0,1
a0801378:	0211102a 	slt	v0,s0,s1
a080137c:	1440fff9 	bnez	v0,a0801364 <print_hex+0x4c>
a0801380:	02501021 	addu	v0,s2,s0
a0801384:	8fbf0034 	lw	ra,52(sp)
a0801388:	8fb40030 	lw	s4,48(sp)
a080138c:	8fb3002c 	lw	s3,44(sp)
a0801390:	8fb20028 	lw	s2,40(sp)
a0801394:	8fb10024 	lw	s1,36(sp)
a0801398:	8fb00020 	lw	s0,32(sp)
a080139c:	03e00008 	jr	ra
a08013a0:	27bd0038 	addiu	sp,sp,56

a08013a4 <print_str>:
a08013a4:	27bdffe8 	addiu	sp,sp,-24
a08013a8:	afbf0014 	sw	ra,20(sp)
a08013ac:	afb00010 	sw	s0,16(sp)
a08013b0:	0c200636 	jal	a08018d8 <print_location>
a08013b4:	00c08021 	move	s0,a2
a08013b8:	0c200488 	jal	a0801220 <printstr>
a08013bc:	02002021 	move	a0,s0
a08013c0:	8fbf0014 	lw	ra,20(sp)
a08013c4:	8fb00010 	lw	s0,16(sp)
a08013c8:	03e00008 	jr	ra
a08013cc:	27bd0018 	addiu	sp,sp,24

a08013d0 <print_char>:
a08013d0:	27bdffe8 	addiu	sp,sp,-24
a08013d4:	afbf0014 	sw	ra,20(sp)
a08013d8:	afb00010 	sw	s0,16(sp)
a08013dc:	00068600 	sll	s0,a2,0x18
a08013e0:	0c200636 	jal	a08018d8 <print_location>
a08013e4:	00108603 	sra	s0,s0,0x18
a08013e8:	3c02bfe4 	lui	v0,0xbfe4
a08013ec:	34428000 	ori	v0,v0,0x8000
a08013f0:	a0500000 	sb	s0,0(v0)
a08013f4:	8fbf0014 	lw	ra,20(sp)
a08013f8:	8fb00010 	lw	s0,16(sp)
a08013fc:	03e00008 	jr	ra
a0801400:	27bd0018 	addiu	sp,sp,24

a0801404 <peek_screen>:
a0801404:	00051080 	sll	v0,a1,0x2
a0801408:	00451021 	addu	v0,v0,a1
a080140c:	00021100 	sll	v0,v0,0x4
a0801410:	00441021 	addu	v0,v0,a0
a0801414:	3c03a080 	lui	v1,0xa080
a0801418:	8c6321a0 	lw	v1,8608(v1)
a080141c:	00021040 	sll	v0,v0,0x1
a0801420:	00431021 	addu	v0,v0,v1
a0801424:	03e00008 	jr	ra
a0801428:	90420000 	lbu	v0,0(v0)

a080142c <clear_screen>:
a080142c:	27bdffe0 	addiu	sp,sp,-32
a0801430:	afbf001c 	sw	ra,28(sp)
a0801434:	afb20018 	sw	s2,24(sp)
a0801438:	afb10014 	sw	s1,20(sp)
a080143c:	afb00010 	sw	s0,16(sp)
a0801440:	00c09021 	move	s2,a2
a0801444:	00a6102a 	slt	v0,a1,a2
a0801448:	1040000b 	beqz	v0,a0801478 <clear_screen+0x4c>
a080144c:	00a08021 	move	s0,a1
a0801450:	3c11a080 	lui	s1,0xa080
a0801454:	00002021 	move	a0,zero
a0801458:	0c200636 	jal	a08018d8 <print_location>
a080145c:	02002821 	move	a1,s0
a0801460:	0c200488 	jal	a0801220 <printstr>
a0801464:	26242034 	addiu	a0,s1,8244
a0801468:	26100001 	addiu	s0,s0,1
a080146c:	0212102a 	slt	v0,s0,s2
a0801470:	5440fff9 	bnezl	v0,a0801458 <clear_screen+0x2c>
a0801474:	00002021 	move	a0,zero
a0801478:	8fbf001c 	lw	ra,28(sp)
a080147c:	8fb20018 	lw	s2,24(sp)
a0801480:	8fb10014 	lw	s1,20(sp)
a0801484:	8fb00010 	lw	s0,16(sp)
a0801488:	03e00008 	jr	ra
a080148c:	27bd0020 	addiu	sp,sp,32

a0801490 <scroll>:
a0801490:	00a7102a 	slt	v0,a1,a3
a0801494:	1040001e 	beqz	v0,a0801510 <scroll+0x80>
a0801498:	0086102a 	slt	v0,a0,a2
a080149c:	24eeffff 	addiu	t6,a3,-1
a08014a0:	10400017 	beqz	v0,a0801500 <scroll+0x70>
a08014a4:	00804021 	move	t0,a0
a08014a8:	00051080 	sll	v0,a1,0x2
a08014ac:	00451021 	addu	v0,v0,a1
a08014b0:	00025900 	sll	t3,v0,0x4
a08014b4:	00ae502a 	slt	t2,a1,t6
a08014b8:	3c0ca080 	lui	t4,0xa080
a08014bc:	240d0700 	li	t5,1792
a08014c0:	11400007 	beqz	t2,a08014e0 <scroll+0x50>
a08014c4:	01684821 	addu	t1,t3,t0
a08014c8:	8d8221a0 	lw	v0,8608(t4)
a08014cc:	00091840 	sll	v1,t1,0x1
a08014d0:	00621821 	addu	v1,v1,v0
a08014d4:	946200a0 	lhu	v0,160(v1)
a08014d8:	0820053c 	j	a08014f0 <scroll+0x60>
a08014dc:	a4620000 	sh	v0,0(v1)
a08014e0:	8d8321a0 	lw	v1,8608(t4)
a08014e4:	00091040 	sll	v0,t1,0x1
a08014e8:	00431021 	addu	v0,v0,v1
a08014ec:	a44d0000 	sh	t5,0(v0)
a08014f0:	25080001 	addiu	t0,t0,1
a08014f4:	0106102a 	slt	v0,t0,a2
a08014f8:	1440fff1 	bnez	v0,a08014c0 <scroll+0x30>
a08014fc:	00000000 	nop
a0801500:	24a50001 	addiu	a1,a1,1
a0801504:	00a7102a 	slt	v0,a1,a3
a0801508:	1440ffe5 	bnez	v0,a08014a0 <scroll+0x10>
a080150c:	0086102a 	slt	v0,a0,a2
a0801510:	03e00008 	jr	ra
a0801514:	00000000 	nop

a0801518 <delay>:
a0801518:	27bdffe0 	addiu	sp,sp,-32
a080151c:	afbf0018 	sw	ra,24(sp)
a0801520:	afb10014 	sw	s1,20(sp)
a0801524:	afb00010 	sw	s0,16(sp)
a0801528:	0c200128 	jal	a08004a0 <get_timer>
a080152c:	00808021 	move	s0,a0
a0801530:	00103140 	sll	a2,s0,0x5
a0801534:	00d03023 	subu	a2,a2,s0
a0801538:	00062180 	sll	a0,a2,0x6
a080153c:	00862023 	subu	a0,a0,a2
a0801540:	000420c0 	sll	a0,a0,0x3
a0801544:	00902021 	addu	a0,a0,s0
a0801548:	00042100 	sll	a0,a0,0x4
a080154c:	00042fc3 	sra	a1,a0,0x1f
a0801550:	00448021 	addu	s0,v0,a0
a0801554:	0204302b 	sltu	a2,s0,a0
a0801558:	00658821 	addu	s1,v1,a1
a080155c:	02268821 	addu	s1,s1,a2
a0801560:	0c200128 	jal	a08004a0 <get_timer>
a0801564:	00000000 	nop
a0801568:	00402021 	move	a0,v0
a080156c:	0071102b 	sltu	v0,v1,s1
a0801570:	1440fffb 	bnez	v0,a0801560 <delay+0x48>
a0801574:	00000000 	nop
a0801578:	16230003 	bne	s1,v1,a0801588 <delay+0x70>
a080157c:	0090102b 	sltu	v0,a0,s0
a0801580:	1440fff7 	bnez	v0,a0801560 <delay+0x48>
a0801584:	00000000 	nop
a0801588:	8fbf0018 	lw	ra,24(sp)
a080158c:	8fb10014 	lw	s1,20(sp)
a0801590:	8fb00010 	lw	s0,16(sp)
a0801594:	03e00008 	jr	ra
a0801598:	27bd0020 	addiu	sp,sp,32

a080159c <atoi>:
a080159c:	90820000 	lbu	v0,0(a0)
a08015a0:	2442ffd0 	addiu	v0,v0,-48
a08015a4:	304200ff 	andi	v0,v0,0xff
a08015a8:	2c42000a 	sltiu	v0,v0,10
a08015ac:	1040000e 	beqz	v0,a08015e8 <atoi+0x4c>
a08015b0:	00001821 	move	v1,zero
a08015b4:	00031080 	sll	v0,v1,0x2
a08015b8:	00431021 	addu	v0,v0,v1
a08015bc:	00021040 	sll	v0,v0,0x1
a08015c0:	80830000 	lb	v1,0(a0)
a08015c4:	00431021 	addu	v0,v0,v1
a08015c8:	2443ffd0 	addiu	v1,v0,-48
a08015cc:	24840001 	addiu	a0,a0,1
a08015d0:	90820000 	lbu	v0,0(a0)
a08015d4:	2442ffd0 	addiu	v0,v0,-48
a08015d8:	304200ff 	andi	v0,v0,0xff
a08015dc:	2c42000a 	sltiu	v0,v0,10
a08015e0:	5440fff5 	bnezl	v0,a08015b8 <atoi+0x1c>
a08015e4:	00031080 	sll	v0,v1,0x2
a08015e8:	03e00008 	jr	ra
a08015ec:	00601021 	move	v0,v1

a08015f0 <itoa>:
a08015f0:	27bdffe8 	addiu	sp,sp,-24
a08015f4:	afbf0010 	sw	ra,16(sp)
a08015f8:	00803021 	move	a2,a0
a08015fc:	00003821 	move	a3,zero
a0801600:	3c02cccc 	lui	v0,0xcccc
a0801604:	3448cccd 	ori	t0,v0,0xcccd
a0801608:	00e52021 	addu	a0,a3,a1
a080160c:	00c80019 	multu	a2,t0
a0801610:	00001810 	mfhi	v1
a0801614:	000318c2 	srl	v1,v1,0x3
a0801618:	00031080 	sll	v0,v1,0x2
a080161c:	00431021 	addu	v0,v0,v1
a0801620:	00021040 	sll	v0,v0,0x1
a0801624:	00c21023 	subu	v0,a2,v0
a0801628:	24420030 	addiu	v0,v0,48
a080162c:	a0820000 	sb	v0,0(a0)
a0801630:	24e70001 	addiu	a3,a3,1
a0801634:	1460fff4 	bnez	v1,a0801608 <itoa+0x18>
a0801638:	00603021 	move	a2,v1
a080163c:	00e51021 	addu	v0,a3,a1
a0801640:	a0400000 	sb	zero,0(v0)
a0801644:	0c2005ae 	jal	a08016b8 <reverse>
a0801648:	00a02021 	move	a0,a1
a080164c:	8fbf0010 	lw	ra,16(sp)
a0801650:	03e00008 	jr	ra
a0801654:	27bd0018 	addiu	sp,sp,24

a0801658 <itohex>:
a0801658:	27bdffe8 	addiu	sp,sp,-24
a080165c:	afbf0010 	sw	ra,16(sp)
a0801660:	00003821 	move	a3,zero
a0801664:	3086000f 	andi	a2,a0,0xf
a0801668:	28c2000a 	slti	v0,a2,10
a080166c:	10400005 	beqz	v0,a0801684 <itohex+0x2c>
a0801670:	00e51821 	addu	v1,a3,a1
a0801674:	24c20030 	addiu	v0,a2,48
a0801678:	a0620000 	sb	v0,0(v1)
a080167c:	082005a4 	j	a0801690 <itohex+0x38>
a0801680:	24e70001 	addiu	a3,a3,1
a0801684:	24c20057 	addiu	v0,a2,87
a0801688:	a0620000 	sb	v0,0(v1)
a080168c:	24e70001 	addiu	a3,a3,1
a0801690:	00041102 	srl	v0,a0,0x4
a0801694:	1440fff3 	bnez	v0,a0801664 <itohex+0xc>
a0801698:	00402021 	move	a0,v0
a080169c:	00e51021 	addu	v0,a3,a1
a08016a0:	a0400000 	sb	zero,0(v0)
a08016a4:	0c2005ae 	jal	a08016b8 <reverse>
a08016a8:	00a02021 	move	a0,a1
a08016ac:	8fbf0010 	lw	ra,16(sp)
a08016b0:	03e00008 	jr	ra
a08016b4:	27bd0018 	addiu	sp,sp,24

a08016b8 <reverse>:
a08016b8:	27bdffe8 	addiu	sp,sp,-24
a08016bc:	afbf0014 	sw	ra,20(sp)
a08016c0:	afb00010 	sw	s0,16(sp)
a08016c4:	0c2005c4 	jal	a0801710 <strlen>
a08016c8:	00808021 	move	s0,a0
a08016cc:	2446ffff 	addiu	a2,v0,-1
a08016d0:	18c0000b 	blez	a2,a0801700 <reverse+0x48>
a08016d4:	00003821 	move	a3,zero
a08016d8:	02072021 	addu	a0,s0,a3
a08016dc:	80850000 	lb	a1,0(a0)
a08016e0:	02061821 	addu	v1,s0,a2
a08016e4:	90620000 	lbu	v0,0(v1)
a08016e8:	a0820000 	sb	v0,0(a0)
a08016ec:	24e70001 	addiu	a3,a3,1
a08016f0:	24c6ffff 	addiu	a2,a2,-1
a08016f4:	00e6102a 	slt	v0,a3,a2
a08016f8:	1440fff7 	bnez	v0,a08016d8 <reverse+0x20>
a08016fc:	a0650000 	sb	a1,0(v1)
a0801700:	8fbf0014 	lw	ra,20(sp)
a0801704:	8fb00010 	lw	s0,16(sp)
a0801708:	03e00008 	jr	ra
a080170c:	27bd0018 	addiu	sp,sp,24

a0801710 <strlen>:
a0801710:	80820000 	lb	v0,0(a0)
a0801714:	10400005 	beqz	v0,a080172c <strlen+0x1c>
a0801718:	00001821 	move	v1,zero
a080171c:	24840001 	addiu	a0,a0,1
a0801720:	80820000 	lb	v0,0(a0)
a0801724:	1440fffd 	bnez	v0,a080171c <strlen+0xc>
a0801728:	24630001 	addiu	v1,v1,1
a080172c:	03e00008 	jr	ra
a0801730:	00601021 	move	v0,v1

a0801734 <same_string>:
a0801734:	80820000 	lb	v0,0(a0)
a0801738:	10400010 	beqz	v0,a080177c <same_string+0x48>
a080173c:	00401821 	move	v1,v0
a0801740:	80a20000 	lb	v0,0(a1)
a0801744:	5040000d 	beqzl	v0,a080177c <same_string+0x48>
a0801748:	80820000 	lb	v0,0(a0)
a080174c:	80a20000 	lb	v0,0(a1)
a0801750:	50620003 	beql	v1,v0,a0801760 <same_string+0x2c>
a0801754:	24840001 	addiu	a0,a0,1
a0801758:	03e00008 	jr	ra
a080175c:	00001021 	move	v0,zero
a0801760:	80830000 	lb	v1,0(a0)
a0801764:	10600004 	beqz	v1,a0801778 <same_string+0x44>
a0801768:	24a50001 	addiu	a1,a1,1
a080176c:	80a20000 	lb	v0,0(a1)
a0801770:	1440fff7 	bnez	v0,a0801750 <same_string+0x1c>
a0801774:	00000000 	nop
a0801778:	80820000 	lb	v0,0(a0)
a080177c:	80a30000 	lb	v1,0(a1)
a0801780:	00431026 	xor	v0,v0,v1
a0801784:	03e00008 	jr	ra
a0801788:	2c420001 	sltiu	v0,v0,1

a080178c <bcopy>:
a080178c:	10c0000b 	beqz	a2,a08017bc <bcopy+0x30>
a0801790:	0085102b 	sltu	v0,a0,a1
a0801794:	1040000b 	beqz	v0,a08017c4 <bcopy+0x38>
a0801798:	24c7ffff 	addiu	a3,a2,-1
a080179c:	04e00013 	bltz	a3,a08017ec <bcopy+0x60>
a08017a0:	00000000 	nop
a08017a4:	00a71021 	addu	v0,a1,a3
a08017a8:	00871821 	addu	v1,a0,a3
a08017ac:	90630000 	lbu	v1,0(v1)
a08017b0:	24e7ffff 	addiu	a3,a3,-1
a08017b4:	04e1fffb 	bgez	a3,a08017a4 <bcopy+0x18>
a08017b8:	a0430000 	sb	v1,0(v0)
a08017bc:	03e00008 	jr	ra
a08017c0:	00000000 	nop
a08017c4:	18c0fffd 	blez	a2,a08017bc <bcopy+0x30>
a08017c8:	00003821 	move	a3,zero
a08017cc:	00a71821 	addu	v1,a1,a3
a08017d0:	00871021 	addu	v0,a0,a3
a08017d4:	90420000 	lbu	v0,0(v0)
a08017d8:	a0620000 	sb	v0,0(v1)
a08017dc:	24e70001 	addiu	a3,a3,1
a08017e0:	00e6102a 	slt	v0,a3,a2
a08017e4:	1440fffa 	bnez	v0,a08017d0 <bcopy+0x44>
a08017e8:	00a71821 	addu	v1,a1,a3
a08017ec:	03e00008 	jr	ra
a08017f0:	00000000 	nop

a08017f4 <bzero>:
a08017f4:	18a00007 	blez	a1,a0801814 <bzero+0x20>
a08017f8:	00001821 	move	v1,zero
a08017fc:	00831021 	addu	v0,a0,v1
a0801800:	a0400000 	sb	zero,0(v0)
a0801804:	24630001 	addiu	v1,v1,1
a0801808:	0065102a 	slt	v0,v1,a1
a080180c:	1440fffc 	bnez	v0,a0801800 <bzero+0xc>
a0801810:	00831021 	addu	v0,a0,v1
a0801814:	03e00008 	jr	ra
a0801818:	00000000 	nop

a080181c <inb>:
a080181c:	03e00008 	jr	ra
a0801820:	00001021 	move	v0,zero

a0801824 <outb>:
a0801824:	03e00008 	jr	ra
a0801828:	00000000 	nop

a080182c <srand>:
a080182c:	3c02a080 	lui	v0,0xa080
a0801830:	03e00008 	jr	ra
a0801834:	ac442284 	sw	a0,8836(v0)

a0801838 <rand>:
a0801838:	3c04a080 	lui	a0,0xa080
a080183c:	8c822284 	lw	v0,8836(a0)
a0801840:	3c0341c6 	lui	v1,0x41c6
a0801844:	34634e6d 	ori	v1,v1,0x4e6d
a0801848:	00430018 	mult	v0,v1
a080184c:	00001012 	mflo	v0
a0801850:	24423039 	addiu	v0,v0,12345
a0801854:	00021402 	srl	v0,v0,0x10
a0801858:	03e00008 	jr	ra
a080185c:	ac822284 	sw	v0,8836(a0)

a0801860 <print_color>:
a0801860:	27bdffe8 	addiu	sp,sp,-24
a0801864:	afbf0014 	sw	ra,20(sp)
a0801868:	afb00010 	sw	s0,16(sp)
a080186c:	00808021 	move	s0,a0
a0801870:	0c200488 	jal	a0801220 <printstr>
a0801874:	00a02021 	move	a0,a1
a0801878:	0c200488 	jal	a0801220 <printstr>
a080187c:	02002021 	move	a0,s0
a0801880:	3c04a080 	lui	a0,0xa080
a0801884:	0c200488 	jal	a0801220 <printstr>
a0801888:	24842078 	addiu	a0,a0,8312
a080188c:	8fbf0014 	lw	ra,20(sp)
a0801890:	8fb00010 	lw	s0,16(sp)
a0801894:	03e00008 	jr	ra
a0801898:	27bd0018 	addiu	sp,sp,24

a080189c <println_color>:
a080189c:	27bdffe8 	addiu	sp,sp,-24
a08018a0:	afbf0014 	sw	ra,20(sp)
a08018a4:	afb00010 	sw	s0,16(sp)
a08018a8:	00808021 	move	s0,a0
a08018ac:	0c200488 	jal	a0801220 <printstr>
a08018b0:	00a02021 	move	a0,a1
a08018b4:	0c200488 	jal	a0801220 <printstr>
a08018b8:	02002021 	move	a0,s0
a08018bc:	3c04a080 	lui	a0,0xa080
a08018c0:	0c200488 	jal	a0801220 <printstr>
a08018c4:	24842080 	addiu	a0,a0,8320
a08018c8:	8fbf0014 	lw	ra,20(sp)
a08018cc:	8fb00010 	lw	s0,16(sp)
a08018d0:	03e00008 	jr	ra
a08018d4:	27bd0018 	addiu	sp,sp,24

a08018d8 <print_location>:
a08018d8:	27bdffa0 	addiu	sp,sp,-96
a08018dc:	afbf0058 	sw	ra,88(sp)
a08018e0:	afb10054 	sw	s1,84(sp)
a08018e4:	afb00050 	sw	s0,80(sp)
a08018e8:	00808821 	move	s1,a0
a08018ec:	00a08021 	move	s0,a1
a08018f0:	3c04a080 	lui	a0,0xa080
a08018f4:	0c200488 	jal	a0801220 <printstr>
a08018f8:	24842088 	addiu	a0,a0,8328
a08018fc:	02002021 	move	a0,s0
a0801900:	0c20057c 	jal	a08015f0 <itoa>
a0801904:	27a50010 	addiu	a1,sp,16
a0801908:	0c200488 	jal	a0801220 <printstr>
a080190c:	27a40010 	addiu	a0,sp,16
a0801910:	3c04a080 	lui	a0,0xa080
a0801914:	0c200488 	jal	a0801220 <printstr>
a0801918:	2484208c 	addiu	a0,a0,8332
a080191c:	27b00030 	addiu	s0,sp,48
a0801920:	02202021 	move	a0,s1
a0801924:	0c20057c 	jal	a08015f0 <itoa>
a0801928:	02002821 	move	a1,s0
a080192c:	0c200488 	jal	a0801220 <printstr>
a0801930:	02002021 	move	a0,s0
a0801934:	3c04a080 	lui	a0,0xa080
a0801938:	0c200488 	jal	a0801220 <printstr>
a080193c:	24842090 	addiu	a0,a0,8336
a0801940:	8fbf0058 	lw	ra,88(sp)
a0801944:	8fb10054 	lw	s1,84(sp)
a0801948:	8fb00050 	lw	s0,80(sp)
a080194c:	03e00008 	jr	ra
a0801950:	27bd0060 	addiu	sp,sp,96

a0801954 <printint>:
a0801954:	27bdffb0 	addiu	sp,sp,-80
a0801958:	afbf004c 	sw	ra,76(sp)
a080195c:	afb40048 	sw	s4,72(sp)
a0801960:	afb30044 	sw	s3,68(sp)
a0801964:	afb20040 	sw	s2,64(sp)
a0801968:	afb1003c 	sw	s1,60(sp)
a080196c:	afb00038 	sw	s0,56(sp)
a0801970:	00808021 	move	s0,a0
a0801974:	00a08821 	move	s1,a1
a0801978:	00c09821 	move	s3,a2
a080197c:	3c02bfe4 	lui	v0,0xbfe4
a0801980:	34548000 	ori	s4,v0,0x8000
a0801984:	0c200636 	jal	a08018d8 <print_location>
a0801988:	24122710 	li	s2,10000
a080198c:	3c04a080 	lui	a0,0xa080
a0801990:	0c200488 	jal	a0801220 <printstr>
a0801994:	24842094 	addiu	a0,a0,8340
a0801998:	02002021 	move	a0,s0
a080199c:	0c200636 	jal	a08018d8 <print_location>
a08019a0:	02202821 	move	a1,s1
a08019a4:	2402ffff 	li	v0,-1
a08019a8:	2652ffff 	addiu	s2,s2,-1
a08019ac:	5642ffff 	bnel	s2,v0,a08019ac <printint+0x58>
a08019b0:	2652ffff 	addiu	s2,s2,-1
a08019b4:	00009021 	move	s2,zero
a08019b8:	27a60010 	addiu	a2,sp,16
a08019bc:	3c026666 	lui	v0,0x6666
a08019c0:	34456667 	ori	a1,v0,0x6667
a08019c4:	00d22021 	addu	a0,a2,s2
a08019c8:	02650018 	mult	s3,a1
a08019cc:	00001810 	mfhi	v1
a08019d0:	00031883 	sra	v1,v1,0x2
a08019d4:	001317c3 	sra	v0,s3,0x1f
a08019d8:	00621823 	subu	v1,v1,v0
a08019dc:	00031080 	sll	v0,v1,0x2
a08019e0:	00431021 	addu	v0,v0,v1
a08019e4:	00021040 	sll	v0,v0,0x1
a08019e8:	02621023 	subu	v0,s3,v0
a08019ec:	a0820000 	sb	v0,0(a0)
a08019f0:	00609821 	move	s3,v1
a08019f4:	1460fff3 	bnez	v1,a08019c4 <printint+0x70>
a08019f8:	26520001 	addiu	s2,s2,1
a08019fc:	2643ffff 	addiu	v1,s2,-1
a0801a00:	04600010 	bltz	v1,a0801a44 <printint+0xf0>
a0801a04:	8fbf004c 	lw	ra,76(sp)
a0801a08:	3c050001 	lui	a1,0x1
a0801a0c:	27a60010 	addiu	a2,sp,16
a0801a10:	2404ffff 	li	a0,-1
a0801a14:	34b286a0 	ori	s2,a1,0x86a0
a0801a18:	00c31021 	addu	v0,a2,v1
a0801a1c:	90420000 	lbu	v0,0(v0)
a0801a20:	24420030 	addiu	v0,v0,48
a0801a24:	304200ff 	andi	v0,v0,0xff
a0801a28:	2652ffff 	addiu	s2,s2,-1
a0801a2c:	1644ffff 	bne	s2,a0,a0801a2c <printint+0xd8>
a0801a30:	2652ffff 	addiu	s2,s2,-1
a0801a34:	2463ffff 	addiu	v1,v1,-1
a0801a38:	0461fff6 	bgez	v1,a0801a14 <printint+0xc0>
a0801a3c:	a2820000 	sb	v0,0(s4)
a0801a40:	8fbf004c 	lw	ra,76(sp)
a0801a44:	8fb40048 	lw	s4,72(sp)
a0801a48:	8fb30044 	lw	s3,68(sp)
a0801a4c:	8fb20040 	lw	s2,64(sp)
a0801a50:	8fb1003c 	lw	s1,60(sp)
a0801a54:	8fb00038 	lw	s0,56(sp)
a0801a58:	03e00008 	jr	ra
a0801a5c:	27bd0050 	addiu	sp,sp,80

a0801a60 <cursor_up>:
a0801a60:	27bdffe0 	addiu	sp,sp,-32
a0801a64:	afbf001c 	sw	ra,28(sp)
a0801a68:	afb00018 	sw	s0,24(sp)
a0801a6c:	00808021 	move	s0,a0
a0801a70:	3c04a080 	lui	a0,0xa080
a0801a74:	0c200488 	jal	a0801220 <printstr>
a0801a78:	24842088 	addiu	a0,a0,8328
a0801a7c:	02002021 	move	a0,s0
a0801a80:	0c20057c 	jal	a08015f0 <itoa>
a0801a84:	27a50010 	addiu	a1,sp,16
a0801a88:	0c200488 	jal	a0801220 <printstr>
a0801a8c:	27a40010 	addiu	a0,sp,16
a0801a90:	3c04a080 	lui	a0,0xa080
a0801a94:	0c200488 	jal	a0801220 <printstr>
a0801a98:	248420b4 	addiu	a0,a0,8372
a0801a9c:	8fbf001c 	lw	ra,28(sp)
a0801aa0:	8fb00018 	lw	s0,24(sp)
a0801aa4:	03e00008 	jr	ra
a0801aa8:	27bd0020 	addiu	sp,sp,32

a0801aac <cursor_down>:
a0801aac:	27bdffe0 	addiu	sp,sp,-32
a0801ab0:	afbf001c 	sw	ra,28(sp)
a0801ab4:	afb00018 	sw	s0,24(sp)
a0801ab8:	00808021 	move	s0,a0
a0801abc:	3c04a080 	lui	a0,0xa080
a0801ac0:	0c200488 	jal	a0801220 <printstr>
a0801ac4:	24842088 	addiu	a0,a0,8328
a0801ac8:	02002021 	move	a0,s0
a0801acc:	0c20057c 	jal	a08015f0 <itoa>
a0801ad0:	27a50010 	addiu	a1,sp,16
a0801ad4:	0c200488 	jal	a0801220 <printstr>
a0801ad8:	27a40010 	addiu	a0,sp,16
a0801adc:	3c04a080 	lui	a0,0xa080
a0801ae0:	0c200488 	jal	a0801220 <printstr>
a0801ae4:	248420b8 	addiu	a0,a0,8376
a0801ae8:	8fbf001c 	lw	ra,28(sp)
a0801aec:	8fb00018 	lw	s0,24(sp)
a0801af0:	03e00008 	jr	ra
a0801af4:	27bd0020 	addiu	sp,sp,32

a0801af8 <cursor_right>:
a0801af8:	27bdffe0 	addiu	sp,sp,-32
a0801afc:	afbf001c 	sw	ra,28(sp)
a0801b00:	afb00018 	sw	s0,24(sp)
a0801b04:	00808021 	move	s0,a0
a0801b08:	3c04a080 	lui	a0,0xa080
a0801b0c:	0c200488 	jal	a0801220 <printstr>
a0801b10:	24842088 	addiu	a0,a0,8328
a0801b14:	02002021 	move	a0,s0
a0801b18:	0c20057c 	jal	a08015f0 <itoa>
a0801b1c:	27a50010 	addiu	a1,sp,16
a0801b20:	0c200488 	jal	a0801220 <printstr>
a0801b24:	27a40010 	addiu	a0,sp,16
a0801b28:	3c04a080 	lui	a0,0xa080
a0801b2c:	0c200488 	jal	a0801220 <printstr>
a0801b30:	248420bc 	addiu	a0,a0,8380
a0801b34:	8fbf001c 	lw	ra,28(sp)
a0801b38:	8fb00018 	lw	s0,24(sp)
a0801b3c:	03e00008 	jr	ra
a0801b40:	27bd0020 	addiu	sp,sp,32

a0801b44 <cursor_left>:
a0801b44:	27bdffe0 	addiu	sp,sp,-32
a0801b48:	afbf001c 	sw	ra,28(sp)
a0801b4c:	afb00018 	sw	s0,24(sp)
a0801b50:	00808021 	move	s0,a0
a0801b54:	3c04a080 	lui	a0,0xa080
a0801b58:	0c200488 	jal	a0801220 <printstr>
a0801b5c:	24842088 	addiu	a0,a0,8328
a0801b60:	02002021 	move	a0,s0
a0801b64:	0c20057c 	jal	a08015f0 <itoa>
a0801b68:	27a50010 	addiu	a1,sp,16
a0801b6c:	0c200488 	jal	a0801220 <printstr>
a0801b70:	27a40010 	addiu	a0,sp,16
a0801b74:	3c04a080 	lui	a0,0xa080
a0801b78:	0c200488 	jal	a0801220 <printstr>
a0801b7c:	248420c0 	addiu	a0,a0,8384
a0801b80:	8fbf001c 	lw	ra,28(sp)
a0801b84:	8fb00018 	lw	s0,24(sp)
a0801b88:	03e00008 	jr	ra
a0801b8c:	27bd0020 	addiu	sp,sp,32

a0801b90 <delay1s>:
a0801b90:	24050005 	li	a1,5
a0801b94:	24040004 	li	a0,4
a0801b98:	24030074 	li	v1,116
a0801b9c:	240200d6 	li	v0,214
a0801ba0:	2442ffff 	addiu	v0,v0,-1
a0801ba4:	304200ff 	andi	v0,v0,0xff
a0801ba8:	1440fffe 	bnez	v0,a0801ba4 <delay1s+0x14>
a0801bac:	2442ffff 	addiu	v0,v0,-1
a0801bb0:	2462ffff 	addiu	v0,v1,-1
a0801bb4:	304300ff 	andi	v1,v0,0xff
a0801bb8:	1460fff9 	bnez	v1,a0801ba0 <delay1s+0x10>
a0801bbc:	240200d6 	li	v0,214
a0801bc0:	2482ffff 	addiu	v0,a0,-1
a0801bc4:	304400ff 	andi	a0,v0,0xff
a0801bc8:	5480fff4 	bnezl	a0,a0801b9c <delay1s+0xc>
a0801bcc:	24030074 	li	v1,116
a0801bd0:	24a2ffff 	addiu	v0,a1,-1
a0801bd4:	304500ff 	andi	a1,v0,0xff
a0801bd8:	54a0ffef 	bnezl	a1,a0801b98 <delay1s+0x8>
a0801bdc:	24040004 	li	a0,4
a0801be0:	03e00008 	jr	ra
a0801be4:	00000000 	nop

a0801be8 <printnum2>:
a0801be8:	27bdffc0 	addiu	sp,sp,-64
a0801bec:	afbf0038 	sw	ra,56(sp)
a0801bf0:	00804021 	move	t0,a0
a0801bf4:	00a04821 	move	t1,a1
a0801bf8:	3c02bfe4 	lui	v0,0xbfe4
a0801bfc:	34478000 	ori	a3,v0,0x8000
a0801c00:	24062710 	li	a2,10000
a0801c04:	2402ffff 	li	v0,-1
a0801c08:	24c6ffff 	addiu	a2,a2,-1
a0801c0c:	54c2ffff 	bnel	a2,v0,a0801c0c <printnum2+0x24>
a0801c10:	24c6ffff 	addiu	a2,a2,-1
a0801c14:	00003021 	move	a2,zero
a0801c18:	27a50010 	addiu	a1,sp,16
a0801c1c:	00a62021 	addu	a0,a1,a2
a0801c20:	3102000f 	andi	v0,t0,0xf
a0801c24:	a0820000 	sb	v0,0(a0)
a0801c28:	00084102 	srl	t0,t0,0x4
a0801c2c:	00091700 	sll	v0,t1,0x1c
a0801c30:	01024025 	or	t0,t0,v0
a0801c34:	00094902 	srl	t1,t1,0x4
a0801c38:	01091025 	or	v0,t0,t1
a0801c3c:	1440fff7 	bnez	v0,a0801c1c <printnum2+0x34>
a0801c40:	24c60001 	addiu	a2,a2,1
a0801c44:	24c3ffff 	addiu	v1,a2,-1
a0801c48:	04600010 	bltz	v1,a0801c8c <printnum2+0xa4>
a0801c4c:	27a50010 	addiu	a1,sp,16
a0801c50:	00a32021 	addu	a0,a1,v1
a0801c54:	90820000 	lbu	v0,0(a0)
a0801c58:	2c42000a 	sltiu	v0,v0,10
a0801c5c:	14400005 	bnez	v0,a0801c74 <printnum2+0x8c>
a0801c60:	00a31021 	addu	v0,a1,v1
a0801c64:	90820000 	lbu	v0,0(a0)
a0801c68:	24420057 	addiu	v0,v0,87
a0801c6c:	08200720 	j	a0801c80 <printnum2+0x98>
a0801c70:	a0e20000 	sb	v0,0(a3)
a0801c74:	90420000 	lbu	v0,0(v0)
a0801c78:	24420030 	addiu	v0,v0,48
a0801c7c:	a0e20000 	sb	v0,0(a3)
a0801c80:	2463ffff 	addiu	v1,v1,-1
a0801c84:	0463fff3 	bgezl	v1,a0801c54 <printnum2+0x6c>
a0801c88:	00a32021 	addu	a0,a1,v1
a0801c8c:	3c04a080 	lui	a0,0xa080
a0801c90:	0c200488 	jal	a0801220 <printstr>
a0801c94:	24841dd8 	addiu	a0,a0,7640
a0801c98:	8fbf0038 	lw	ra,56(sp)
a0801c9c:	03e00008 	jr	ra
a0801ca0:	27bd0040 	addiu	sp,sp,64
	...

a0801cb0 <queue_push>:
a0801cb0:	8c820008 	lw	v0,8(a0)
a0801cb4:	14400005 	bnez	v0,a0801ccc <queue_push+0x1c>
a0801cb8:	8c820004 	lw	v0,4(a0)
a0801cbc:	8c830000 	lw	v1,0(a0)
a0801cc0:	10620011 	beq	v1,v0,a0801d08 <queue_push+0x58>
a0801cc4:	00003021 	move	a2,zero
a0801cc8:	8c820004 	lw	v0,4(a0)
a0801ccc:	8c83000c 	lw	v1,12(a0)
a0801cd0:	00021080 	sll	v0,v0,0x2
a0801cd4:	00431021 	addu	v0,v0,v1
a0801cd8:	ac450000 	sw	a1,0(v0)
a0801cdc:	8c820004 	lw	v0,4(a0)
a0801ce0:	24420001 	addiu	v0,v0,1
a0801ce4:	8c830010 	lw	v1,16(a0)
a0801ce8:	0043001b 	divu	zero,v0,v1
a0801cec:	14600002 	bnez	v1,a0801cf8 <queue_push+0x48>
a0801cf0:	00000000 	nop
a0801cf4:	0007000d 	break	0x7
a0801cf8:	00001010 	mfhi	v0
a0801cfc:	ac820004 	sw	v0,4(a0)
a0801d00:	ac800008 	sw	zero,8(a0)
a0801d04:	24060001 	li	a2,1
a0801d08:	03e00008 	jr	ra
a0801d0c:	00c01021 	move	v0,a2

a0801d10 <queue_pop>:
a0801d10:	00802821 	move	a1,a0
a0801d14:	8c820008 	lw	v0,8(a0)
a0801d18:	14400013 	bnez	v0,a0801d68 <queue_pop+0x58>
a0801d1c:	00001821 	move	v1,zero
a0801d20:	8c830000 	lw	v1,0(a0)
a0801d24:	8c84000c 	lw	a0,12(a0)
a0801d28:	00031080 	sll	v0,v1,0x2
a0801d2c:	00441021 	addu	v0,v0,a0
a0801d30:	8c440000 	lw	a0,0(v0)
a0801d34:	24630001 	addiu	v1,v1,1
a0801d38:	8ca20010 	lw	v0,16(a1)
a0801d3c:	0062001b 	divu	zero,v1,v0
a0801d40:	14400002 	bnez	v0,a0801d4c <queue_pop+0x3c>
a0801d44:	00000000 	nop
a0801d48:	0007000d 	break	0x7
a0801d4c:	00001810 	mfhi	v1
a0801d50:	aca30000 	sw	v1,0(a1)
a0801d54:	8ca20004 	lw	v0,4(a1)
a0801d58:	14620003 	bne	v1,v0,a0801d68 <queue_pop+0x58>
a0801d5c:	00801821 	move	v1,a0
a0801d60:	24020001 	li	v0,1
a0801d64:	aca20008 	sw	v0,8(a1)
a0801d68:	03e00008 	jr	ra
a0801d6c:	00601021 	move	v0,v1

a0801d70 <queue_init>:
a0801d70:	ac800000 	sw	zero,0(a0)
a0801d74:	ac800004 	sw	zero,4(a0)
a0801d78:	24020001 	li	v0,1
a0801d7c:	03e00008 	jr	ra
a0801d80:	ac820008 	sw	v0,8(a0)

a0801d84 <queue_size>:
a0801d84:	8c850000 	lw	a1,0(a0)
a0801d88:	8c830004 	lw	v1,4(a0)
a0801d8c:	8c820008 	lw	v0,8(a0)
a0801d90:	14400007 	bnez	v0,a0801db0 <queue_size+0x2c>
a0801d94:	00003021 	move	a2,zero
a0801d98:	00a3102b 	sltu	v0,a1,v1
a0801d9c:	14400004 	bnez	v0,a0801db0 <queue_size+0x2c>
a0801da0:	00653023 	subu	a2,v1,a1
a0801da4:	8c820010 	lw	v0,16(a0)
a0801da8:	00623021 	addu	a2,v1,v0
a0801dac:	00c53023 	subu	a2,a2,a1
a0801db0:	03e00008 	jr	ra
a0801db4:	00c01021 	move	v0,a2
	...
a0801dc0:	a03f03fc 	sb	ra,1020(at)
	...
Disassembly of section .rodata.str1.4:

a0801dd8 <.rodata.str1.4>:
a0801dd8:	00000a0d 	break	0x0,0x28
a0801ddc:	323a3431 	andi	k0,s1,0x3431
a0801de0:	00000030 	tge	zero,zero
a0801de4:	65737341 	daddiu	s3,t3,29505
a0801de8:	6f697472 	ldr	t1,29810(k1)
a0801dec:	6166206e 	daddi	a2,t3,8302
a0801df0:	72756c69 	0x72756c69
a0801df4:	00203a65 	0x203a65
a0801df8:	656c6966 	daddiu	t4,t3,26982
a0801dfc:	0000203a 	dsrl	a0,zero,0x0
a0801e00:	6e72656b 	ldr	s2,25963(s3)
a0801e04:	632e6c65 	daddi	t6,t9,27749
a0801e08:	00000000 	nop
a0801e0c:	656e696c 	daddiu	t6,t3,26988
a0801e10:	0000203a 	dsrl	a0,zero,0x0
a0801e14:	3a776f6e 	xori	s7,s3,0x6f6e
a0801e18:	00000020 	add	zero,zero,zero
a0801e1c:	65686373 	daddiu	t0,t3,25459
a0801e20:	656c7564 	daddiu	t4,t3,30052
a0801e24:	00632e72 	tlt	v1,v1,0xb9
a0801e28:	656d6954 	daddiu	t5,t3,26964
a0801e2c:	6e692820 	ldr	t1,10272(s3)
a0801e30:	29737520 	slti	s3,t3,29984
a0801e34:	0000203a 	dsrl	a0,zero,0x0
a0801e38:	65726854 	daddiu	s2,t3,26708
a0801e3c:	31206461 	andi	zero,t1,0x6461
a0801e40:	69742820 	ldl	s4,10272(t3)
a0801e44:	2029656d 	addi	t1,at,25965
a0801e48:	0000203a 	dsrl	a0,zero,0x0
a0801e4c:	65726854 	daddiu	s2,t3,26708
a0801e50:	32206461 	andi	zero,s1,0x6461
a0801e54:	6f6c2820 	ldr	t4,10272(k1)
a0801e58:	09296b63 	j	a4a5ad8c <_gp+0x4250b8c>
a0801e5c:	0000003a 	dsrl	zero,zero,0x0
a0801e60:	65726854 	daddiu	s2,t3,26708
a0801e64:	33206461 	andi	zero,t9,0x6461
a0801e68:	6f6c2820 	ldr	t4,10272(k1)
a0801e6c:	09296b63 	j	a4a5ad8c <_gp+0x4250b8c>
a0801e70:	0000003a 	dsrl	zero,zero,0x0
a0801e74:	74697845 	jalx	a1a5e114 <_gp+0x1253f14>
a0801e78:	00006465 	0x6465
a0801e7c:	73736150 	0x73736150
a0801e80:	00006465 	0x6465
a0801e84:	6c696146 	ldr	t1,24902(v1)
a0801e88:	00006465 	0x6465
a0801e8c:	65726874 	daddiu	s2,t3,26740
a0801e90:	74206461 	jalx	a0819184 <_gp+0xef84>
a0801e94:	20656d69 	addi	a1,v1,28009
a0801e98:	74736f63 	jalx	a1cdbd8c <_gp+0x14d1b8c>
a0801e9c:	3a736920 	xori	s3,s3,0x6920
a0801ea0:	00000020 	add	zero,zero,zero
a0801ea4:	636f6c48 	daddi	t7,k1,27720
a0801ea8:	6e69206b 	ldr	t1,8299(s3)
a0801eac:	61697469 	daddi	t1,t3,29801
a0801eb0:	657a696c 	daddiu	k0,t3,26988
a0801eb4:	79622064 	0x79622064
a0801eb8:	72687420 	0x72687420
a0801ebc:	20646165 	addi	a0,v1,24933
a0801ec0:	00202131 	tgeu	at,zero,0x84
a0801ec4:	6b636f6c 	ldl	v1,28524(k1)
a0801ec8:	71636120 	0x71636120
a0801ecc:	65726975 	daddiu	s2,t3,26997
a0801ed0:	79622064 	0x79622064
a0801ed4:	72687420 	0x72687420
a0801ed8:	20646165 	addi	a0,v1,24933
a0801edc:	79202131 	0x79202131
a0801ee0:	646c6569 	daddiu	t4,v1,25961
a0801ee4:	2e676e69 	sltiu	a3,s3,28265
a0801ee8:	00202e2e 	0x202e2e
a0801eec:	65726874 	daddiu	s2,t3,26740
a0801ef0:	31206461 	andi	zero,t1,0x6461
a0801ef4:	206e6920 	addi	t6,v1,26912
a0801ef8:	746e6f63 	jalx	a1b9bd8c <_gp+0x1391b8c>
a0801efc:	21747865 	addi	s4,t3,30821
a0801f00:	00000020 	add	zero,zero,zero
a0801f04:	72687448 	0x72687448
a0801f08:	20646165 	addi	a0,v1,24933
a0801f0c:	65722031 	daddiu	s2,t3,8241
a0801f10:	7361656c 	0x7361656c
a0801f14:	20676e69 	addi	a3,v1,28265
a0801f18:	6b636f6c 	ldl	v1,28524(k1)
a0801f1c:	00000020 	add	zero,zero,zero
a0801f20:	65726874 	daddiu	s2,t3,26740
a0801f24:	31206461 	andi	zero,t1,0x6461
a0801f28:	69786520 	ldl	t8,25888(t3)
a0801f2c:	676e6974 	daddiu	t6,k1,26996
a0801f30:	00000020 	add	zero,zero,zero
a0801f34:	33335b1b 	andi	s3,t9,0x5b1b
a0801f38:	0000006d 	0x6d
a0801f3c:	31335b1b 	andi	s3,t1,0x5b1b
a0801f40:	0000006d 	0x6d
a0801f44:	32335b1b 	andi	s3,s1,0x5b1b
a0801f48:	0000006d 	0x6d
a0801f4c:	34335b1b 	ori	s3,at,0x5b1b
a0801f50:	0000006d 	0x6d
a0801f54:	65726874 	daddiu	s2,t3,26740
a0801f58:	33206461 	andi	zero,t9,0x6461
a0801f5c:	206e6920 	addi	t6,v1,26912
a0801f60:	746e6f63 	jalx	a1b9bd8c <_gp+0x1391b8c>
a0801f64:	21747865 	addi	s4,t3,30821
a0801f68:	65697920 	daddiu	t1,t3,31008
a0801f6c:	6e69646c 	ldr	t1,25708(s3)
a0801f70:	2e2e2e67 	sltiu	t6,s1,11879
a0801f74:	00000020 	add	zero,zero,zero
a0801f78:	65726874 	daddiu	s2,t3,26740
a0801f7c:	33206461 	andi	zero,t9,0x6461
a0801f80:	71636120 	0x71636120
a0801f84:	69726975 	ldl	s2,26997(t3)
a0801f88:	6c20676e 	ldr	zero,26478(at)
a0801f8c:	216b636f 	addi	t3,t3,25455
a0801f90:	00000020 	add	zero,zero,zero
a0801f94:	65726874 	daddiu	s2,t3,26740
a0801f98:	33206461 	andi	zero,t9,0x6461
a0801f9c:	206e6920 	addi	t6,v1,26912
a0801fa0:	746e6f63 	jalx	a1b9bd8c <_gp+0x1391b8c>
a0801fa4:	21747865 	addi	s4,t3,30821
a0801fa8:	6c657220 	ldr	a1,29216(v1)
a0801fac:	69736165 	ldl	s3,24933(t3)
a0801fb0:	6c20676e 	ldr	zero,26478(at)
a0801fb4:	216b636f 	addi	t3,t3,25455
a0801fb8:	00000021 	move	zero,zero
a0801fbc:	65726874 	daddiu	s2,t3,26740
a0801fc0:	33206461 	andi	zero,t9,0x6461
a0801fc4:	69786520 	ldl	t8,25888(t3)
a0801fc8:	676e6974 	daddiu	t6,k1,26996
a0801fcc:	00000020 	add	zero,zero,zero
a0801fd0:	65726874 	daddiu	s2,t3,26740
a0801fd4:	34206461 	ori	zero,at,0x6461
a0801fd8:	206e6920 	addi	t6,v1,26912
a0801fdc:	746e6f63 	jalx	a1b9bd8c <_gp+0x1391b8c>
a0801fe0:	21747865 	addi	s4,t3,30821
a0801fe4:	71636120 	0x71636120
a0801fe8:	69726975 	ldl	s2,26997(t3)
a0801fec:	6c20676e 	ldr	zero,26478(at)
a0801ff0:	2e6b636f 	sltiu	t3,s3,25455
a0801ff4:	00202e2e 	0x202e2e
a0801ff8:	65726874 	daddiu	s2,t3,26740
a0801ffc:	34206461 	ori	zero,at,0x6461
a0802000:	206e6920 	addi	t6,v1,26912
a0802004:	746e6f63 	jalx	a1b9bd8c <_gp+0x1391b8c>
a0802008:	21747865 	addi	s4,t3,30821
a080200c:	6c657220 	ldr	a1,29216(v1)
a0802010:	69736165 	ldl	s3,24933(t3)
a0802014:	6c20676e 	ldr	zero,26478(at)
a0802018:	2e6b636f 	sltiu	t3,s3,25455
a080201c:	00202e2e 	0x202e2e
a0802020:	65726874 	daddiu	s2,t3,26740
a0802024:	34206461 	ori	zero,at,0x6461
a0802028:	69786520 	ldl	t8,25888(t3)
a080202c:	676e6974 	daddiu	t6,k1,26996
a0802030:	00002021 	move	a0,zero
a0802034:	20202020 	addi	zero,at,8224
a0802038:	20202020 	addi	zero,at,8224
a080203c:	20202020 	addi	zero,at,8224
a0802040:	20202020 	addi	zero,at,8224
a0802044:	20202020 	addi	zero,at,8224
a0802048:	20202020 	addi	zero,at,8224
a080204c:	20202020 	addi	zero,at,8224
a0802050:	20202020 	addi	zero,at,8224
a0802054:	20202020 	addi	zero,at,8224
a0802058:	20202020 	addi	zero,at,8224
a080205c:	20202020 	addi	zero,at,8224
a0802060:	20202020 	addi	zero,at,8224
a0802064:	20202020 	addi	zero,at,8224
a0802068:	20202020 	addi	zero,at,8224
a080206c:	20202020 	addi	zero,at,8224
a0802070:	20202020 	addi	zero,at,8224
a0802074:	00000020 	add	zero,zero,zero
a0802078:	305b1b20 	andi	k1,v0,0x1b20
a080207c:	0000006d 	0x6d
a0802080:	305b1b20 	andi	k1,v0,0x1b20
a0802084:	000a0d6d 	0xa0d6d
a0802088:	00005b1b 	0x5b1b
a080208c:	0000003b 	dsra	zero,zero,0x0
a0802090:	00000048 	0x48
a0802094:	20202020 	addi	zero,at,8224
a0802098:	20202020 	addi	zero,at,8224
a080209c:	20202020 	addi	zero,at,8224
a08020a0:	20202020 	addi	zero,at,8224
a08020a4:	20202020 	addi	zero,at,8224
a08020a8:	20202020 	addi	zero,at,8224
a08020ac:	20202020 	addi	zero,at,8224
a08020b0:	00000000 	nop
a08020b4:	00000041 	0x41
a08020b8:	00000042 	srl	zero,zero,0x1
a08020bc:	00000043 	sra	zero,zero,0x1
a08020c0:	00000044 	0x44
Disassembly of section .data:

a08020d0 <_fdata>:
a08020d0:	a08008b0 	sb	zero,2224(a0)
a08020d4:	00000000 	nop

a08020d8 <task2>:
a08020d8:	a08009b0 	sb	zero,2480(a0)
a08020dc:	00000000 	nop

a08020e0 <task3>:
a08020e0:	a0800ae4 	sb	zero,2788(a0)
a08020e4:	00000000 	nop

a08020e8 <task4>:
a08020e8:	a0810000 	sb	at,0(a0)
a08020ec:	00000001 	0x1

a08020f0 <task5>:
a08020f0:	a0820000 	sb	v0,0(a0)
a08020f4:	00000001 	0x1

a08020f8 <time_switch_1>:
a08020f8:	a0800d70 	sb	zero,3440(a0)
a08020fc:	00000000 	nop

a0802100 <time_switch_2>:
a0802100:	a0800da0 	sb	zero,3488(a0)
a0802104:	00000000 	nop

a0802108 <time_switch_3>:
a0802108:	a0830000 	sb	v1,0(a0)
a080210c:	00000001 	0x1

a0802110 <design_review_1>:
a0802110:	a0800e3c 	sb	zero,3644(a0)
a0802114:	00000000 	nop

a0802118 <design_review_2>:
a0802118:	a0800f44 	sb	zero,3908(a0)
a080211c:	00000000 	nop

a0802120 <design_review_3>:
a0802120:	a0801098 	sb	zero,4248(a0)
a0802124:	00000000 	nop

a0802128 <design_review_4>:
a0802128:	a0801170 	sb	zero,4464(a0)
a080212c:	00000000 	nop

a0802130 <task>:
a0802130:	a08020d0 	sb	zero,8400(a0)
a0802134:	a08020d8 	sb	zero,8408(a0)
a0802138:	a08020e0 	sb	zero,8416(a0)
a080213c:	a08020e8 	sb	zero,8424(a0)

a0802140 <test_line>:
a0802140:	0000000a 	0xa

a0802144 <plane1>:
a0802144:	20202020 	addi	zero,at,8224
a0802148:	5f5f5f20 	0x5f5f5f20
a080214c:	20202020 	addi	zero,at,8224
a0802150:	5f202020 	bgtzl	t9,a080a1d4 <__bbs_end+0x7e1c>
a0802154:	20202020 	addi	zero,at,8224
a0802158:	00000000 	nop

a080215c <plane2>:
a080215c:	5f207c20 	bgtzl	t9,a08211e0 <_gp+0x16fe0>
a0802160:	5c5f5c5f 	0x5c5f5c5f
a0802164:	5f5f6f5f 	0x5f5f6f5f
a0802168:	5f2f5f5f 	0x5f2f5f5f
a080216c:	0000207c 	dsll32	a0,zero,0x1

a0802170 <plane3>:
a0802170:	5f5b3c20 	0x5f5b3c20
a0802174:	5f5c5f5f 	0x5f5c5f5f
a0802178:	2d2d5f5c 	sltiu	t5,t1,24412
a080217c:	3c2d2d2d 	0x3c2d2d2d
a0802180:	00002020 	add	a0,zero,zero

a0802184 <plane4>:
a0802184:	20207c20 	addi	zero,at,31776
a0802188:	2020276f 	addi	zero,at,10095
a080218c:	20202020 	addi	zero,at,8224
a0802190:	20202020 	addi	zero,at,8224
a0802194:	20202020 	addi	zero,at,8224
	...

a08021a0 <screen>:
a08021a0:	bfe48000 	cache	0x4,-32768(ra)

a08021a4 <pic>:
a08021a4:	88e2284f 	lwl	v0,10319(a3)
a08021a8:	88e25fa9 	lwl	v0,24489(a3)
a08021ac:	004f29a9 	0x4f29a9

a08021b0 <test_line>:
a08021b0:	00000009 	jalr	zero,zero
a08021b4:	00000000 	nop
	...
Disassembly of section .ctors:

a0802200 <__CTOR_LIST__>:
	...
Disassembly of section .dtors:

a0802208 <__DTOR_LIST__>:
	...
Disassembly of section .sbss:

a0802210 <blocked_queue>:
a0802210:	00000000 	nop

a0802214 <ready_queue>:
a0802214:	00000000 	nop

a0802218 <current_running>:
a0802218:	00000000 	nop

a080221c <recorded_time>:
a080221c:	00000000 	nop

a0802220 <cpu_time>:
	...

a0802228 <scheduler_count>:
a0802228:	00000000 	nop

a080222c <time>:
a080222c:	00000000 	nop

a0802230 <lock>:
a0802230:	00000000 	nop
Disassembly of section .bss:

a0802240 <counter.0>:
	...

a0802250 <shared_var>:
a0802250:	00000000 	nop

a0802254 <exit_count>:
a0802254:	00000000 	nop

a0802258 <init>:
a0802258:	00000000 	nop

a080225c <counter2.0>:
a080225c:	00000000 	nop

a0802260 <counter3.1>:
a0802260:	00000000 	nop

a0802264 <l>:
	...

a0802270 <len>:
	...

a0802280 <line_all>:
a0802280:	00000000 	nop

a0802284 <rand_val>:
	...

a0802290 <context_arr>:
	...

a0802340 <ready_arr>:
	...

a0802350 <pcb_table>:
	...

a0802380 <b_q>:
	...

a0802394 <r_q>:
	...

a08023a8 <blocked_arr>:
	...
Disassembly of section .pdr:

00000000 <.pdr>:
   0:	a0800200 	sb	zero,512(a0)
   4:	80000000 	lb	zero,0(zero)
   8:	fffffff8 	sd	ra,-8(ra)
	...
  14:	00000040 	sll	zero,zero,0x1
  18:	0000001d 	dmultu	zero,zero
  1c:	0000001f 	ddivu	zero,zero,zero
  20:	a08002bc 	sb	zero,700(a0)
  24:	803f0000 	lb	ra,0(at)
  28:	fffffff8 	sd	ra,-8(ra)
	...
  34:	00000030 	tge	zero,zero
  38:	0000001d 	dmultu	zero,zero
  3c:	0000001f 	ddivu	zero,zero,zero
  40:	a0800590 	sb	zero,1424(a0)
	...
  58:	0000001d 	dmultu	zero,zero
  5c:	0000001f 	ddivu	zero,zero,zero
  60:	a080059c 	sb	zero,1436(a0)
  64:	80030000 	lb	v1,0(zero)
  68:	fffffff8 	sd	ra,-8(ra)
	...
  74:	00000020 	add	zero,zero,zero
  78:	0000001d 	dmultu	zero,zero
  7c:	0000001f 	ddivu	zero,zero,zero
  80:	a08005ec 	sb	zero,1516(a0)
	...
  98:	0000001d 	dmultu	zero,zero
  9c:	0000001f 	ddivu	zero,zero,zero
  a0:	a0800600 	sb	zero,1536(a0)
  a4:	80010000 	lb	at,0(zero)
  a8:	fffffffc 	sd	ra,-4(ra)
	...
  b4:	00000018 	mult	zero,zero
  b8:	0000001d 	dmultu	zero,zero
  bc:	0000001f 	ddivu	zero,zero,zero
  c0:	a0800680 	sb	zero,1664(a0)
  c4:	80000000 	lb	zero,0(zero)
  c8:	fffffff8 	sd	ra,-8(ra)
	...
  d4:	00000018 	mult	zero,zero
  d8:	0000001d 	dmultu	zero,zero
  dc:	0000001f 	ddivu	zero,zero,zero
  e0:	a0800734 	sb	zero,1844(a0)
  e4:	80000000 	lb	zero,0(zero)
  e8:	fffffff8 	sd	ra,-8(ra)
	...
  f4:	00000018 	mult	zero,zero
  f8:	0000001d 	dmultu	zero,zero
  fc:	0000001f 	ddivu	zero,zero,zero
 100:	a0800760 	sb	zero,1888(a0)
 104:	80000000 	lb	zero,0(zero)
 108:	fffffff8 	sd	ra,-8(ra)
	...
 114:	00000018 	mult	zero,zero
 118:	0000001d 	dmultu	zero,zero
 11c:	0000001f 	ddivu	zero,zero,zero
 120:	a0800808 	sb	zero,2056(a0)
 124:	80070000 	lb	a3,0(zero)
 128:	fffffffc 	sd	ra,-4(ra)
	...
 134:	00000020 	add	zero,zero,zero
 138:	0000001d 	dmultu	zero,zero
 13c:	0000001f 	ddivu	zero,zero,zero
 140:	a0800894 	sb	zero,2196(a0)
	...
 158:	0000001d 	dmultu	zero,zero
 15c:	0000001f 	ddivu	zero,zero,zero
 160:	a08008b0 	sb	zero,2224(a0)
 164:	801f0000 	lb	ra,0(zero)
 168:	fffffffc 	sd	ra,-4(ra)
	...
 174:	00000028 	0x28
 178:	0000001d 	dmultu	zero,zero
 17c:	0000001f 	ddivu	zero,zero,zero
 180:	a0800964 	sb	zero,2404(a0)
 184:	80000000 	lb	zero,0(zero)
 188:	fffffff8 	sd	ra,-8(ra)
	...
 194:	00000018 	mult	zero,zero
 198:	0000001d 	dmultu	zero,zero
 19c:	0000001f 	ddivu	zero,zero,zero
 1a0:	a08009b0 	sb	zero,2480(a0)
 1a4:	801f0000 	lb	ra,0(zero)
 1a8:	fffffffc 	sd	ra,-4(ra)
	...
 1b4:	00000028 	0x28
 1b8:	0000001d 	dmultu	zero,zero
 1bc:	0000001f 	ddivu	zero,zero,zero
 1c0:	a0800ae4 	sb	zero,2788(a0)
 1c4:	801f0000 	lb	ra,0(zero)
 1c8:	fffffffc 	sd	ra,-4(ra)
	...
 1d4:	00000028 	0x28
 1d8:	0000001d 	dmultu	zero,zero
 1dc:	0000001f 	ddivu	zero,zero,zero
 1e0:	a0800c10 	sb	zero,3088(a0)
 1e4:	80070000 	lb	a3,0(zero)
 1e8:	fffffffc 	sd	ra,-4(ra)
	...
 1f4:	00000020 	add	zero,zero,zero
 1f8:	0000001d 	dmultu	zero,zero
 1fc:	0000001f 	ddivu	zero,zero,zero
 200:	a0800d70 	sb	zero,3440(a0)
 204:	80000000 	lb	zero,0(zero)
 208:	fffffff8 	sd	ra,-8(ra)
	...
 214:	00000018 	mult	zero,zero
 218:	0000001d 	dmultu	zero,zero
 21c:	0000001f 	ddivu	zero,zero,zero
 220:	a0800da0 	sb	zero,3488(a0)
 224:	80010000 	lb	at,0(zero)
 228:	fffffffc 	sd	ra,-4(ra)
	...
 234:	00000018 	mult	zero,zero
 238:	0000001d 	dmultu	zero,zero
 23c:	0000001f 	ddivu	zero,zero,zero
 240:	a0800e00 	sb	zero,3584(a0)
 244:	80010000 	lb	at,0(zero)
 248:	fffffffc 	sd	ra,-4(ra)
	...
 254:	00000018 	mult	zero,zero
 258:	0000001d 	dmultu	zero,zero
 25c:	0000001f 	ddivu	zero,zero,zero
 260:	a0800e3c 	sb	zero,3644(a0)
 264:	80030000 	lb	v1,0(zero)
 268:	fffffff8 	sd	ra,-8(ra)
	...
 274:	00000020 	add	zero,zero,zero
 278:	0000001d 	dmultu	zero,zero
 27c:	0000001f 	ddivu	zero,zero,zero
 280:	a0800f44 	sb	zero,3908(a0)
 284:	807f0000 	lb	ra,0(v1)
 288:	fffffffc 	sd	ra,-4(ra)
	...
 294:	00000030 	tge	zero,zero
 298:	0000001d 	dmultu	zero,zero
 29c:	0000001f 	ddivu	zero,zero,zero
 2a0:	a0801098 	sb	zero,4248(a0)
 2a4:	80030000 	lb	v1,0(zero)
 2a8:	fffffff8 	sd	ra,-8(ra)
	...
 2b4:	00000020 	add	zero,zero,zero
 2b8:	0000001d 	dmultu	zero,zero
 2bc:	0000001f 	ddivu	zero,zero,zero
 2c0:	a0801170 	sb	zero,4464(a0)
 2c4:	80030000 	lb	v1,0(zero)
 2c8:	fffffff8 	sd	ra,-8(ra)
	...
 2d4:	00000020 	add	zero,zero,zero
 2d8:	0000001d 	dmultu	zero,zero
 2dc:	0000001f 	ddivu	zero,zero,zero
 2e0:	a0801220 	sb	zero,4640(a0)
	...
 2f8:	0000001d 	dmultu	zero,zero
 2fc:	0000001f 	ddivu	zero,zero,zero
 300:	a0801264 	sb	zero,4708(a0)
 304:	801f0000 	lb	ra,0(zero)
 308:	fffffffc 	sd	ra,-4(ra)
	...
 314:	00000038 	dsll	zero,zero,0x0
 318:	0000001d 	dmultu	zero,zero
 31c:	0000001f 	ddivu	zero,zero,zero
 320:	a0801318 	sb	zero,4888(a0)
 324:	801f0000 	lb	ra,0(zero)
 328:	fffffffc 	sd	ra,-4(ra)
	...
 334:	00000038 	dsll	zero,zero,0x0
 338:	0000001d 	dmultu	zero,zero
 33c:	0000001f 	ddivu	zero,zero,zero
 340:	a08013a4 	sb	zero,5028(a0)
 344:	80010000 	lb	at,0(zero)
 348:	fffffffc 	sd	ra,-4(ra)
	...
 354:	00000018 	mult	zero,zero
 358:	0000001d 	dmultu	zero,zero
 35c:	0000001f 	ddivu	zero,zero,zero
 360:	a08013d0 	sb	zero,5072(a0)
 364:	80010000 	lb	at,0(zero)
 368:	fffffffc 	sd	ra,-4(ra)
	...
 374:	00000018 	mult	zero,zero
 378:	0000001d 	dmultu	zero,zero
 37c:	0000001f 	ddivu	zero,zero,zero
 380:	a0801404 	sb	zero,5124(a0)
	...
 398:	0000001d 	dmultu	zero,zero
 39c:	0000001f 	ddivu	zero,zero,zero
 3a0:	a080142c 	sb	zero,5164(a0)
 3a4:	80070000 	lb	a3,0(zero)
 3a8:	fffffffc 	sd	ra,-4(ra)
	...
 3b4:	00000020 	add	zero,zero,zero
 3b8:	0000001d 	dmultu	zero,zero
 3bc:	0000001f 	ddivu	zero,zero,zero
 3c0:	a0801490 	sb	zero,5264(a0)
	...
 3d8:	0000001d 	dmultu	zero,zero
 3dc:	0000001f 	ddivu	zero,zero,zero
 3e0:	a0801518 	sb	zero,5400(a0)
 3e4:	80030000 	lb	v1,0(zero)
 3e8:	fffffff8 	sd	ra,-8(ra)
	...
 3f4:	00000020 	add	zero,zero,zero
 3f8:	0000001d 	dmultu	zero,zero
 3fc:	0000001f 	ddivu	zero,zero,zero
 400:	a080159c 	sb	zero,5532(a0)
	...
 418:	0000001d 	dmultu	zero,zero
 41c:	0000001f 	ddivu	zero,zero,zero
 420:	a08015f0 	sb	zero,5616(a0)
 424:	80000000 	lb	zero,0(zero)
 428:	fffffff8 	sd	ra,-8(ra)
	...
 434:	00000018 	mult	zero,zero
 438:	0000001d 	dmultu	zero,zero
 43c:	0000001f 	ddivu	zero,zero,zero
 440:	a0801658 	sb	zero,5720(a0)
 444:	80000000 	lb	zero,0(zero)
 448:	fffffff8 	sd	ra,-8(ra)
	...
 454:	00000018 	mult	zero,zero
 458:	0000001d 	dmultu	zero,zero
 45c:	0000001f 	ddivu	zero,zero,zero
 460:	a08016b8 	sb	zero,5816(a0)
 464:	80010000 	lb	at,0(zero)
 468:	fffffffc 	sd	ra,-4(ra)
	...
 474:	00000018 	mult	zero,zero
 478:	0000001d 	dmultu	zero,zero
 47c:	0000001f 	ddivu	zero,zero,zero
 480:	a0801710 	sb	zero,5904(a0)
	...
 498:	0000001d 	dmultu	zero,zero
 49c:	0000001f 	ddivu	zero,zero,zero
 4a0:	a0801734 	sb	zero,5940(a0)
	...
 4b8:	0000001d 	dmultu	zero,zero
 4bc:	0000001f 	ddivu	zero,zero,zero
 4c0:	a080178c 	sb	zero,6028(a0)
	...
 4d8:	0000001d 	dmultu	zero,zero
 4dc:	0000001f 	ddivu	zero,zero,zero
 4e0:	a08017f4 	sb	zero,6132(a0)
	...
 4f8:	0000001d 	dmultu	zero,zero
 4fc:	0000001f 	ddivu	zero,zero,zero
 500:	a080181c 	sb	zero,6172(a0)
	...
 518:	0000001d 	dmultu	zero,zero
 51c:	0000001f 	ddivu	zero,zero,zero
 520:	a0801824 	sb	zero,6180(a0)
	...
 538:	0000001d 	dmultu	zero,zero
 53c:	0000001f 	ddivu	zero,zero,zero
 540:	a080182c 	sb	zero,6188(a0)
	...
 558:	0000001d 	dmultu	zero,zero
 55c:	0000001f 	ddivu	zero,zero,zero
 560:	a0801838 	sb	zero,6200(a0)
	...
 578:	0000001d 	dmultu	zero,zero
 57c:	0000001f 	ddivu	zero,zero,zero
 580:	a0801860 	sb	zero,6240(a0)
 584:	80010000 	lb	at,0(zero)
 588:	fffffffc 	sd	ra,-4(ra)
	...
 594:	00000018 	mult	zero,zero
 598:	0000001d 	dmultu	zero,zero
 59c:	0000001f 	ddivu	zero,zero,zero
 5a0:	a080189c 	sb	zero,6300(a0)
 5a4:	80010000 	lb	at,0(zero)
 5a8:	fffffffc 	sd	ra,-4(ra)
	...
 5b4:	00000018 	mult	zero,zero
 5b8:	0000001d 	dmultu	zero,zero
 5bc:	0000001f 	ddivu	zero,zero,zero
 5c0:	a08018d8 	sb	zero,6360(a0)
 5c4:	80030000 	lb	v1,0(zero)
 5c8:	fffffff8 	sd	ra,-8(ra)
	...
 5d4:	00000060 	0x60
 5d8:	0000001d 	dmultu	zero,zero
 5dc:	0000001f 	ddivu	zero,zero,zero
 5e0:	a0801954 	sb	zero,6484(a0)
 5e4:	801f0000 	lb	ra,0(zero)
 5e8:	fffffffc 	sd	ra,-4(ra)
	...
 5f4:	00000050 	0x50
 5f8:	0000001d 	dmultu	zero,zero
 5fc:	0000001f 	ddivu	zero,zero,zero
 600:	a0801a60 	sb	zero,6752(a0)
 604:	80010000 	lb	at,0(zero)
 608:	fffffffc 	sd	ra,-4(ra)
	...
 614:	00000020 	add	zero,zero,zero
 618:	0000001d 	dmultu	zero,zero
 61c:	0000001f 	ddivu	zero,zero,zero
 620:	a0801aac 	sb	zero,6828(a0)
 624:	80010000 	lb	at,0(zero)
 628:	fffffffc 	sd	ra,-4(ra)
	...
 634:	00000020 	add	zero,zero,zero
 638:	0000001d 	dmultu	zero,zero
 63c:	0000001f 	ddivu	zero,zero,zero
 640:	a0801af8 	sb	zero,6904(a0)
 644:	80010000 	lb	at,0(zero)
 648:	fffffffc 	sd	ra,-4(ra)
	...
 654:	00000020 	add	zero,zero,zero
 658:	0000001d 	dmultu	zero,zero
 65c:	0000001f 	ddivu	zero,zero,zero
 660:	a0801b44 	sb	zero,6980(a0)
 664:	80010000 	lb	at,0(zero)
 668:	fffffffc 	sd	ra,-4(ra)
	...
 674:	00000020 	add	zero,zero,zero
 678:	0000001d 	dmultu	zero,zero
 67c:	0000001f 	ddivu	zero,zero,zero
 680:	a0801b90 	sb	zero,7056(a0)
	...
 698:	0000001d 	dmultu	zero,zero
 69c:	0000001f 	ddivu	zero,zero,zero
 6a0:	a0801be8 	sb	zero,7144(a0)
 6a4:	80000000 	lb	zero,0(zero)
 6a8:	fffffff8 	sd	ra,-8(ra)
	...
 6b4:	00000040 	sll	zero,zero,0x1
 6b8:	0000001d 	dmultu	zero,zero
 6bc:	0000001f 	ddivu	zero,zero,zero
 6c0:	a0801cb0 	sb	zero,7344(a0)
	...
 6d8:	0000001d 	dmultu	zero,zero
 6dc:	0000001f 	ddivu	zero,zero,zero
 6e0:	a0801d10 	sb	zero,7440(a0)
	...
 6f8:	0000001d 	dmultu	zero,zero
 6fc:	0000001f 	ddivu	zero,zero,zero
 700:	a0801d70 	sb	zero,7536(a0)
	...
 718:	0000001d 	dmultu	zero,zero
 71c:	0000001f 	ddivu	zero,zero,zero
 720:	a0801d84 	sb	zero,7556(a0)
	...
 738:	0000001d 	dmultu	zero,zero
 73c:	0000001f 	ddivu	zero,zero,zero
Disassembly of section .comment:

00000000 <.comment>:
   0:	43434700 	c0	0x1434700
   4:	4728203a 	c1	0x128203a
   8:	2029554e 	addi	t1,at,21838
   c:	2e342e33 	sltiu	s4,s1,11827
  10:	47000036 	c1	0x1000036
  14:	203a4343 	addi	k0,at,17219
  18:	554e4728 	bnel	t2,t6,11cbc <printnum-0xa07ee544>
  1c:	2e332029 	sltiu	s3,s1,8233
  20:	00362e34 	teq	at,s6,0xb8
  24:	43434700 	c0	0x1434700
  28:	4728203a 	c1	0x128203a
  2c:	2029554e 	addi	t1,at,21838
  30:	2e342e33 	sltiu	s4,s1,11827
  34:	47000036 	c1	0x1000036
  38:	203a4343 	addi	k0,at,17219
  3c:	554e4728 	bnel	t2,t6,11ce0 <printnum-0xa07ee520>
  40:	2e332029 	sltiu	s3,s1,8233
  44:	00362e34 	teq	at,s6,0xb8
  48:	43434700 	c0	0x1434700
  4c:	4728203a 	c1	0x128203a
  50:	2029554e 	addi	t1,at,21838
  54:	2e342e33 	sltiu	s4,s1,11827
  58:	47000036 	c1	0x1000036
  5c:	203a4343 	addi	k0,at,17219
  60:	554e4728 	bnel	t2,t6,11d04 <printnum-0xa07ee4fc>
  64:	2e332029 	sltiu	s3,s1,8233
  68:	00362e34 	teq	at,s6,0xb8
  6c:	43434700 	c0	0x1434700
  70:	4728203a 	c1	0x128203a
  74:	2029554e 	addi	t1,at,21838
  78:	2e342e33 	sltiu	s4,s1,11827
  7c:	47000036 	c1	0x1000036
  80:	203a4343 	addi	k0,at,17219
  84:	554e4728 	bnel	t2,t6,11d28 <printnum-0xa07ee4d8>
  88:	2e332029 	sltiu	s3,s1,8233
  8c:	00362e34 	teq	at,s6,0xb8
  90:	43434700 	c0	0x1434700
  94:	4728203a 	c1	0x128203a
  98:	2029554e 	addi	t1,at,21838
  9c:	2e342e33 	sltiu	s4,s1,11827
  a0:	Address 0x00000000000000a0 is out of bounds.

